(dp1
S'No Time'
p2
S'Lil  Kim Featuring Puff Daddy'
p3
sS'You Don t Have To Love Me'
p4
S'Monifah'
p5
sS'This Is Your Night'
p6
S'Amber'
p7
sS'Get It Together'
p8
S'702'
p9
sS'Twisted'
p10
S'Keith Sweat'
p11
sS'What s On Tonight'
p12
S'Montell Jordan'
p13
sS'What Kind Of Man Would I Be'
p14
S'Mint Condition'
p15
sS'Luchini aka (This Is It)'
p16
S'Camp Lo'
p17
sS'Sugar Honey Ice Tea'
p18
S'Goodfellaz'
p19
sS'Things ll Never Change/Rapper s Ball'
p20
S'E-40 Featuring Bo-Rock'
p21
sS'My Boo'
p22
S'Ghost Town DJ s'
p23
sS'Let Me Clear My Throat'
p24
S'DJ Kool'
p25
sS'Desperately Wanting'
p26
S'Better Than Ezra'
p27
sS'Passion'
p28
S'K5'
p29
sS'I Fell In Love'
p30
S'Rockell'
p31
sS'Never Leave Me Alone'
p32
S'Nate Dogg Featuring Snoop Doggy Dogg'
p33
sS'Drop Dead Gorgeous'
p34
S'Republica'
p35
sS'You Learn/You Oughta Know'
p36
S'Alanis Morissette'
p37
sS'I Believe In You And Me (From "The Preacher s Wife")'
p38
S'Whitney Houston'
p39
sS'Just Between You And Me'
p40
S'dc Talk'
p41
sS'Another You, Another Me'
p42
S'Brady Seals'
p43
sS'I Luv U Baby'
p44
S'The Original'
p45
sS'You Can Make History (Young Again)'
p46
S'Elton John'
p47
sS'Watch Me Do My Thing (From "All That")'
p48
S'Immature Featuring Smooth And Ed From Good Burger'
p49
sS'Bittersweet Me'
p50
S'R.E.M.'
p51
sS'No Diggity'
p52
S'BLACKstreet (Featuring Dr. Dre)'
p53
sS'What They Do'
p54
S'The Roots'
p55
sS'Fly Like An Eagle (From "Space Jam")'
p56
S'Seal'
p57
sS'Street Dreams'
p58
S'NAS'
p59
sS'If It Makes You Happy'
p60
S'Sheryl Crow'
p61
sS'Bohemian Rhapsody (From "High School High")'
p62
S'The Braids'
p63
sS'The Theme (It s Party Time)'
p64
S'Tracey Lee'
p65
sS'Fired Up!'
p66
S'Funky Green Dogs'
p67
sS'You re Makin  Me High/Let It Flow'
p68
S'Toni Braxton'
p69
sS'Ain t Nobody (From "Beavis And Butt-Head Do America")'
p70
S'LL Cool J'
p71
sS'I Love You Always Forever'
p72
S'Donna Lewis'
p73
sS'Un-Break My Heart'
p74
S'Toni Braxton'
p75
sS'Nowhere To Go'
p76
S'Melissa Etheridge'
p77
sS'We Danced Anyway'
p78
S'Deana Carter'
p79
sS'It s All About U'
p80
S'SWV'
p81
sS'Cold Rock A Party'
p82
S'MC Lyte'
p83
sS'It s In Your Eyes'
p84
S'Phil Collins'
p85
sS'Last Night (From "The Nutty Professor")'
p86
S'Az Yet'
p87
sS'Can t Nobody Hold Me Down'
p88
S'Puff Daddy (Featuring Mase)'
p89
sS'Nobody'
p90
S'Keith Sweat Featuring Athena Cage'
p91
sS'My Baby Mama'
p92
S'QT'
p93
sS'I ll Be'
p94
S'Foxy Brown Featuring Jay-Z'
p95
sS'This Is For The Lover In You'
p96
S'Babyface Feat. LL Cool J, Howard Hewett, Jody Watley'
p97
sS'Change The World (From "Phenomenon")'
p98
S'Eric Clapton'
p99
sS'In My Bed'
p100
S'Dru Hill'
p101
sS'Counting Blue Cars'
p102
S'Dishwalla'
p103
sS'Let s Make A Night To Remember'
p104
S'Bryan Adams'
p105
sS'Please Don t Go'
p106
S'No Mercy'
p107
sS'Barely Breathing'
p108
S'Duncan Sheik'
p109
sS'I Finally Found Someone (From "The Mirror Has Two Faces")'
p110
S'Barbra Streisand'
p111
sS'Pony'
p112
S'Ginuwine'
p113
sS'I Always Feel Like (Somebody s Watching Me)'
p114
S'Tru Featuring Ice Cream Man (Master P)'
p115
sS'Macarena (Bayside Boys Mix)'
p116
S'Los Del Rio'
p117
sS'When You Love A Woman'
p118
S'Journey'
p119
sS'Da  Dip'
p120
S'Freak Nasty'
p121
sS'Setting Sun'
p122
S'CHEMICAL BROTHERS'
p123
sS'Nothin  But The Cavi Hit (From "Rhyme '
p124
S'Mack 10'
p125
sS'I Can Make It Better'
p126
S'Luther Vandross'
p127
sS'Tears'
p128
S'The Isley Brothers'
p129
sS'If We Fall In Love Tonight'
p130
S'Rod Stewart'
p131
sS'When Boy Meets Girl'
p132
S'Total'
p133
sS'Firestarter'
p134
S'Prodigy'
p135
sS'Without Love'
p136
S'Donna Lewis'
p137
sS'Get Up'
p138
S'Lost Boyz'
p139
sS'Tell Me (From "Eddie")'
p140
S'Dru Hill'
p141
sS'Don t Stop Movin '
p142
S'Livin  Joy'
p143
sS'Whateva Man'
p144
S'Redman'
p145
sS'One And One'
p146
S'Robert Miles Featuring Maria Nayler'
p147
sS'How Could You (From "Bulletproof")'
p148
S'K-Ci'
p149
sS'Every Time I Close My Eyes'
p150
S'Babyface'
p151
sS'You Must Love Me (From "Evita")'
p152
S'Madonna'
p153
sS'I Like It'
p154
S'The Blackout Allstars'
p155
sS'ATLiens'
p156
S'OutKast'
p157
sS'Stand Up'
p158
S'Love Tribe'
p159
sS'Wannabe'
p160
S'Spice Girls'
p161
sS'Thirty-Three'
p162
S'The Smashing Pumpkins'
p163
sS'Ooh Aah... Just A Little Bit'
p164
S'Gina G'
p165
sS'When You re Gone/Free To Decide'
p166
S'The Cranberries'
p167
sS'I m Not Giving You Up'
p168
S'Gloria Estefan'
p169
sS'Where Do You Go'
p170
S'No Mercy'
p171
sS'Birmingham'
p172
S'Amanda Marshall'
p173
sS'The Moment'
p174
S'Kenny G'
p175
sS'Come See Me'
p176
S'112'
p177
sS'Dance Into The Light'
p178
S'Phil Collins'
p179
sS'Don t Let Go (Love) (From "Set It Off")'
p180
S'En Vogue'
p181
sS'Let s Ride'
p182
S'Richie Rich'
p183
sS'Foolish Games/You Were Meant For Me'
p184
S'Jewel'
p185
sS'Bow Down'
p186
S'Westside Connection'
p187
sS'Take Your Time'
p188
S'Tre'
p189
sS'All I Want'
p190
S'Susanna Hoffs'
p191
sS'Falling'
p192
S'Montell Jordan'
p193
sS'Key West Intermezzo (I Saw You First)'
p194
S'John Mellencamp'
p195
sS'It s Your Body'
p196
S'Johnny Gill Featuring Roger Troutman'
p197
sS'On '
p198
S'Erykah Badu'
p199
sS'Without Your Love'
p200
S'Angelina'
p201
sS'At Night I Pray'
p202
S'Wild Orchid'
p203
sS'Mouth'
p204
S'Merril Bainbridge'
p205
sS'Friends'
p206
S'John Michael Montgomery'
p207
sS'Colour Of Love'
p208
S'Amber'
p209
sS'I m Still In Love With You'
p210
S'New Edition'
p211
sS'Knocks Me Off My Feet'
p212
S'Donell Jones'
p213
sS'It s All Coming Back To Me Now'
p214
S'Celine Dion'
p215
sS'Space Jam (From "Space Jam")'
p216
S'Quad City DJ s'
p217
sS'I Believe I Can Fly (From "Space Jam")'
p218
S'R. Kelly'
p219
sS'Hero Of The Day'
p220
S'Metallica'
p221
sS'It s Alright, It s Ok'
p222
S'Leah Andreone'
p223
sS'Runnin '
p224
S'2Pac, Notorious B.I.G., Radio, Dramacydal'
p225
sS'Naked Eye'
p226
S'Luscious Jackson'
p227
s.