(dp1
S'this is my now'
p2
S'jordin sparks'
p3
sS'only the good die young'
p4
S'glee cast'
p5
sS'an honest mistake'
p6
S'the bravery'
p7
sS'fall for you'
p8
S'secondhand serenade'
p9
sS'love king'
p10
S'the-dream'
p11
sS'it s always somethin '
p12
S'joe diffie'
p13
sS'yellow'
p14
S'coldplay'
p15
sS'calling all angels'
p16
S'train'
p17
sS'that s what i m looking for'
p18
S'da brat'
p19
sS'i wanna be bad'
p20
S'willa ford'
p21
sS'the one'
p22
S'mary j. blige featuring drake'
p23
sS"who's that girl?"
p24
S'eve'
p25
sS'ordinary people'
p26
S'john legend'
p27
sS'no bs'
p28
S'chris brown'
p29
sS'umma do me'
p30
S'rocko'
p31
sS'strip me'
p32
S'natasha bedingfield'
p33
sS'pop bottles'
p34
S'birdman featuring lil wayne'
p35
sS'the jump off'
p36
S"lil' kim featuring mr. cheeks"
p37
sS'dangerously in love'
p38
S'beyonce'
p39
sS'puppy love'
p40
S'lil bow wow featuring jagged edge'
p41
sS"let's be us again"
p42
S'lonestar'
p43
sS'window seat'
p44
S'erykah badu'
p45
sS'up!'
p46
S'shania twain'
p47
sS'where the party at'
p48
S'jagged edge with nelly'
p49
sS'world wide suicide'
p50
S'pearl jam'
p51
sS"that's not my name"
p52
S'the ting tings'
p53
sS'wake up'
p54
S'hilary duff'
p55
sS'forgot about dre'
p56
S'dr. dre featuring eminem'
p57
sS'sorry'
p58
S'buckcherry'
p59
sS'king of anything'
p60
S'sara bareilles'
p61
sS'chop suey'
p62
S'system of a down'
p63
sS'ordinary girl'
p64
S'hannah montana'
p65
sS'i get money'
p66
S'50 cent'
p67
sS'pump it up'
p68
S'joe budden'
p69
sS'red dirt road'
p70
S'brooks & dunn'
p71
sS'i wish'
p72
S'jo dee messina'
p73
sS"she's my kind of rain"
p74
S'tim mcgraw'
p75
sS'one wish'
p76
S'ray j'
p77
sS'stolen'
p78
S'dashboard confessional'
p79
sS"stacy's mom"
p80
S'fountains of wayne'
p81
sS'feels like today'
p82
S'rascal flatts'
p83
sS'epiphany'
p84
S'chrisette michele'
p85
sS"i'll stand by you"
p86
S'glee cast'
p87
sS'country comes to town'
p88
S'toby keith'
p89
sS'thnks fr th mmrs'
p90
S'fall out boy'
p91
sS'in da wind'
p92
S'trick daddy featuring cee-lo & big boi'
p93
sS'if heaven'
p94
S'andy griggs'
p95
sS'lip gloss'
p96
S'lil mama'
p97
sS"do somethin'"
p98
S'britney spears'
p99
sS'get me bodied'
p100
S'beyonce'
p101
sS'king without a crown'
p102
S'matisyahu'
p103
sS'meet me halfway'
p104
S'the black eyed peas'
p105
sS'you are the music in me'
p106
S'zac efron & vanessa anne hudgens'
p107
sS'blue magic'
p108
S'jay-z'
p109
sS'private emotion'
p110
S'ricky martin featuring meja'
p111
sS'all about tonight'
p112
S'blake shelton'
p113
sS"i can't take you anywhere"
p114
S'scotty emerick with toby keith'
p115
sS'makedamnsure'
p116
S'taking back sunday'
p117
sS'true colors'
p118
S'glee cast'
p119
sS'somebody like you'
p120
S'keith urban'
p121
sS'bouncing off the ceiling'
p122
S'a*teens'
p123
sS'fabulous'
p124
S'ashley tisdale and lucas grabeel'
p125
sS'something special'
p126
S'colbie caillat'
p127
sS'last one standing'
p128
S'emerson drive'
p129
sS'ay chico (lengua afuera)'
p130
S'pitbull'
p131
sS'dare you to move'
p132
S'switchfoot'
p133
sS"dance like there's no tomorrow"
p134
S'paula abdul & randy jackson'
p135
sS'shorty wanna ride'
p136
S'young buck'
p137
sS"feelin' freaky"
p138
S'nick cannon featuring b2k'
p139
sS'headfirst slide into cooperstown on a bad bet'
p140
S'fall out boy'
p141
sS'sunshine and summertime'
p142
S'faith hill'
p143
sS'thunder'
p144
S'boys like girls'
p145
sS'schism'
p146
S'tool'
p147
sS'major tom'
p148
S'shiny toy guns'
p149
sS'outside looking in'
p150
S'jordan pruitt'
p151
sS'how far'
p152
S'martina mcbride'
p153
sS'maneater'
p154
S'nelly furtado'
p155
sS'do you remember'
p156
S'jay sean featuring sean paul & lil jon'
p157
sS'one woman man'
p158
S'dave hollister'
p159
sS"i don't wanna stop"
p160
S'ozzy osbourne'
p161
sS'i know'
p162
S'sunday'
p163
sS'honky tonk badonkadonk'
p164
S'trace adkins'
p165
sS'a little bit longer'
p166
S'jonas brothers'
p167
sS'kiss kiss'
p168
S'chris brown featuring t-pain'
p169
sS'a lot of things different'
p170
S'kenny chesney'
p171
sS'rhythm divine'
p172
S'enrique iglesias'
p173
sS'culo'
p174
S'pitbull featuring lil jon'
p175
sS'hero'
p176
S'christopher wilde'
p177
sS'dear lie'
p178
S'tlc'
p179
sS"who's your daddy?"
p180
S'toby keith'
p181
sS'potential breakup song'
p182
S'aly & aj'
p183
sS'my love is like... wo'
p184
S'mya'
p185
sS'never'
p186
S'jaheim'
p187
sS'here'
p188
S'rascal flatts'
p189
sS'in my head'
p190
S'jason derulo'
p191
sS'all-american girl'
p192
S'carrie underwood'
p193
sS'absolutely (story of a girl)'
p194
S'nine days'
p195
sS'famous last words'
p196
S'my chemical romance'
p197
sS'got beef'
p198
S'snoop dogg presents tha eastsidaz featuring jayo felony and blaqthoven'
p199
sS'some beach'
p200
S'blake shelton'
p201
sS'american pie'
p202
S'madonna'
p203
sS'kingdom come'
p204
S'jay-z'
p205
sS'celebration'
p206
S'madonna'
p207
sS'this is the night'
p208
S'clay aiken'
p209
sS'kids'
p210
S'mgmt'
p211
sS"don't think i don't think about it"
p212
S'darius rucker'
p213
sS"bow wow (that's my name)"
p214
S'lil bow wow'
p215
sS"kryptonite (i'm on it)"
p216
S'purple ribbon all-stars'
p217
sS'animal i have become'
p218
S'three days grace'
p219
sS'welcome to the world'
p220
S'kevin rudolf featuring rick ross'
p221
sS'beautiful flower'
p222
S'india.arie'
p223
sS"she don't tell me to"
p224
S'montgomery gentry'
p225
sS'where the hood at?'
p226
S'dmx'
p227
sS'inside the fire'
p228
S'disturbed'
p229
sS"can't stop"
p230
S'red hot chili peppers'
p231
sS"there you'll be"
p232
S'faith hill'
p233
sS'gotta getcha'
p234
S'jermaine dupri'
p235
sS'all good?'
p236
S'de la soul featuring chaka khan'
p237
sS'meanwhile back at the ranch'
p238
S'the clark family experience'
p239
sS"probably wouldn't be this way"
p240
S'leann rimes'
p241
sS'if today was your last day'
p242
S'nickelback'
p243
sS"i can't unlove you"
p244
S'kenny rogers'
p245
sS'red rag top'
p246
S'tim mcgraw'
p247
sS'fireworks'
p248
S'drake featuring alicia keys'
p249
sS'(when you gonna) give it up to me'
p250
S'sean paul feat. keyshia cole'
p251
sS"don't cha"
p252
S'the pussycat dolls featuring busta rhymes'
p253
sS'gotta go solo'
p254
S'patti labelle featuring ron isley'
p255
sS'hey stephen'
p256
S'taylor swift'
p257
sS'fall for your type'
p258
S'jamie foxx featuring drake'
p259
sS'what about us?'
p260
S'brandy'
p261
sS'my, oh my'
p262
S'the wreckers'
p263
sS'bullets in the gun'
p264
S'toby keith'
p265
sS'wordplay'
p266
S'jason mraz'
p267
sS'the big bang'
p268
S'rockmafia'
p269
sS'sneakernight'
p270
S'vanessa hudgens'
p271
sS'my humps'
p272
S'the black eyed peas'
p273
sS'music'
p274
S'erick sermon featuring marvin gaye'
p275
sS'bedrock'
p276
S'young money featuring lloyd'
p277
sS'touchin on my'
p278
S'3oh!3'
p279
sS'imagine that'
p280
S'll cool j'
p281
sS'morris brown'
p282
S'outkast featuring scar & sleepy brown'
p283
sS'independent women part i'
p284
S"destiny's child"
p285
sS'separated'
p286
S'avant'
p287
sS'suddenly i see'
p288
S'kt tunstall'
p289
sS'song for the lonely'
p290
S'cher'
p291
sS'successful'
p292
S'drake featuring trey songz & lil wayne'
p293
sS'mesmerize'
p294
S'ja rule featuring ashanti'
p295
sS'under'
p296
S'pleasure p'
p297
sS'ching-a-ling'
p298
S'missy elliott'
p299
sS'hurt'
p300
S'christina aguilera'
p301
sS'ms. new booty'
p302
S'bubba sparxxx featuring ying yang twins & mr. collipark'
p303
sS'callin  me'
p304
S'lil  zane featuring 112'
p305
sS'i want to know what love is'
p306
S'mariah carey'
p307
sS'love of a woman'
p308
S'travis tritt'
p309
sS'she will be loved'
p310
S'maroon5'
p311
sS"she won't be lonely long"
p312
S'clay walker'
p313
sS'waiting for the end'
p314
S'linkin park'
p315
sS'raining on sunday'
p316
S'keith urban'
p317
sS'overcome'
p318
S'creed'
p319
sS"it's not my time"
p320
S'3 doors down'
p321
sS'bartender'
p322
S't-pain featuring akon'
p323
sS"if it's love"
p324
S'train'
p325
sS'gasolina'
p326
S'daddy yankee'
p327
sS'long live'
p328
S'taylor swift'
p329
sS'until the end of time'
p330
S'justin timberlake duet with beyonce'
p331
sS"don't cry for me argentina (lea michele version)"
p332
S'glee cast'
p333
sS'cross the border'
p334
S"philly's most wanted"
p335
sS'first time'
p336
S'lifehouse'
p337
sS'looking for you'
p338
S'kirk franklin'
p339
sS'solitaire'
p340
S'clay aiken'
p341
sS'forever and for always'
p342
S'shania twain'
p343
sS'goodbye my lover'
p344
S'james blunt'
p345
sS"get it poppin'"
p346
S'fat joe featuring nelly'
p347
sS'in the deep'
p348
S'bird york'
p349
sS'addictive'
p350
S'truth hurts featuring rakim'
p351
sS'the cowboy in me'
p352
S'tim mcgraw'
p353
sS'praying for time'
p354
S'carrie underwood'
p355
sS'pictures of you'
p356
S'the last goodnight'
p357
sS'i disappear'
p358
S'metallica'
p359
sS'living for the night'
p360
S'george strait'
p361
sS'the breath you take'
p362
S'george strait'
p363
sS'give a little more'
p364
S'maroon 5'
p365
sS'get it shawty'
p366
S'lloyd'
p367
sS'paparazzi'
p368
S'lady gaga'
p369
sS'heartless'
p370
S'kris allen'
p371
sS'honey'
p372
S'erykah badu'
p373
sS'sitting, waiting, wishing'
p374
S'jack johnson'
p375
sS'change me'
p376
S'ruben studdard'
p377
sS'days go by'
p378
S'keith urban'
p379
sS"don't wait"
p380
S'dashboard confessional'
p381
sS'me neither'
p382
S'brad paisley'
p383
sS"that's just jessie"
p384
S'kevin denney'
p385
sS'absolute'
p386
S'the fray'
p387
sS'a milli'
p388
S'lil wayne'
p389
sS"when god-fearin' women get the blues"
p390
S'martina mcbride'
p391
sS'holy water'
p392
S'big & rich'
p393
sS'jigga'
p394
S'jay-z'
p395
sS'd.o.a. (death of auto-tune)'
p396
S'jay-z'
p397
sS'butterflies'
p398
S'michael jackson'
p399
sS'uh huh'
p400
S'b2k'
p401
sS'teenage dream'
p402
S'katy perry'
p403
sS'amazing'
p404
S'kanye west featuring young jeezy'
p405
sS'feels like love'
p406
S'vince gill'
p407
sS'imma put it on her'
p408
S'day26 featuring p. diddy & yung joc'
p409
sS'the rock show'
p410
S'blink-182'
p411
sS'toxic'
p412
S'glee cast'
p413
sS"24's"
p414
S't.i.'
p415
sS'grace kelly'
p416
S'mika'
p417
sS'kings and queens'
p418
S'thirty seconds to mars'
p419
sS'who we be'
p420
S'dmx'
p421
sS'teardrops on my guitar'
p422
S'taylor swift'
p423
sS'this time around'
p424
S'hanson'
p425
sS'hurry home'
p426
S'jason michael carroll'
p427
sS'life is a highway'
p428
S'rascal flatts'
p429
sS'what you waiting for?'
p430
S'gwen stefani'
p431
sS'this is the life'
p432
S'hannah montana'
p433
sS'wherever you are'
p434
S'jack ingram'
p435
sS"frontin'"
p436
S'pharrell featuring jay-z'
p437
sS'soul survivor'
p438
S'young jeezy featuring akon'
p439
sS'try it on my own'
p440
S'whitney houston'
p441
sS'new morning'
p442
S'alpha rev'
p443
sS'rough & ready'
p444
S'trace adkins'
p445
sS"it's not over"
p446
S'daughtry'
p447
sS'beautiful girls'
p448
S'sean kingston'
p449
sS'living it up'
p450
S'ja rule featuring case'
p451
sS'last name'
p452
S'carrie underwood'
p453
sS"baby, it's cold outside"
p454
S'glee cast'
p455
sS'welcome to the black parade'
p456
S'my chemical romance'
p457
sS'the middle'
p458
S'jimmy eat world'
p459
sS'say ok'
p460
S'vanessa hudgens'
p461
sS'backwoods'
p462
S'justin moore'
p463
sS'what kinda gone'
p464
S'chris cagle'
p465
sS"when it's over"
p466
S'sugar ray'
p467
sS'breakout'
p468
S'miley cyrus'
p469
sS'goodbye'
p470
S'kristinia debarge'
p471
sS'more than that'
p472
S'backstreet boys'
p473
sS'real live woman'
p474
S'trisha yearwood'
p475
sS'i should be sleeping'
p476
S'emerson drive'
p477
sS'baby i love u'
p478
S'jennifer lopez'
p479
sS'feedback'
p480
S'janet'
p481
sS'from tha chuuuch to da palace'
p482
S'snoop dogg'
p483
sS'over'
p484
S'drake'
p485
sS'bleed it out'
p486
S'linkin park'
p487
sS'little white church'
p488
S'little big town'
p489
sS'misery'
p490
S'maroon 5'
p491
sS'diddy'
p492
S'p. diddy featuring the neptunes'
p493
sS'all jacked up'
p494
S'gretchen wilson'
p495
sS'say it right'
p496
S'nelly furtado'
p497
sS'the christmas shoes'
p498
S'newsong'
p499
sS'my friends over you'
p500
S'new found glory'
p501
sS'that s the kind of mood i m in'
p502
S'patty loveless'
p503
sS'dreamer'
p504
S'chris brown'
p505
sS'southern hospitality'
p506
S'ludacris'
p507
sS"that's that s***"
p508
S'snoop dogg featuring r. kelly'
p509
sS'champagne life'
p510
S'ne-yo'
p511
sS'lil freak'
p512
S'usher featuring nicki minaj'
p513
sS'lifeline'
p514
S'papa roach'
p515
sS"i won't let go"
p516
S'rascal flatts'
p517
sS'never wanted nothing more'
p518
S'kenny chesney'
p519
sS'sweetest girl (dollar bill)'
p520
S'wyclef jean featuring akon, lil wayne & niia'
p521
sS'right above it'
p522
S'lil wayne featuring drake'
p523
sS'my wish'
p524
S'rascal flatts'
p525
sS'i love college'
p526
S'asher roth'
p527
sS'girls and boys'
p528
S'good charlotte'
p529
sS"it's me snitches"
p530
S'swizz beatz'
p531
sS"it's a man's, man's man's world"
p532
S'glee cast'
p533
sS'best of me'
p534
S'mya featuring jadakiss'
p535
sS"when i think about cheatin'"
p536
S'gretchen wilson'
p537
sS'then'
p538
S'brad paisley'
p539
sS'only u'
p540
S'ashanti'
p541
sS'tainted'
p542
S'slum village featuring dwele'
p543
sS'back when'
p544
S'tim mcgraw'
p545
sS'imma be'
p546
S'the black eyed peas'
p547
sS"don't rain on my parade"
p548
S'glee cast featuring lea michele'
p549
sS'change the game'
p550
S'jay-z, beanie sigel and memphis bleek'
p551
sS'collide'
p552
S'howie day'
p553
sS'john doe'
p554
S'public announcement featuring lele'
p555
sS'do it well'
p556
S'jennifer lopez'
p557
sS'leave out all the rest'
p558
S'linkin park'
p559
sS'stupid girls'
p560
S'pink'
p561
sS"i can't wait"
p562
S'sleepy brown featuring outkast'
p563
sS'over it'
p564
S'katharine mcphee'
p565
sS'what you got'
p566
S"colby o'donis featuring akon"
p567
sS'working on a dream'
p568
S'bruce springsteen'
p569
sS'say yes'
p570
S'floetry'
p571
sS"it's over"
p572
S'jesse mccartney'
p573
sS'bon, bon'
p574
S'pitbull'
p575
sS'no more (baby i ma do right)'
p576
S'3lw'
p577
sS'l.o.v.e.'
p578
S'ashlee simpson'
p579
sS'you can do it'
p580
S'ice cube featuring mack 10'
p581
sS'the best man i can be'
p582
S'ginuwine, r.l., tyrese, case'
p583
sS'whistle while you twurk'
p584
S'ying yang twins'
p585
sS'bye bye'
p586
S'mariah carey'
p587
sS'dirty little secret'
p588
S'the all-american rejects'
p589
sS'away from the sun'
p590
S'3 doors down'
p591
sS'jump then fall'
p592
S'taylor swift'
p593
sS'light on'
p594
S'david cook'
p595
sS'whatever it takes'
p596
S'lifehouse'
p597
sS'liv tonight'
p598
S'nelly featuring keri hilson'
p599
sS'pop, lock & drop it'
p600
S'huey'
p601
sS'daughters'
p602
S'john mayer'
p603
sS'addicted'
p604
S'saving abel'
p605
sS"don't you wanna stay"
p606
S'jason aldean with kelly clarkson'
p607
sS'(reach up for the) sunrise'
p608
S'duran duran'
p609
sS'safety dance'
p610
S'glee cast'
p611
sS'gangsta girl'
p612
S'big tymers featuring r. kelly'
p613
sS'mean'
p614
S'taylor swift'
p615
sS'sweet and low'
p616
S'augustana'
p617
sS"it won't be like this for long"
p618
S'darius rucker'
p619
sS'you owe me'
p620
S'nas featuring ginuwine'
p621
sS'lean like a cholo'
p622
S'down a.k.a. kilo'
p623
sS'knockout'
p624
S'lil wayne featuring nicki minaj'
p625
sS'innocent'
p626
S'taylor swift'
p627
sS'size matters (someday)'
p628
S'joe nichols'
p629
sS'love is on its way'
p630
S'jonas brothers'
p631
sS'these are my people'
p632
S'rodney atkins'
p633
sS"didn't you know how much i loved you"
p634
S'kellie pickler'
p635
sS"if you're gone"
p636
S'matchbox twenty'
p637
sS'move along'
p638
S'the all-american rejects'
p639
sS'i need to know'
p640
S'marc anthony'
p641
sS'last friday night (t.g.i.f.)'
p642
S'katy perry'
p643
sS'wild at heart'
p644
S'gloriana'
p645
sS'yeah yeah u know it'
p646
S'keith murray featuring def squad'
p647
sS'like whoa'
p648
S'aly & aj'
p649
sS'stronger woman'
p650
S'jewel'
p651
sS'1 thing'
p652
S'amerie'
p653
sS'do you hear what i hear'
p654
S'carrie underwood'
p655
sS"that's when i love you"
p656
S'phil vassar'
p657
sS'what you want'
p658
S'dmx featuring sisqo'
p659
sS'freeze'
p660
S't-pain featuring chris brown'
p661
sS'happy people'
p662
S'r. kelly'
p663
sS'long black train'
p664
S'josh turner'
p665
sS'be with you'
p666
S'enrique iglesias'
p667
sS'summer rain'
p668
S'carl thomas'
p669
sS'gold digger'
p670
S'kanye west featuring jamie foxx'
p671
sS"b.m.f. (blowin' money fast)"
p672
S'rick ross featuring styles p'
p673
sS"superman (it's not easy)"
p674
S'five for fighting'
p675
sS'just stand up!'
p676
S'artists stand up to cancer'
p677
sS'happy days are here again / get happy'
p678
S'glee cast'
p679
sS'souljas'
p680
S'master p'
p681
sS"where are we runnin'?"
p682
S'lenny kravitz'
p683
sS'free'
p684
S'zac brown band'
p685
sS'losing grip'
p686
S'avril lavigne'
p687
sS'all for one'
p688
S'high school musical 2 cast'
p689
sS'i wanna love you forever'
p690
S'jessica simpson'
p691
sS"i'm like a lawyer...(me & you)"
p692
S'fall out boy'
p693
sS'stay gone'
p694
S'jimmy wayne'
p695
sS'wanted'
p696
S'jessie james'
p697
sS'lollipop'
p698
S'framing hanley'
p699
sS'no more'
p700
S'ruff endz'
p701
sS'mvp'
p702
S'mary j. blige featuring the game & 50 cent'
p703
sS'check on it'
p704
S'beyonce featuring slim thug'
p705
sS'stop and stare'
p706
S'onerepublic'
p707
sS'love at 1st sight'
p708
S'mary j. blige featuring method man'
p709
sS"let's get down"
p710
S'bow wow featuring baby'
p711
sS'the boys of summer'
p712
S'the ataris'
p713
sS'lay me down'
p714
S'the dirty heads featuring rome'
p715
sS'go!'
p716
S'common'
p717
sS'my old friend'
p718
S'tim mcgraw'
p719
sS'so sick'
p720
S'ne-yo'
p721
sS"can't let you go"
p722
S"fabolous featuring mike shorey & lil' mo"
p723
sS'jump to the rhythm'
p724
S'jordan pruitt'
p725
sS'wasting my time'
p726
S'default'
p727
sS'get the party started'
p728
S'pink'
p729
sS"that's how i beat shaq"
p730
S'aaron carter'
p731
sS'my baby you'
p732
S'marc anthony'
p733
sS'my everything'
p734
S'98 degrees'
p735
sS'our country'
p736
S'john mellencamp'
p737
sS'do you want fries with that'
p738
S'tim mcgraw'
p739
sS'my little girl'
p740
S'tim mcgraw'
p741
sS"hey daddy (daddy's home)"
p742
S'usher featuring plies'
p743
sS'american life'
p744
S'madonna'
p745
sS'call my name'
p746
S'prince'
p747
sS'bionic'
p748
S'christina aguilera'
p749
sS'go on girl'
p750
S'ne-yo'
p751
sS'sober'
p752
S'pink'
p753
sS'no matta what (party all night)'
p754
S'toya'
p755
sS'hey ma'
p756
S"cam'ron featuring juelz santana, freekey zekey & toya"
p757
sS"nothin' to die for"
p758
S'tim mcgraw'
p759
sS'me and god'
p760
S'josh turner'
p761
sS'these days'
p762
S'rascal flatts'
p763
sS'wobble wobble'
p764
S'504 boyz'
p765
sS'stupid boy'
p766
S'keith urban'
p767
sS'the rising'
p768
S'bruce springsteen'
p769
sS'rock the party'
p770
S'benzino'
p771
sS'baby by me'
p772
S'50 cent featuring ne-yo'
p773
sS'elevator'
p774
S'eminem'
p775
sS'underneath it all'
p776
S'no doubt featuring lady saw'
p777
sS'big deal'
p778
S'leann rimes'
p779
sS'life after you'
p780
S'daughtry'
p781
sS'hollywood'
p782
S'michael buble'
p783
sS'my life would suck without you'
p784
S'glee cast featuring lea michele, cory monteith, jenna ushkowitz & amber riley'
p785
sS'unbroken'
p786
S'tim mcgraw'
p787
sS'listen'
p788
S'glee cast'
p789
sS'south side'
p790
S'moby featuring gwen stefani'
p791
sS"that's how country boys roll"
p792
S'billy currington'
p793
sS'endless love'
p794
S'glee cast'
p795
sS'dear john'
p796
S'taylor swift'
p797
sS'always strapped'
p798
S'birdman featuring lil wayne'
p799
sS'dem boyz'
p800
S'boyz n da hood'
p801
sS"i'll just hold on"
p802
S'blake shelton'
p803
sS'through the wire'
p804
S'kanye west'
p805
sS'i cry'
p806
S"ja rule featuring lil' mo"
p807
sS"jumpin', jumpin'"
p808
S"destiny's child"
p809
sS'in love with a girl'
p810
S'gavin degraw'
p811
sS'give me that'
p812
S'webbie featuring bun b'
p813
sS'wasted'
p814
S'gucci mane featuring plies or oj da juiceman'
p815
sS'hotel room service'
p816
S'pitbull'
p817
sS'crawl'
p818
S'chris brown'
p819
sS"conceited (there's something about remy)"
p820
S'remy ma'
p821
sS'mercy'
p822
S'duffy'
p823
sS'she let herself go'
p824
S'george strait'
p825
sS'i need a girl'
p826
S'trey songz'
p827
sS'without me'
p828
S'eminem'
p829
sS'all for you'
p830
S'janet'
p831
sS'love sets you free'
p832
S'kelly price'
p833
sS'all i want for christmas is you'
p834
S'mariah carey'
p835
sS"i'm movin' on"
p836
S'rascal flatts'
p837
sS'smooth criminal'
p838
S'alien ant farm'
p839
sS'what about now'
p840
S'daughtry'
p841
sS"let's get dirty (i can't get in da club)"
p842
S'redman featuring dj kool'
p843
sS'laundromat'
p844
S'nivea'
p845
sS'i can transform ya'
p846
S'chris brown featuring lil wayne & swizz beatz'
p847
sS'when your heart stops beating'
p848
S'(+44)'
p849
sS'me enamora'
p850
S'juanes'
p851
sS'break your heart'
p852
S'taio cruz featuring ludacris'
p853
sS'part ii'
p854
S'method man & redman'
p855
sS"don't bother"
p856
S'shakira'
p857
sS'around the world (la la la la la)'
p858
S'atc'
p859
sS'hallelujah (vancouver winter 2010 version)'
p860
S'k.d. lang'
p861
sS'hey baby'
p862
S'no doubt featuring bounty killer'
p863
sS'love your love the most'
p864
S'eric church'
p865
sS'boston'
p866
S'augustana'
p867
sS'mine'
p868
S'taylor swift'
p869
sS'one step closer'
p870
S'linkin park'
p871
sS'i love this bar'
p872
S'toby keith'
p873
sS'live like you were dying'
p874
S'tim mcgraw'
p875
sS'alyssa lies'
p876
S'jason michael carroll'
p877
sS'hot tottie'
p878
S'usher featuring jay-z'
p879
sS'give me a sign (forever and ever)'
p880
S'breaking benjamin'
p881
sS"still tippin'"
p882
S'mike jones featuring slim thug & paul wall'
p883
sS'keg in the closet'
p884
S'kenny chesney'
p885
sS'never too late'
p886
S'three days grace'
p887
sS'wake me up when september ends'
p888
S'green day'
p889
sS'if i was your man'
p890
S'joe'
p891
sS'the first cut is the deepest'
p892
S'sheryl crow'
p893
sS'something happened on the way to heaven'
p894
S'deborah cox'
p895
sS'all i ask for anymore'
p896
S'trace adkins'
p897
sS'leave it all to me (icarly theme song)'
p898
S'miranda cosgrove featuring drake bell'
p899
sS'stupid girl'
p900
S'cold'
p901
sS'i love you this much'
p902
S'jimmy wayne'
p903
sS'trailerhood'
p904
S'toby keith'
p905
sS'i drove all night'
p906
S'celine dion'
p907
sS'what s your fantasy'
p908
S'ludacris featuring shawna'
p909
sS"it's getting better all the time"
p910
S'brooks & dunn'
p911
sS'bootylicious'
p912
S"destiny's child"
p913
sS'he gets that from me'
p914
S'reba mcentire'
p915
sS'excuse me miss'
p916
S'jay-z'
p917
sS'in those jeans'
p918
S'ginuwine'
p919
sS"tell me what's it gonna be"
p920
S'brian mcknight featuring jermaine dupri'
p921
sS'want to'
p922
S'sugarland'
p923
sS'5 star chick'
p924
S'yo gotti'
p925
sS'away from me'
p926
S'puddle of mudd'
p927
sS'hypnotize'
p928
S'system of a down'
p929
sS'cuddy buddy'
p930
S'mike jones featuring trey songz & twista'
p931
sS'nobody but me'
p932
S'blake shelton'
p933
sS'get over yourself'
p934
S"eden's crush"
p935
sS"hollywood's not america"
p936
S'ferras'
p937
sS'keep your mind wide open'
p938
S'annasophia robb'
p939
sS'my heart is lost to you'
p940
S'brooks & dunn'
p941
sS'lovegame'
p942
S'lady gaga'
p943
sS'dreaming with a broken heart'
p944
S'john mayer'
p945
sS'she s more'
p946
S'andy griggs'
p947
sS'a house is not a home'
p948
S'glee cast'
p949
sS'the rockafeller skank'
p950
S'fatboy slim'
p951
sS'king kong'
p952
S'jibbs featuring chamillionaire'
p953
sS'welcome 2 detroit'
p954
S'trick-trick featuring eminem'
p955
sS'my list'
p956
S'toby keith'
p957
sS'the story'
p958
S'brandi carlile'
p959
sS'the wreckoning'
p960
S'boomkat'
p961
sS"nothin' on you"
p962
S'b.o.b featuring bruno mars'
p963
sS'almost home'
p964
S'craig morgan'
p965
sS'stay the night'
p966
S'imx'
p967
sS'in another world'
p968
S'joe diffie'
p969
sS'falling for you'
p970
S'colbie caillat'
p971
sS'8th of november'
p972
S'big & rich'
p973
sS'everything'
p974
S'michael buble'
p975
sS'notion'
p976
S'kings of leon'
p977
sS'incomplete'
p978
S'backstreet boys'
p979
sS'put you in a song'
p980
S'keith urban'
p981
sS"99.9% sure (i've never been here before)"
p982
S'brian mccomas'
p983
sS'chariot'
p984
S'gavin degraw'
p985
sS'need u bad'
p986
S'jazmine sullivan'
p987
sS'badaboom'
p988
S'b2k featuring fabolous'
p989
sS"tonight (i'm lovin' you)"
p990
S'enrique iglesias featuring ludacris & dj frank e'
p991
sS'mad season'
p992
S'matchbox twenty'
p993
sS'roll with me'
p994
S'montgomery gentry'
p995
sS'makes me wonder'
p996
S'maroon 5'
p997
sS"scotty doesn't know"
p998
S'lustra'
p999
sS'ride wit me'
p1000
S'nelly featuring city spud'
p1001
sS'give it away'
p1002
S'george strait'
p1003
sS"please don't leave me"
p1004
S'pink'
p1005
sS'across the universe'
p1006
S'various artists'
p1007
sS'you save me'
p1008
S'kenny chesney'
p1009
sS"drinkin' bone"
p1010
S'tracy byrd'
p1011
sS'bad boyz'
p1012
S'shyne featuring barrington levy'
p1013
sS'accidentally in love'
p1014
S'counting crows'
p1015
sS'she is love'
p1016
S'parachute'
p1017
sS'could it be'
p1018
S'jaheim'
p1019
sS'all of the lights'
p1020
S'kanye west'
p1021
sS'sugar'
p1022
S'flo rida featuring wynter'
p1023
sS'cuando me enamoro'
p1024
S'enrique iglesias featuring juan luis guerra'
p1025
sS'still will'
p1026
S'50 cent featuring akon'
p1027
sS'stop! in the name of love / free your mind'
p1028
S'glee cast'
p1029
sS'boyfriend'
p1030
S'ashlee simpson'
p1031
sS'one less lonely girl'
p1032
S'justin bieber'
p1033
sS'flavor of the weak'
p1034
S'american hi-fi'
p1035
sS'monica'
p1036
S'before dark'
p1037
sS"ready, set, don't go"
p1038
S'billy ray cyrus with miley cyrus'
p1039
sS'temporary home'
p1040
S'carrie underwood'
p1041
sS'face drop'
p1042
S'sean kingston'
p1043
sS'shut up and let me go'
p1044
S'the ting tings'
p1045
sS'glamorous'
p1046
S'fergie featuring ludacris'
p1047
sS'shadowplay'
p1048
S'the killers'
p1049
sS'my first love'
p1050
S'avant featuring ketara wyatt'
p1051
sS'be ok'
p1052
S'ingrid michaelson'
p1053
sS'on the line'
p1054
S'demi lovato featuring jonas brothers'
p1055
sS'haunted'
p1056
S'taylor swift'
p1057
sS'no more rain (in this cloud)'
p1058
S'angie stone'
p1059
sS'just lose it'
p1060
S'eminem'
p1061
sS'www.memory'
p1062
S'alan jackson'
p1063
sS'anything but mine'
p1064
S'kenny chesney'
p1065
sS'six-pack summer'
p1066
S'phil vassar'
p1067
sS'just in case'
p1068
S'jaheim'
p1069
sS"she thinks my tractor's sexy"
p1070
S'kenny chesney'
p1071
sS'living and living well'
p1072
S'george strait'
p1073
sS'lo que son las cosas'
p1074
S'anais'
p1075
sS'one time'
p1076
S'justin bieber'
p1077
sS"nothin' better to do"
p1078
S'leann rimes'
p1079
sS'i want you'
p1080
S'janet jackson'
p1081
sS'we run this'
p1082
S'missy elliott'
p1083
sS'good little girls'
p1084
S'blue county'
p1085
sS'tengo un amor'
p1086
S'toby love featuring rakim & ken-y'
p1087
sS'just be a man about it'
p1088
S'toni braxton'
p1089
sS'shots'
p1090
S'lmfao featuring lil jon'
p1091
sS'mamma mia'
p1092
S'meryl streep'
p1093
sS'release'
p1094
S'timbaland featuring justin timberlake'
p1095
sS'this is war'
p1096
S'thirty seconds to mars'
p1097
sS'if you can do anything else'
p1098
S'george strait'
p1099
sS'steam'
p1100
S'ty herndon'
p1101
sS'pump it'
p1102
S'the black eyed peas'
p1103
sS'all around me'
p1104
S'flyleaf'
p1105
sS'toot it and boot it'
p1106
S'yg'
p1107
sS'into the night'
p1108
S'santana featuring chad kroeger'
p1109
sS'rockstar'
p1110
S'nickelback'
p1111
sS"i told y'all"
p1112
S'petey pablo'
p1113
sS'about you now'
p1114
S'miranda cosgrove'
p1115
sS'dreams collide'
p1116
S'colbie caillat'
p1117
sS'e.t.'
p1118
S'katy perry'
p1119
sS'f**k today'
p1120
S'lil wayne featuring gudda'
p1121
sS'toes'
p1122
S'zac brown band'
p1123
sS'i told you so'
p1124
S'carrie underwood featuring randy travis'
p1125
sS'remember when'
p1126
S'alan jackson'
p1127
sS'put a girl in it'
p1128
S'brooks & dunn'
p1129
sS'seventeen forever'
p1130
S'metro station'
p1131
sS"she's country"
p1132
S'jason aldean'
p1133
sS'hit the floor'
p1134
S'twista featuring pitbull'
p1135
sS'tal vez'
p1136
S'ricky martin'
p1137
sS'bust it baby part 2'
p1138
S'plies featuring ne-yo'
p1139
sS'homewrecker'
p1140
S'gretchen wilson'
p1141
sS'round & round'
p1142
S'selena gomez & the scene'
p1143
sS"don't worry 'bout a thing"
p1144
S'shedaisy'
p1145
sS'by your side'
p1146
S'sade'
p1147
sS"let's get married"
p1148
S'jagged edge'
p1149
sS'emotional rollercoaster'
p1150
S'vivian green'
p1151
sS"i'm like a bird"
p1152
S'nelly furtado'
p1153
sS'warrior'
p1154
S'nelly'
p1155
sS'breakaway'
p1156
S'kelly clarkson'
p1157
sS"gettin' some"
p1158
S'shawnna'
p1159
sS'i can only imagine'
p1160
S'mercyme'
p1161
sS'like we used to'
p1162
S'a rocket to the moon'
p1163
sS'got me going'
p1164
S'day26'
p1165
sS'here without you'
p1166
S'3 doors down'
p1167
sS'round and round'
p1168
S'jonell & method man'
p1169
sS'ignorance'
p1170
S'paramore'
p1171
sS'i belong to you'
p1172
S'lenny kravitz'
p1173
sS'whiskey lullaby'
p1174
S'brad paisley featuring alison krauss'
p1175
sS'marco polo'
p1176
S"bow wow featuring soulja boy tell'em"
p1177
sS"i wish you'd stay"
p1178
S'brad paisley'
p1179
sS'feels just like it should'
p1180
S'pat green'
p1181
sS'snoop dogg'
p1182
S'snoop dogg'
p1183
sS'flathead'
p1184
S'the fratellis'
p1185
sS'roc boys (and the winner is)...'
p1186
S'jay-z'
p1187
sS'half of my heart'
p1188
S'john mayer'
p1189
sS'given up'
p1190
S'linkin park'
p1191
sS"we be burnin'"
p1192
S'sean paul'
p1193
sS'u don t love me'
p1194
S'kumbia kings featuring a.b. quintanilla'
p1195
sS'roll out (my business)'
p1196
S'ludacris'
p1197
sS'as good as i once was'
p1198
S'toby keith'
p1199
sS"that's that"
p1200
S'snoop dogg featuring r. kelly'
p1201
sS'dance tonight'
p1202
S'paul mccartney'
p1203
sS'break you off'
p1204
S'the roots featuring musiq'
p1205
sS'just like me'
p1206
S'jamie foxx featuring t.i.'
p1207
sS"we weren't born to follow"
p1208
S'bon jovi'
p1209
sS"i'm glad"
p1210
S'jennifer lopez'
p1211
sS'on a night like this'
p1212
S'trick pony'
p1213
sS"if i ain't got you"
p1214
S'alicia keys'
p1215
sS"llame pa' verte"
p1216
S'wisin & yandel'
p1217
sS'tough'
p1218
S'craig morgan'
p1219
sS'if u seek amy'
p1220
S'britney spears'
p1221
sS'down to earth'
p1222
S'justin bieber'
p1223
sS'beautiful soul'
p1224
S'jesse mccartney'
p1225
sS'some people change'
p1226
S'montgomery gentry'
p1227
sS'lights, camera, action!'
p1228
S'mr. cheeks'
p1229
sS"i'll be home for christmas"
p1230
S'josh groban'
p1231
sS'no mercy'
p1232
S'ty herndon'
p1233
sS'run this town'
p1234
S'jay-z, rihanna & kanye west'
p1235
sS"doesn't mean anything"
p1236
S'alicia keys'
p1237
sS'buy me a rose'
p1238
S'kenny rogers with alison krauss'
p1239
sS'loaded'
p1240
S'ricky martin'
p1241
sS'trust'
p1242
S'keyshia cole duet with monica'
p1243
sS"i'm with you"
p1244
S'avril lavigne'
p1245
sS'the way i live'
p1246
S'baby boy da prince featuring lil boosie'
p1247
sS'everything to me'
p1248
S'monica'
p1249
sS'one night stand'
p1250
S'j-shin featuring latocha scott'
p1251
sS'hey baby (drop it to the floor)'
p1252
S'pitbull featuring t-pain'
p1253
sS'car wash'
p1254
S'christina aguilera featuring missy elliott'
p1255
sS'chrome'
p1256
S'trace adkins'
p1257
sS'wherever you will go'
p1258
S'the calling'
p1259
sS'thank god i found you'
p1260
S'mariah carey featuring joe'
p1261
sS'beep'
p1262
S'bobby v featuring yung joc'
p1263
sS'miss murder'
p1264
S'afi'
p1265
sS"big pimpin'"
p1266
S'jay-z featuring ugk'
p1267
sS'big pimpin '
p1268
S'jay-z featuring ugk'
p1269
sS'from yesterday'
p1270
S'30 seconds to mars'
p1271
sS'money to blow'
p1272
S'birdman featuring lil wayne & drake'
p1273
sS's.o.s.'
p1274
S'jonas brothers'
p1275
sS'note to god'
p1276
S'charice'
p1277
sS"i'm a thug"
p1278
S'trick daddy'
p1279
sS'dark fantasy'
p1280
S'kanye west featuring teyana taylor, nicki minaj & bon iver'
p1281
sS'hip hop is dead'
p1282
S'nas featuring will.i.am'
p1283
sS'sunshine'
p1284
S"lil' flip featuring lea"
p1285
sS'real big'
p1286
S'mannie fresh'
p1287
sS'inconsolable'
p1288
S'backstreet boys'
p1289
sS'get right'
p1290
S'jennifer lopez'
p1291
sS'sex room'
p1292
S'ludacris featuring trey songz'
p1293
sS'lookin boy'
p1294
S'hot stylz featuring yung joc'
p1295
sS'what would you do?'
p1296
S'the isley brothers featuring ronald isley'
p1297
sS'100 years'
p1298
S'five for fighting'
p1299
sS'voices'
p1300
S'chris young'
p1301
sS'spin'
p1302
S'lifehouse'
p1303
sS'better life'
p1304
S'keith urban'
p1305
sS'blue jeans'
p1306
S'yasmeen featuring ghostface killah'
p1307
sS'i wanna know you'
p1308
S'hannah montana featuring david archuleta'
p1309
sS'say'
p1310
S'john mayer'
p1311
sS'ugly'
p1312
S'bubba sparxxx'
p1313
sS"what if she's an angel"
p1314
S'tommy shane steiner'
p1315
sS'starstruck'
p1316
S'christopher wilde'
p1317
sS'the kill (bury me)'
p1318
S'30 seconds to mars'
p1319
sS'doe boy fresh'
p1320
S'three 6 mafia featuring chamillionaire'
p1321
sS'if i die young'
p1322
S'the band perry'
p1323
sS'pass the courvoisier part ii'
p1324
S'busta rhymes featuring p. diddy & pharrell'
p1325
sS'pyramid'
p1326
S'charice featuring iyaz'
p1327
sS"buy u a drank (shawty snappin')"
p1328
S't-pain featuring yung joc'
p1329
sS'live your life'
p1330
S't.i. featuring rihanna'
p1331
sS"who you'd be today"
p1332
S'kenny chesney'
p1333
sS'the real thing'
p1334
S'bo bice'
p1335
sS'the love song'
p1336
S'jeff bates'
p1337
sS'(i hate) everything about you'
p1338
S'three days grace'
p1339
sS'jai ho! (you are my destiny)'
p1340
S'a r rahman & the pussycat dolls featuring nicole scherzinger'
p1341
sS"help pour out the rain (lacey's song)"
p1342
S'buddy jewell'
p1343
sS'hello good morning'
p1344
S'diddy - dirty money featuring t.i.'
p1345
sS'you know what it is'
p1346
S't.i. featuring wyclef jean'
p1347
sS"you're not sorry"
p1348
S'taylor swift'
p1349
sS'heaven'
p1350
S'los lonely boys'
p1351
sS'american child'
p1352
S'phil vassar'
p1353
sS'if you ever stop loving me'
p1354
S'montgomery gentry'
p1355
sS'damaged'
p1356
S'danity kane'
p1357
sS"pimpin' all over the world"
p1358
S'ludacris featuring bobby valentino'
p1359
sS'raise your glass'
p1360
S'p!nk'
p1361
sS'the show goes on'
p1362
S'lupe fiasco'
p1363
sS"all these things that i've done"
p1364
S'the killers'
p1365
sS'come back song'
p1366
S'darius rucker'
p1367
sS'turn me on'
p1368
S'kevin lyttle featuring spragga benz'
p1369
sS'come back to me'
p1370
S'david cook'
p1371
sS"we thuggin'"
p1372
S'fat joe featuring r. kelly'
p1373
sS"live like we're dying"
p1374
S'kris allen'
p1375
sS'21 questions'
p1376
S'50 cent featuring nate dogg'
p1377
sS'shawty'
p1378
S'plies featuring t-pain'
p1379
sS'the world i know'
p1380
S'david cook'
p1381
sS'my apocalypse'
p1382
S'metallica'
p1383
sS'over my head (cable car)'
p1384
S'the fray'
p1385
sS'independent'
p1386
S"webbie, lil' phat & lil' boosie"
p1387
sS'game over (flip)'
p1388
S"lil' flip"
p1389
sS'good vibrations'
p1390
S'glee cast'
p1391
sS'give me you'
p1392
S'mary j. blige'
p1393
sS'rest in pieces'
p1394
S'saliva'
p1395
sS"why can't i"
p1396
S'liz phair'
p1397
sS'it feels so good'
p1398
S'sonique'
p1399
sS'rain'
p1400
S'creed'
p1401
sS'if my heart had wings'
p1402
S'faith hill'
p1403
sS'when you gonna (give it up to me)'
p1404
S'sean paul featuring keyshia cole'
p1405
sS'i lost it'
p1406
S'kenny chesney'
p1407
sS'where i wanna be'
p1408
S'damizza presents shade sheist featuring nate dogg'
p1409
sS'let it go'
p1410
S'tim mcgraw'
p1411
sS'lean back'
p1412
S'terror squad'
p1413
sS'i can do anything'
p1414
S'3oh!3'
p1415
sS'all falls down'
p1416
S'kanye west featuring syleena johnson'
p1417
sS"it's your life"
p1418
S'francesca battistelli'
p1419
sS'borderline / open your heart'
p1420
S'glee cast featuring lea michele & cory monteith'
p1421
sS'toxicity'
p1422
S'system of a down'
p1423
sS'whiskey girl'
p1424
S'toby keith'
p1425
sS'cherchez laghost'
p1426
S'ghostface killah'
p1427
sS'bounce with me'
p1428
S'lil bow wow featuring xscape'
p1429
sS'would you go with me'
p1430
S'josh turner'
p1431
sS'turn on the radio'
p1432
S'reba'
p1433
sS'1973'
p1434
S'james blunt'
p1435
sS'love is blind'
p1436
S'eve featuring faith evans'
p1437
sS'just a little while'
p1438
S'janet jackson'
p1439
sS'shawty is a 10'
p1440
S'the-dream'
p1441
sS"show me what i'm looking for"
p1442
S'carolina liar'
p1443
sS'imitation of life'
p1444
S'r.e.m.'
p1445
sS'whip my hair'
p1446
S'willow'
p1447
sS'and then what'
p1448
S'young jeezy featuring mannie fresh'
p1449
sS'so gone'
p1450
S'monica'
p1451
sS"it's five o'clock somewhere"
p1452
S'alan jackson & jimmy buffett'
p1453
sS"don't mess with my man"
p1454
S'nivea featuring brian & brandon casey'
p1455
sS'wild horses'
p1456
S'susan boyle'
p1457
sS'gigolo'
p1458
S'nick cannon featuring r. kelly'
p1459
sS'pray for you'
p1460
S'jaron and the long road to love'
p1461
sS'these are the days'
p1462
S'o-town'
p1463
sS'god must be busy'
p1464
S'brooks & dunn'
p1465
sS'icky thump'
p1466
S'the white stripes'
p1467
sS'the way'
p1468
S'jill scott'
p1469
sS'rakata'
p1470
S'wisin & yandel'
p1471
sS'drop the world'
p1472
S'lil wayne featuring eminem'
p1473
sS"start me up / livin' on a prayer"
p1474
S'glee cast'
p1475
sS'human'
p1476
S'the killers'
p1477
sS'take it to da house'
p1478
S'trick daddy featuring the sns express'
p1479
sS'jerk it out'
p1480
S'caesars'
p1481
sS'better as a memory'
p1482
S'kenny chesney'
p1483
sS'the zephyr song'
p1484
S'red hot chili peppers'
p1485
sS'this is how we do'
p1486
S'big tymers'
p1487
sS'forthenight'
p1488
S'musiq'
p1489
sS'have you forgotten?'
p1490
S'darryl worley'
p1491
sS'i don t wanna'
p1492
S'aaliyah'
p1493
sS'i kissed a girl'
p1494
S'katy perry'
p1495
sS'like toy soldiers'
p1496
S'eminem'
p1497
sS"hips don't lie"
p1498
S'shakira featuring wyclef jean'
p1499
sS'all the way turnt up'
p1500
S"roscoe dash featuring soulja boy tell'em"
p1501
sS'easy'
p1502
S'paula deanda featuring bow wow'
p1503
sS'ready for whatever'
p1504
S't.i.'
p1505
sS'you & me'
p1506
S'j-kwon featuring sadiyyah'
p1507
sS'project chick'
p1508
S'cash money millionaires'
p1509
sS'you re a god'
p1510
S'vertical horizon'
p1511
sS"savin' me"
p1512
S'nickelback'
p1513
sS'lovers and friends'
p1514
S'lil jon & the east side boyz featuring usher & ludacris'
p1515
sS'big yellow taxi'
p1516
S'counting crows featuring vanessa carlton'
p1517
sS'steve mcqueen'
p1518
S'sheryl crow'
p1519
sS'chain hang low'
p1520
S'jibbs'
p1521
sS'just another day in paradise'
p1522
S'phil vassar'
p1523
sS"can't nobody"
p1524
S'kelly rowland'
p1525
sS'some things never change'
p1526
S'tim mcgraw'
p1527
sS"gettin' you home (the black dress song)"
p1528
S'chris young'
p1529
sS'(i never promised you a) rose garden'
p1530
S'martina mcbride'
p1531
sS"grindin'"
p1532
S'clipse'
p1533
sS'shadow'
p1534
S'ashlee simpson'
p1535
sS'we made it'
p1536
S'busta rhymes featuring linkin park'
p1537
sS'did my time'
p1538
S'korn'
p1539
sS'dreams'
p1540
S'the game'
p1541
sS'take you home with me a.k.a. body'
p1542
S'r. kelly & jay-z'
p1543
sS"can't be friends"
p1544
S'trey songz'
p1545
sS'bat country'
p1546
S'avenged sevenfold'
p1547
sS"that's what i love about sunday"
p1548
S'craig morgan'
p1549
sS'what means the world to you'
p1550
S'cam ron'
p1551
sS'ever the same'
p1552
S'rob thomas'
p1553
sS'we made you'
p1554
S'eminem'
p1555
sS'nude'
p1556
S'radiohead'
p1557
sS'we are the world 25: for haiti'
p1558
S'artists for haiti'
p1559
sS'alice'
p1560
S'avril lavigne'
p1561
sS'stick to the status quo'
p1562
S'high school musical cast'
p1563
sS'girls in their summer clothes'
p1564
S'bruce springsteen'
p1565
sS'she hates me'
p1566
S'puddle of mudd'
p1567
sS'splash waterfalls'
p1568
S'ludacris'
p1569
sS'hello goodbye'
p1570
S'glee cast featuring lea michele, cory monteith & amber riley'
p1571
sS'party like a rockstar'
p1572
S'shop boyz'
p1573
sS'good is good'
p1574
S'sheryl crow'
p1575
sS'the quittin  kind'
p1576
S'joe diffie'
p1577
sS'battlefield'
p1578
S'jordin sparks'
p1579
sS'something about the sunshine'
p1580
S'christopher wilde & anna margaret'
p1581
sS'don t tell me'
p1582
S'madonna'
p1583
sS"you don't belong"
p1584
S'daughtry'
p1585
sS'play something country'
p1586
S'brooks & dunn'
p1587
sS'zoom'
p1588
S"lil' boosie featuring yung joc"
p1589
sS"baby i'm back"
p1590
S'baby bash featuring akon'
p1591
sS'left '
p1592
S'd angelo featuring method man and redman'
p1593
sS'the space between'
p1594
S'dave matthews band'
p1595
sS'escape'
p1596
S'enrique iglesias'
p1597
sS"don't say goodbye"
p1598
S'paulina rubio'
p1599
sS'don t think i m not'
p1600
S'kandi'
p1601
sS'the streets'
p1602
S'wc featuring nate dogg'
p1603
sS'this is how a heart breaks'
p1604
S'rob thomas'
p1605
sS'sexy movimiento'
p1606
S'wisin & yandel'
p1607
sS"i don't want to miss a thing"
p1608
S'david cook'
p1609
sS"i don't wanna know"
p1610
S'mario winans featuring enya & p. diddy'
p1611
sS'open my heart'
p1612
S'yolanda adams'
p1613
sS'hung up'
p1614
S'madonna'
p1615
sS'love you more'
p1616
S'ginuwine'
p1617
sS'mud on the tires'
p1618
S'brad paisley'
p1619
sS'jenny from the block'
p1620
S'jennifer lopez featuring styles & jadakiss'
p1621
sS'hanging on'
p1622
S'cheyenne kimball'
p1623
sS'come on get higher'
p1624
S'matt nathanson'
p1625
sS'bridging the gap'
p1626
S'nas featuring olu dara'
p1627
sS'swing ya rag'
p1628
S't.i. featuring swizz beatz'
p1629
sS'the little girl'
p1630
S'john michael montgomery'
p1631
sS"poppin' my collar"
p1632
S'three 6 mafia'
p1633
sS'if i had you'
p1634
S'adam lambert'
p1635
sS'marry you'
p1636
S'bruno mars'
p1637
sS"i'll walk"
p1638
S'bucky covington'
p1639
sS'bizounce'
p1640
S'olivia'
p1641
sS'lover, lover'
p1642
S'jerrod niemann'
p1643
sS'burn'
p1644
S'usher'
p1645
sS'come on over baby (all i want is you)'
p1646
S'christina aguilera'
p1647
sS'ser o parecer'
p1648
S'rbd'
p1649
sS'gotta tell you'
p1650
S'samantha mumba'
p1651
sS'outta your mind'
p1652
S'lil jon featuring lmfao'
p1653
sS'best of both worlds'
p1654
S'hannah montana'
p1655
sS'yeah 3x'
p1656
S'chris brown'
p1657
sS'oops (oh my)'
p1658
S'tweet'
p1659
sS'driving me crazy'
p1660
S'sam adams'
p1661
sS"halle berry (she's fine)"
p1662
S'hurricane chris featuring supastaar'
p1663
sS'slither'
p1664
S'velvet revolver'
p1665
sS"the quittin' kind"
p1666
S'joe diffie'
p1667
sS'dashboard'
p1668
S'modest mouse'
p1669
sS'beautiful day'
p1670
S'lee dewyze'
p1671
sS'behind blue eyes'
p1672
S'limp bizkit'
p1673
sS'american baby'
p1674
S'dave matthews band'
p1675
sS"i'm in"
p1676
S'keith urban'
p1677
sS"we'll be a dream"
p1678
S'we the kings featuring demi lovato'
p1679
sS'a new day has come'
p1680
S'celine dion'
p1681
sS'take you home'
p1682
S'angie martinez featuring kelis'
p1683
sS'work it'
p1684
S'missy "misdemeanor" elliott'
p1685
sS'sunday morning'
p1686
S'maroon5'
p1687
sS'let me blow ya mind'
p1688
S'eve featuring gwen stefani'
p1689
sS'coo-coo chee'
p1690
S'ric-a-che'
p1691
sS'liar'
p1692
S'profyle'
p1693
sS'somewhere i belong'
p1694
S'linkin park'
p1695
sS'love like this'
p1696
S'natasha bedingfield featuring sean kingston'
p1697
sS'dilemma'
p1698
S'nelly featuring kelly rowland'
p1699
sS'i look to you'
p1700
S'glee cast'
p1701
sS'need a boss'
p1702
S'shareefa featuring ludacris'
p1703
sS'tilt ya head back'
p1704
S'nelly & christina aguilera'
p1705
sS'down'
p1706
S'jay sean featuring lil wayne'
p1707
sS'the good stuff'
p1708
S'kenny chesney'
p1709
sS'sos'
p1710
S'rihanna'
p1711
sS'rock you baby'
p1712
S'toby keith'
p1713
sS'e.i.'
p1714
S'nelly'
p1715
sS'a year without rain'
p1716
S'selena gomez & the scene'
p1717
sS'hit the freeway'
p1718
S'toni braxton featuring loon'
p1719
sS'lifestyles of the rich and famous'
p1720
S'good charlotte'
p1721
sS'check my brain'
p1722
S'alice in chains'
p1723
sS'i wanna talk about me'
p1724
S'toby keith'
p1725
sS"just got started lovin' you"
p1726
S'james otto'
p1727
sS'white houses'
p1728
S'vanessa carlton'
p1729
sS"you know i'm no good"
p1730
S'amy winehouse featuring ghostface killah'
p1731
sS'why?'
p1732
S'jadakiss featuring anthony hamilton'
p1733
sS'whataya want from me'
p1734
S'adam lambert'
p1735
sS"it's alright, it's ok"
p1736
S'ashley tisdale'
p1737
sS'boyfriend #2'
p1738
S'pleasure p'
p1739
sS'sexyback'
p1740
S'justin timberlake'
p1741
sS'hell on the heart'
p1742
S'eric church'
p1743
sS'air force ones'
p1744
S'nelly featuring kyjuan, ali & murphy lee'
p1745
sS'rap song'
p1746
S't-pain featuring rick ross'
p1747
sS'why'
p1748
S'jason aldean'
p1749
sS'stuck'
p1750
S'stacie orrico'
p1751
sS'the boxer'
p1752
S'lee dewyze'
p1753
sS'doesn t really matter'
p1754
S'janet'
p1755
sS'happy'
p1756
S'leona lewis'
p1757
sS'wait (the whisper song)'
p1758
S'ying yang twins'
p1759
sS'none of ur friends business'
p1760
S'ginuwine'
p1761
sS'only'
p1762
S'nine inch nails'
p1763
sS"who are you when i'm not looking"
p1764
S'blake shelton'
p1765
sS'papa can you hear me?'
p1766
S'glee cast'
p1767
sS'still in love'
p1768
S'teena marie featuring baby'
p1769
sS'sweet caroline'
p1770
S'glee cast featuring mark salling'
p1771
sS'differences'
p1772
S'ginuwine'
p1773
sS'erase me'
p1774
S'kid cudi featuring kanye west'
p1775
sS'this afternoon'
p1776
S'nickelback'
p1777
sS'god bless the u.s.a.'
p1778
S'american idol finalists'
p1779
sS'i will...but'
p1780
S'shedaisy'
p1781
sS'sound of madness'
p1782
S'shinedown'
p1783
sS'low'
p1784
S'flo rida featuring t-pain'
p1785
sS'do i'
p1786
S'luke bryan'
p1787
sS'teenage love affair'
p1788
S'alicia keys'
p1789
sS'stand'
p1790
S'rascal flatts'
p1791
sS'true'
p1792
S'ryan cabrera'
p1793
sS'when i think about angels'
p1794
S"jamie o'neal"
p1795
sS'get on your boots'
p1796
S'u2'
p1797
sS'i could not ask for more'
p1798
S'sara evans'
p1799
sS'live, laugh, love'
p1800
S'clay walker'
p1801
sS'4 my town (play ball)'
p1802
S'birdman featuring drake & lil wayne'
p1803
sS'like this'
p1804
S'mims'
p1805
sS'amor eterno'
p1806
S'christian castro'
p1807
sS'it wasn t me'
p1808
S'shaggy featuring ricardo "rikrok" ducent'
p1809
sS'country man'
p1810
S'luke bryan'
p1811
sS'crazy town'
p1812
S'jason aldean'
p1813
sS"i can't stop loving you"
p1814
S'kem'
p1815
sS'take you down'
p1816
S'chris brown'
p1817
sS'emotional'
p1818
S'carl thomas'
p1819
sS'gotta man'
p1820
S'eve'
p1821
sS"must be doin' somethin' right"
p1822
S'billy currington'
p1823
sS'when you look me in the eyes'
p1824
S'jonas brothers'
p1825
sS"i'll be waiting"
p1826
S'lenny kravitz'
p1827
sS'the other side of me'
p1828
S'hannah montana'
p1829
sS'crazy car'
p1830
S'the naked brothers band'
p1831
sS'light your ass on fire'
p1832
S'busta rhymes'
p1833
sS'tell me'
p1834
S'diddy featuring christina aguilera'
p1835
sS'scandalous'
p1836
S'mis-teeq'
p1837
sS"g.r.i.n.d. (get ready it's a new day)"
p1838
S'asher roth'
p1839
sS'what we do'
p1840
S'freeway featuring jay-z & beanie sigel'
p1841
sS'goodbye for now'
p1842
S'p.o.d.'
p1843
sS'suspicions'
p1844
S'tim mcgraw'
p1845
sS'request line'
p1846
S'black eyed peas featuring macy gray'
p1847
sS'honky tonk stomp'
p1848
S'brooks & dunn featuring billy gibbons'
p1849
sS'te quiero'
p1850
S'flex'
p1851
sS'no problem'
p1852
S'lil scrappy'
p1853
sS'prayer'
p1854
S'disturbed'
p1855
sS"rollin'"
p1856
S'limp bizkit'
p1857
sS'something more'
p1858
S'sugarland'
p1859
sS'a country boy can survive (y2k version)'
p1860
S'chad brock with hank williams jr.'
p1861
sS'beer in mexico'
p1862
S'kenny chesney'
p1863
sS'physical'
p1864
S'glee cast featuring olivia newton-john'
p1865
sS'i wonder'
p1866
S'kellie pickler'
p1867
sS'say my name'
p1868
S'destiny s child'
p1869
sS'love drunk'
p1870
S'boys like girls'
p1871
sS'i am not a human being'
p1872
S'lil wayne'
p1873
sS'just like you'
p1874
S'hannah montana'
p1875
sS'midwest swing'
p1876
S'st. lunatics'
p1877
sS'papers'
p1878
S'usher'
p1879
sS'bad habits'
p1880
S'maxwell'
p1881
sS'summer nights'
p1882
S'rascal flatts'
p1883
sS'take me home'
p1884
S'terror squad'
p1885
sS'roll'
p1886
S'flo rida featuring sean kingston'
p1887
sS'girl on tv'
p1888
S'lfo'
p1889
sS'maybe i deserve'
p1890
S'tank'
p1891
sS'picture'
p1892
S'kid rock featuring sheryl crow or allison moorer'
p1893
sS"i'm still a guy"
p1894
S'brad paisley'
p1895
sS'it s gonna be me'
p1896
S'n sync'
p1897
sS'feel it boy'
p1898
S'beenie man featuring janet'
p1899
sS'dig in'
p1900
S'lenny kravitz'
p1901
sS'baby, come over (this is our night)'
p1902
S'samantha mumba'
p1903
sS'you rock my world'
p1904
S'michael jackson'
p1905
sS'summer love'
p1906
S'justin timberlake'
p1907
sS'where would you be'
p1908
S'martina mcbride'
p1909
sS'high school never ends'
p1910
S'bowling for soup'
p1911
sS'hole in the head'
p1912
S'sugababes'
p1913
sS'bling bling'
p1914
S'b.g. featuring baby, turk, mannie fresh, juvenile'
p1915
sS"i don't wanna be in love (dance floor anthem)"
p1916
S'good charlotte'
p1917
sS"it's my life"
p1918
S'no doubt'
p1919
sS'ayo technology'
p1920
S'50 cent featuring justin timberlake & timbaland'
p1921
sS'selfish'
p1922
S'slum village featuring kanye west & john legend'
p1923
sS'my next thirty years'
p1924
S'tim mcgraw'
p1925
sS'talk about our love'
p1926
S'brandy featuring kanye west'
p1927
sS'come close to me'
p1928
S'common featuring mary j. blige'
p1929
sS'gonorrhea'
p1930
S'lil wayne featuring drake'
p1931
sS"bia' bia'"
p1932
S'lil jon & the east side boyz featuring ludacris, too short, big kap & chyna whyte'
p1933
sS"'03 bonnie & clyde"
p1934
S'jay-z featuring beyonce knowles'
p1935
sS'speed of sound'
p1936
S'coldplay'
p1937
sS'hood figga'
p1938
S'gorilla zoe'
p1939
sS'hope'
p1940
S'twista featuring faith evans'
p1941
sS'i did it'
p1942
S'dave matthews band'
p1943
sS'i do (wanna get close to you)'
p1944
S'3lw featuring p. diddy & loon'
p1945
sS'yahhh!'
p1946
S"soulja boy tell'em featuring arab"
p1947
sS'not ready to make nice'
p1948
S'dixie chicks'
p1949
sS'too much of a good thing'
p1950
S'alan jackson'
p1951
sS"ridin' solo"
p1952
S'jason derulo'
p1953
sS'he wasn t man enough'
p1954
S'toni braxton'
p1955
sS"stuck in a moment you can't get out of"
p1956
S'u2'
p1957
sS'making memories of us'
p1958
S'keith urban'
p1959
sS'why they call it falling'
p1960
S'lee ann womack'
p1961
sS'aston martin music'
p1962
S'rick ross featuring drake & chrisette michele'
p1963
sS'and i'
p1964
S'ciara'
p1965
sS'give it to her'
p1966
S'tanto metro & devonte'
p1967
sS'one minute man'
p1968
S'missy "misdemeanor" elliott'
p1969
sS"club can't handle me"
p1970
S'flo rida featuring david guetta'
p1971
sS"guess who's back"
p1972
S'scarface featuring jay-z & beanie sigel'
p1973
sS'raise up'
p1974
S'petey pablo'
p1975
sS'yo (excuse me miss)'
p1976
S'chris brown'
p1977
sS'my city of ruins (live from the kennedy center honors)'
p1978
S'eddie vedder'
p1979
sS"don't forget about us"
p1980
S'mariah carey'
p1981
sS'something to be proud of'
p1982
S'montgomery gentry'
p1983
sS'clint eastwood'
p1984
S'gorillaz'
p1985
sS'are you happy now?'
p1986
S'michelle branch'
p1987
sS'i saw god today'
p1988
S'george strait'
p1989
sS"i'm in miami trick"
p1990
S'lmfao'
p1991
sS'you are the best thing'
p1992
S'ray lamontagne'
p1993
sS'the boys of fall'
p1994
S'kenny chesney'
p1995
sS'3am'
p1996
S'eminem'
p1997
sS"o let's do it"
p1998
S'waka flocka flame'
p1999
sS'krazy'
p2000
S'pitbull featuring lil jon'
p2001
sS'stealing cinderella'
p2002
S'chuck wicks'
p2003
sS'gots ta be'
p2004
S'b2k'
p2005
sS"i think i'm in love with you"
p2006
S'jessica simpson'
p2007
sS'pork and beans'
p2008
S'weezer'
p2009
sS"cheatin'"
p2010
S'sara evans'
p2011
sS'anonymous'
p2012
S'bobby valentino featuring timbaland'
p2013
sS'missing you'
p2014
S'case'
p2015
sS'aaron s party (come get it)'
p2016
S'aaron carter'
p2017
sS'thug holiday'
p2018
S'trick daddy featuring latocha scott'
p2019
sS'cool'
p2020
S'gwen stefani'
p2021
sS'jook gal (wine wine)'
p2022
S'elephant man'
p2023
sS'let it be'
p2024
S'kris allen'
p2025
sS'one more day'
p2026
S'diamond rio'
p2027
sS'so excited'
p2028
S'janet featuring khia'
p2029
sS'clothes off!!'
p2030
S'gym class heroes'
p2031
sS'the fear'
p2032
S'lily allen'
p2033
sS'how do you get that lonely'
p2034
S'blaine larsen'
p2035
sS'make a movie'
p2036
S'twista featuring chris brown'
p2037
sS'officially missing you'
p2038
S'tamia'
p2039
sS'i like it'
p2040
S'enrique iglesias featuring pitbull'
p2041
sS'defy you'
p2042
S'the offspring'
p2043
sS"it's america"
p2044
S'rodney atkins'
p2045
sS"ain't it funny"
p2046
S'jennifer lopez featuring ja rule'
p2047
sS'i knew i loved you'
p2048
S'savage garden'
p2049
sS'truth is'
p2050
S'fantasia'
p2051
sS'bonfire'
p2052
S'craig morgan'
p2053
sS'slow down'
p2054
S'bobby valentino'
p2055
sS'sexy chick'
p2056
S'david guetta featuring akon'
p2057
sS'there you are'
p2058
S'martina mcbride'
p2059
sS'regret'
p2060
S'letoya featuring ludacris'
p2061
sS"ain't leavin without you"
p2062
S'jaheim'
p2063
sS'i remember'
p2064
S'keyshia cole'
p2065
sS'the catalyst'
p2066
S'linkin park'
p2067
sS'jesus, take the wheel'
p2068
S'carrie underwood'
p2069
sS"he wasn't man enough"
p2070
S'toni braxton'
p2071
sS'if everyone cared'
p2072
S'nickelback'
p2073
sS'i will love again'
p2074
S'lara fabian'
p2075
sS"ain't i"
p2076
S'yung l.a. featuring young dro & t.i.'
p2077
sS'inside your heaven'
p2078
S'carrie underwood'
p2079
sS'g d up'
p2080
S'snoop dogg presents tha eastsidaz'
p2081
sS"here's to the night"
p2082
S'eve 6'
p2083
sS'thank you in advance'
p2084
S'boyz ii men'
p2085
sS'going on'
p2086
S'gnarls barkley'
p2087
sS'thank you'
p2088
S'lil bow wow featuring jagged edge & fundisha'
p2089
sS'love you out loud'
p2090
S'rascal flatts'
p2091
sS'sleepwalker'
p2092
S'the wallflowers'
p2093
sS'goodbye earl'
p2094
S'dixie chicks'
p2095
sS'chicken fried'
p2096
S'zac brown band'
p2097
sS'free yourself'
p2098
S'fantasia'
p2099
sS'freaks'
p2100
S'play-n-skillz featuring krayzie bone & adina howard'
p2101
sS'la camisa negra'
p2102
S'juanes'
p2103
sS'got your money'
p2104
S'ol  dirty bastard featuring kelis'
p2105
sS'always on time'
p2106
S'ja rule featuring ashanti'
p2107
sS"the world's greatest"
p2108
S'r. kelly'
p2109
sS'helena (so long & goodnight)'
p2110
S'my chemical romance'
p2111
sS'1234'
p2112
S'feist'
p2113
sS'the pretender'
p2114
S'foo fighters'
p2115
sS'vanilla twilight'
p2116
S'owl city'
p2117
sS'california gurls'
p2118
S'katy perry featuring snoop dogg'
p2119
sS'love lockdown'
p2120
S'kanye west'
p2121
sS'mirror mirror'
p2122
S'm2m'
p2123
sS'water'
p2124
S'brad paisley'
p2125
sS'let s make love'
p2126
S'faith hill with tim mcgraw'
p2127
sS'knock knock'
p2128
S'monica'
p2129
sS'alone'
p2130
S'glee cast'
p2131
sS'change'
p2132
S'taylor swift'
p2133
sS"livin' it up"
p2134
S'ja rule featuring case'
p2135
sS'fresh azimiz'
p2136
S'bow wow featuring j-kwon & jermaine dupri'
p2137
sS'without you'
p2138
S'hinder'
p2139
sS'runnin'
p2140
S'tupac featuring the notorious b.i.g.'
p2141
sS'every girl'
p2142
S'young money'
p2143
sS'morning after dark'
p2144
S'timbaland featuring nelly furtado & soshy'
p2145
sS'grenade'
p2146
S'bruno mars'
p2147
sS'sk8er boi'
p2148
S'avril lavigne'
p2149
sS'make me a song'
p2150
S'kiley dean'
p2151
sS'eenie meenie'
p2152
S'sean kingston & justin bieber'
p2153
sS'international harvester'
p2154
S'craig morgan'
p2155
sS"what i've been looking for"
p2156
S'lucas grabeel & ashley tisdale'
p2157
sS'castles in the sky'
p2158
S'ian van dahl featuring marsha'
p2159
sS'why wait'
p2160
S'rascal flatts'
p2161
sS"fallin'"
p2162
S'alicia keys'
p2163
sS'seasons of love'
p2164
S'cast of rent'
p2165
sS'one step at a time'
p2166
S'jordin sparks'
p2167
sS'boulevard of broken dreams'
p2168
S'green day'
p2169
sS"tell me something i don't know"
p2170
S'selena gomez'
p2171
sS'me and my gang'
p2172
S'rascal flatts'
p2173
sS'paralyzer'
p2174
S'finger eleven'
p2175
sS'love'
p2176
S'keyshia cole'
p2177
sS'hello, i love you'
p2178
S'glee cast'
p2179
sS'run joey run'
p2180
S'glee cast featuring jonathan groff'
p2181
sS'no matter what they say'
p2182
S'lil  kim'
p2183
sS'just breathe'
p2184
S'pearl jam'
p2185
sS'n dey say'
p2186
S'nelly'
p2187
sS'bad romance'
p2188
S'lady gaga'
p2189
sS'(hot s**t) country grammar'
p2190
S'nelly'
p2191
sS'give me just one night (una noche)'
p2192
S'98 degrees'
p2193
sS'love in this club'
p2194
S'usher featuring young jeezy'
p2195
sS'bring me to life'
p2196
S'evanescence featuring paul mccoy'
p2197
sS"tell me (what's goin' on)"
p2198
S'smilez & southstar'
p2199
sS'baby'
p2200
S'justin bieber featuring ludacris'
p2201
sS'down on me'
p2202
S'jeremih featuring 50 cent'
p2203
sS'shortie like mine'
p2204
S'bow wow featuring chris brown & johnta austin'
p2205
sS'confessions of a broken heart (daughter to father)'
p2206
S'lindsay lohan'
p2207
sS'stars are blind'
p2208
S'paris hilton'
p2209
sS'dude'
p2210
S'beenie man featuring ms. thing'
p2211
sS'hanging by a moment'
p2212
S'lifehouse'
p2213
sS'if i were a boy'
p2214
S'beyonce'
p2215
sS'her diamonds'
p2216
S'rob thomas'
p2217
sS'get back up'
p2218
S't.i. featuring chris brown'
p2219
sS'i keep on loving you'
p2220
S'reba'
p2221
sS'all i have'
p2222
S'jennifer lopez featuring ll cool j'
p2223
sS"chopped 'n' skrewed"
p2224
S't-pain featuring ludacris'
p2225
sS'put me down'
p2226
S'donell jones'
p2227
sS'angels'
p2228
S'david archuleta'
p2229
sS'it happens'
p2230
S'sugarland'
p2231
sS'violet hill'
p2232
S'coldplay'
p2233
sS'moment 4 life'
p2234
S'nicki minaj featuring drake'
p2235
sS"when you're gone"
p2236
S'avril lavigne'
p2237
sS'closet freak'
p2238
S'cee-lo'
p2239
sS'something in your mouth'
p2240
S'nickelback'
p2241
sS"you should've told me"
p2242
S'kelly price'
p2243
sS'everywhere'
p2244
S'michelle branch'
p2245
sS'just the girl'
p2246
S'the click five'
p2247
sS'all things considered'
p2248
S'yankee grey'
p2249
sS'hillbilly bone'
p2250
S'blake shelton featuring trace adkins'
p2251
sS'hella good'
p2252
S'no doubt'
p2253
sS'survivalism'
p2254
S'nine inch nails'
p2255
sS"move (if you 'w'anna)"
p2256
S'mims'
p2257
sS'gangsta nation'
p2258
S'westside connection featuring nate dogg'
p2259
sS'take my breath away'
p2260
S'jessica simpson'
p2261
sS'the other side of the door'
p2262
S'taylor swift'
p2263
sS'rockstar 101'
p2264
S'rihanna featuring slash'
p2265
sS'she never cried in front of me'
p2266
S'toby keith'
p2267
sS'working class hero'
p2268
S'green day'
p2269
sS'little sister'
p2270
S'queens of the stone age'
p2271
sS'sandstorm'
p2272
S'darude'
p2273
sS'hit that'
p2274
S'the offspring'
p2275
sS'thong song'
p2276
S'sisqo'
p2277
sS'by the way'
p2278
S'red hot chili peppers'
p2279
sS'cowboys like us'
p2280
S'george strait'
p2281
sS'big green tractor'
p2282
S'jason aldean'
p2283
sS"she couldn't change me"
p2284
S'montgomery gentry'
p2285
sS'can t go for that'
p2286
S'tamia'
p2287
sS'unconditional'
p2288
S'clay davidson'
p2289
sS'wish you were here'
p2290
S'incubus'
p2291
sS'crazy'
p2292
S'gnarls barkley'
p2293
sS'funhouse'
p2294
S'pink'
p2295
sS'downfall'
p2296
S'trustcompany'
p2297
sS"sissy's song"
p2298
S'alan jackson'
p2299
sS'seven nation army'
p2300
S'the white stripes'
p2301
sS'roc the mic'
p2302
S'beanie sigel & freeway'
p2303
sS'rubber band man'
p2304
S't.i.'
p2305
sS'shape of my heart'
p2306
S'backstreet boys'
p2307
sS"f**k it (i don't want you back)"
p2308
S'eamon'
p2309
sS'halo / walking on sunshine'
p2310
S'glee cast'
p2311
sS'lose my breath'
p2312
S"destiny's child"
p2313
sS'better than revenge'
p2314
S'taylor swift'
p2315
sS'u make me wanna'
p2316
S'jadakiss featuring mariah carey'
p2317
sS"we takin' over"
p2318
S"dj khaled featuring t.i., akon, rick ross, fat joe, lil' wayne & baby"
p2319
sS'o'
S'omarion'
p2320
sS'gimmie that girl'
p2321
S'joe nichols'
p2322
sS'i breathe in, i breathe out'
p2323
S'chris cagle'
p2324
sS"won't go home without you"
p2325
S'maroon 5'
p2326
sS'stole'
p2327
S'kelly rowland'
p2328
sS'impacto'
p2329
S'daddy yankee featuring fergie'
p2330
sS'you complete me'
p2331
S'keyshia cole'
p2332
sS'blame it'
p2333
S'jamie foxx featuring t-pain'
p2334
sS'ooh!'
p2335
S'mary j. blige'
p2336
sS'people are crazy'
p2337
S'billy currington'
p2338
sS"she's not just a pretty face"
p2339
S'shania twain'
p2340
sS'tim mcgraw'
p2341
S'taylor swift'
p2342
sS'through the rain'
p2343
S'mariah carey'
p2344
sS"don't blink"
p2345
S'kenny chesney'
p2346
sS'sounds like life to me'
p2347
S'darryl worley'
p2348
sS"he didn't have to be"
p2349
S'brad paisley'
p2350
sS'so fine'
p2351
S'sean paul'
p2352
sS'how low'
p2353
S'ludacris'
p2354
sS'unappreciated'
p2355
S'cherish'
p2356
sS'143'
p2357
S'bobby brackins featuring ray j'
p2358
sS'read my mind'
p2359
S'the killers'
p2360
sS'wonderful'
p2361
S'ja rule featuring r. kelly & ashanti'
p2362
sS'nasty girl'
p2363
S'the notorious b.i.g. featuring diddy, nelly, jagged edge & avery storm'
p2364
sS'diva'
p2365
S'beyonce'
p2366
sS'every day is exactly the same'
p2367
S'nine inch nails'
p2368
sS'thinking about you'
p2369
S'norah jones'
p2370
sS'hero/heroine'
p2371
S'boys like girls'
p2372
sS'the great beyond'
p2373
S'r.e.m.'
p2374
sS'mad'
p2375
S'ne-yo'
p2376
sS'i am'
p2377
S'mary j. blige'
p2378
sS'crying out for me'
p2379
S'mario'
p2380
sS'read your mind'
p2381
S'avant'
p2382
sS'kiss this'
p2383
S'aaron tippin'
p2384
sS'the adventure'
p2385
S'angels and airwaves'
p2386
sS'right here'
p2387
S'staind'
p2388
sS'crack a bottle'
p2389
S'eminem, dr. dre & 50 cent'
p2390
sS'small town usa'
p2391
S'justin moore'
p2392
sS'maybe'
p2393
S'sick puppies'
p2394
sS'sensual seduction'
p2395
S'snoop dogg'
p2396
sS'soul meets body'
p2397
S'death cab for cutie'
p2398
sS'juicebox'
p2399
S'the strokes'
p2400
sS"she's all i got"
p2401
S'jimmy cozier'
p2402
sS'switch'
p2403
S'will smith'
p2404
sS'wait for you'
p2405
S'elliott yamin'
p2406
sS'pop a top'
p2407
S'alan jackson'
p2408
sS'need you now'
p2409
S'lady antebellum'
p2410
sS'bill gates'
p2411
S'lil wayne'
p2412
sS'i will be'
p2413
S'leona lewis'
p2414
sS'lost without u'
p2415
S'robin thicke'
p2416
sS'talk'
p2417
S'coldplay'
p2418
sS'so small'
p2419
S'carrie underwood'
p2420
sS'angels on the moon'
p2421
S'thriving ivory'
p2422
sS'flashing lights'
p2423
S'kanye west featuring dwele'
p2424
sS'push it'
p2425
S'rick ross'
p2426
sS'4 minutes'
p2427
S'glee cast featuring chris colfer & amber riley'
p2428
sS"2012 (it ain't the end)"
p2429
S'jay sean featuring nicki minaj'
p2430
sS'let me go'
p2431
S'3 doors down'
p2432
sS'opposite of adults'
p2433
S'chiddy bang'
p2434
sS'must be nice'
p2435
S'lyfe jennings'
p2436
sS"ain't nothing `bout you"
p2437
S'brooks & dunn'
p2438
sS'shake'
p2439
S'jesse mccartney'
p2440
sS'cold'
p2441
S'crossfade'
p2442
sS'still'
p2443
S'tim mcgraw'
p2444
sS'put it on ya'
p2445
S'plies featuring chris j'
p2446
sS'the game of love'
p2447
S'santana featuring michelle branch'
p2448
sS'no one knows'
p2449
S'queens of the stone age'
p2450
sS'snow (hey oh)'
p2451
S'red hot chili peppers'
p2452
sS"bouncin' back (bumpin' me against the wall)"
p2453
S'mystikal'
p2454
sS'torn'
p2455
S'letoya'
p2456
sS'hot'
p2457
S'avril lavigne'
p2458
sS'waiting for you'
p2459
S'seal'
p2460
sS'suffocate'
p2461
S'j. holiday'
p2462
sS'the world'
p2463
S'brad paisley'
p2464
sS"i'm yours"
p2465
S'jason mraz'
p2466
sS'l.a. song'
p2467
S'beth hart'
p2468
sS'the impossible'
p2469
S'joe nichols'
p2470
sS'lonely'
p2471
S'akon'
p2472
sS'maybe this time'
p2473
S'glee cast'
p2474
sS"you don't know"
p2475
S'eminem, 50 cent, lloyd banks & cashis'
p2476
sS'7 things'
p2477
S'miley cyrus'
p2478
sS'baby u are'
p2479
S'gerald levert'
p2480
sS'what goes around...comes around'
p2481
S'justin timberlake'
p2482
sS'love is free'
p2483
S'sheryl crow'
p2484
sS'prom queen'
p2485
S'lil wayne'
p2486
sS'what chu like'
p2487
S'da brat featuring tyrese'
p2488
sS'beautiful mess'
p2489
S'diamond rio'
p2490
sS'halo'
p2491
S'beyonce'
p2492
sS'she thinks my tractor s sexy'
p2493
S'kenny chesney'
p2494
sS'under pressure'
p2495
S'the used and my chemical romance'
p2496
sS'thoia thoing'
p2497
S'r. kelly'
p2498
sS'i like them girls'
p2499
S'tyrese'
p2500
sS'turn it up'
p2501
S"chamillionaire featuring lil' flip"
p2502
sS'just for you'
p2503
S'lionel richie'
p2504
sS'is it any wonder?'
p2505
S'keane'
p2506
sS'amarillo sky'
p2507
S'jason aldean'
p2508
sS'f.u.r.b.'
p2509
S'frankee'
p2510
sS'lay it down'
p2511
S'lloyd'
p2512
sS'back that thang up'
p2513
S'juvenile featuring mannie fresh'
p2514
sS'5 star'
p2515
S'yo gotti'
p2516
sS'nothing on but the radio'
p2517
S'gary allan'
p2518
sS'another one bites the dust'
p2519
S'glee cast'
p2520
sS"that's what it's all about"
p2521
S'brooks & dunn'
p2522
sS'yeah'
p2523
S'usher featuring ludacris & lil jon'
p2524
sS'come over'
p2525
S'aaliyah'
p2526
sS'angry all the time'
p2527
S'tim mcgraw'
p2528
sS"don't go breaking my heart"
p2529
S'glee cast'
p2530
sS"can't let go"
p2531
S'anthony hamilton'
p2532
sS'replay'
p2533
S'iyaz'
p2534
sS"i wish i wasn't"
p2535
S'heather headley'
p2536
sS"i'm gonna be alright"
p2537
S'jennifer lopez featuring nas'
p2538
sS'stereo love'
p2539
S'edward maya & vika jigulina'
p2540
sS'upgrade u'
p2541
S'beyonce featuring jay-z'
p2542
sS'okay'
p2543
S'nivea featuring lil jon & youngbloodz'
p2544
sS'girl'
p2545
S'paul wall'
p2546
sS"where i'm from"
p2547
S'jason michael carroll'
p2548
sS"steady mobbin'"
p2549
S'young money featuring gucci mane'
p2550
sS'monday morning church'
p2551
S'alan jackson'
p2552
sS'oklahoma'
p2553
S'billy gilman'
p2554
sS'hole in the world'
p2555
S'eagles'
p2556
sS'yes!'
p2557
S'chad brock'
p2558
sS'trapped in the closet'
p2559
S'r. kelly'
p2560
sS'on the ocean'
p2561
S"k'jon"
p2562
sS"don't lie"
p2563
S'the black eyed peas'
p2564
sS'never had a dream come true'
p2565
S's club 7'
p2566
sS'uprising'
p2567
S'muse'
p2568
sS'barefoot and crazy'
p2569
S'jack ingram'
p2570
sS"what was i thinkin'"
p2571
S'dierks bentley'
p2572
sS"she's a hottie"
p2573
S'toby keith'
p2574
sS'monster'
p2575
S'kanye west featuring jay-z, rick ross, bon iver & nicki minaj'
p2576
sS'sideways'
p2577
S'dierks bentley'
p2578
sS'between me and you'
p2579
S'ja rule featuring christina milian'
p2580
sS'ghetto story'
p2581
S'cham'
p2582
sS'stay fly'
p2583
S'three 6 mafia featuring young buck & eightball & mjg'
p2584
sS'vitamin r (leading us along)'
p2585
S'chevelle'
p2586
sS'complicated'
p2587
S'avril lavigne'
p2588
sS'crazier'
p2589
S'taylor swift'
p2590
sS'so yesterday'
p2591
S'hilary duff'
p2592
sS'flowers on the wall'
p2593
S'eric heatherly'
p2594
sS'my baby'
p2595
S'bow wow featuring jagged edge'
p2596
sS'redneck woman'
p2597
S'gretchen wilson'
p2598
sS'break the ice'
p2599
S'britney spears'
p2600
sS'guerrilla radio'
p2601
S'rage against the machine'
p2602
sS"who says you can't go home"
p2603
S'bon jovi'
p2604
sS'i will not bow'
p2605
S'breaking benjamin'
p2606
sS'blah blah blah'
p2607
S'ke$ha featuring 3oh!3'
p2608
sS'waiting for tonight'
p2609
S'jennifer lopez'
p2610
sS'if i am'
p2611
S'nine days'
p2612
sS'when i grow up'
p2613
S'the pussycat dolls'
p2614
sS'drugs or jesus'
p2615
S'tim mcgraw'
p2616
sS'when you lie next to me'
p2617
S'kellie coffey'
p2618
sS"how far we've come"
p2619
S'matchbox twenty'
p2620
sS'swing'
p2621
S"savage featuring soulja boy tell'em"
p2622
sS'riding with private malone'
p2623
S'david ball'
p2624
sS"stepped on my j'z"
p2625
S'nelly featuring ciara & jd'
p2626
sS'one voice'
p2627
S'billy gilman'
p2628
sS'there goes my life'
p2629
S'kenny chesney'
p2630
sS'lean on me'
p2631
S'sheryl crow, kid rock & keith urban'
p2632
sS'emotion'
p2633
S"destiny's child"
p2634
sS'intuition'
p2635
S'jewel'
p2636
sS'history in the making'
p2637
S'darius rucker'
p2638
sS'la tortura'
p2639
S'shakira feat. alejandro sanz'
p2640
sS'another side of you'
p2641
S'joe nichols'
p2642
sS"i'm a believer"
p2643
S'smash mouth'
p2644
sS'never again'
p2645
S'kelly clarkson'
p2646
sS'one'
p2647
S'glee cast'
p2648
sS'clumsy'
p2649
S'fergie'
p2650
sS'here to stay'
p2651
S'korn'
p2652
sS'shining down'
p2653
S'lupe fiasco featuring matthew santos'
p2654
sS'how did you know?'
p2655
S'mynt featuring kim sozzi'
p2656
sS'with arms wide open'
p2657
S'creed'
p2658
sS"movin' on"
p2659
S'elliott yamin'
p2660
sS'hot 2nite'
p2661
S'new edition'
p2662
sS'about us'
p2663
S'brooke hogan featuring paul wall'
p2664
sS'3 little words'
p2665
S'nu flavor'
p2666
sS'on the way down'
p2667
S'ryan cabrera'
p2668
sS'everytime tha beat drop'
p2669
S'monica featuring dem franchize boyz'
p2670
sS'welcome to my life'
p2671
S'simple plan'
p2672
sS'never (past tense)'
p2673
S'the roc project featuring tina arena'
p2674
sS"a feelin' like that"
p2675
S'gary allan'
p2676
sS'bottoms up'
p2677
S'trey songz featuring nicki minaj'
p2678
sS'megalomaniac'
p2679
S'incubus'
p2680
sS'act a fool'
p2681
S'ludacris'
p2682
sS'many rivers to cross'
p2683
S'annie lennox'
p2684
sS'will 2k'
p2685
S'will smith featuring k-ci'
p2686
sS'duffle bag boy'
p2687
S'playaz circle featuring lil wayne'
p2688
sS"ma, i don't love her"
p2689
S'clipse featuring faith evans'
p2690
sS'let me love you'
p2691
S'mario'
p2692
sS'the end'
p2693
S'kings of leon'
p2694
sS'when it hurts'
p2695
S'avant'
p2696
sS'love like crazy'
p2697
S'lee brice'
p2698
sS'love like woe'
p2699
S'the ready set'
p2700
sS'1st time'
p2701
S'yung joc featuring marques houston & trey songz'
p2702
sS'cupid shuffle'
p2703
S'cupid'
p2704
sS"tell me 'bout it"
p2705
S'joss stone'
p2706
sS'jar of hearts'
p2707
S'christina perri'
p2708
sS'unpretty'
p2709
S'tlc'
p2710
sS'earth intruders'
p2711
S'bjork'
p2712
sS'long way 2 go'
p2713
S'cassie'
p2714
sS'last kiss'
p2715
S'taylor swift'
p2716
sS'this everyday love'
p2717
S'rascal flatts'
p2718
sS'stays in mexico'
p2719
S'toby keith'
p2720
sS'shoulda let you go'
p2721
S'keyshia cole introducing amina'
p2722
sS'taking chances'
p2723
S'glee cast'
p2724
sS'loverboy'
p2725
S'mariah carey featuring cameo'
p2726
sS'according to you'
p2727
S'orianthi'
p2728
sS'salt shaker'
p2729
S'ying yang twins featuring lil jon & the east side boyz'
p2730
sS'ghetto girls'
p2731
S'lil bow wow'
p2732
sS'rehab'
p2733
S'glee cast'
p2734
sS'aerials'
p2735
S'system of a down'
p2736
sS'just a baby boy'
p2737
S'snoop dogg featuring tyrese & mr. tan'
p2738
sS'love me if you can'
p2739
S'toby keith'
p2740
sS'lean wit it, rock wit it'
p2741
S'dem franchize boyz featuring lil peanut & charlay'
p2742
sS'who dat'
p2743
S'j. cole'
p2744
sS'pon de replay'
p2745
S'rihanna'
p2746
sS"gettin' over you"
p2747
S'david guetta & chris willis featuring fergie & lmfao'
p2748
sS'angel'
p2749
S'akon'
p2750
sS'marijuana'
p2751
S'kid cudi'
p2752
sS'funny the way it is'
p2753
S'dave matthews band'
p2754
sS'ladies love country boys'
p2755
S'trace adkins'
p2756
sS'breathe and stop'
p2757
S'q-tip'
p2758
sS'do that...'
p2759
S'baby featuring p. diddy'
p2760
sS'my first kiss'
p2761
S'3oh!3 featuring ke$ha'
p2762
sS'down the road'
p2763
S'kenny chesney with mac mcanally'
p2764
sS'drive (for daddy gene)'
p2765
S'alan jackson'
p2766
sS'insatiable'
p2767
S'darren hayes'
p2768
sS"she's more"
p2769
S'andy griggs'
p2770
sS'been there'
p2771
S'clint black with steve wariner'
p2772
sS'superman'
p2773
S'brown boy'
p2774
sS'kush'
p2775
S'dr. dre featuring snoop dogg & akon'
p2776
sS'when love takes over'
p2777
S'david guetta featuring kelly rowland'
p2778
sS'cowboys are frequently secretly (fond of each other)'
p2779
S'willie nelson'
p2780
sS'bless the broken road'
p2781
S'rascal flatts'
p2782
sS"it's so hard"
p2783
S'big punisher featuring donell jones'
p2784
sS'straight to the bank'
p2785
S'50 cent'
p2786
sS'already gone'
p2787
S'kelly clarkson'
p2788
sS"where'd you go"
p2789
S'fort minor featuring holly brook'
p2790
sS'black horse & the cherry tree'
p2791
S'kt tunstall'
p2792
sS'saturday (oooh! ooooh!)'
p2793
S'ludacris featuring sleepy brown'
p2794
sS'shake ya tailfeather'
p2795
S'nelly, p. diddy & murphy lee'
p2796
sS'damn!'
p2797
S'youngbloodz featuring lil jon'
p2798
sS'she got it'
p2799
S'2 pistols featuring t-pain & tay dizm'
p2800
sS'online'
p2801
S'brad paisley'
p2802
sS'why do you love me'
p2803
S'garbage'
p2804
sS'ego'
p2805
S'beyonce'
p2806
sS'tambourine'
p2807
S'eve'
p2808
sS"i'm real"
p2809
S'jennifer lopez featuring ja rule'
p2810
sS'i think they like me'
p2811
S'dem franchize boyz featuring jermaine dupri, da brat & bow wow'
p2812
sS'butterfly'
p2813
S'crazy town'
p2814
sS'more & more'
p2815
S'joe'
p2816
sS'pain'
p2817
S'three days grace'
p2818
sS'like we never loved at all'
p2819
S'faith hill'
p2820
sS'when i look at you'
p2821
S'miley cyrus'
p2822
sS'redemption song'
p2823
S'rihanna'
p2824
sS'hey papi'
p2825
S'jay-z featuring memphis bleek'
p2826
sS'call me'
p2827
S'tweet'
p2828
sS'dontchange'
p2829
S'musiq'
p2830
sS'then the morning comes'
p2831
S'smash mouth'
p2832
sS'beth'
p2833
S'glee cast'
p2834
sS'anna-molly'
p2835
S'incubus'
p2836
sS"don't forget to remember me"
p2837
S'carrie underwood'
p2838
sS'nolia clap'
p2839
S'juvenile, wacko & skip'
p2840
sS'forever'
p2841
S'drake featuring kanye west, lil wayne & eminem'
p2842
sS'radioactive'
p2843
S'kings of leon'
p2844
sS'put your records on'
p2845
S'corinne bailey rae'
p2846
sS'hold you down'
p2847
S'jennifer lopez featuring fat joe'
p2848
sS'drive'
p2849
S'incubus'
p2850
sS'who let the dogs out'
p2851
S'baha men'
p2852
sS'badd'
p2853
S'ying yang twins featuring mike jones & mr. collipark'
p2854
sS"in my daughter's eyes"
p2855
S'martina mcbride'
p2856
sS'lost you anyway'
p2857
S'toby keith'
p2858
sS'made you look'
p2859
S'nas'
p2860
sS'falling in love at a coffee shop'
p2861
S'landon pigg'
p2862
sS'take me away'
p2863
S'fefe dobson'
p2864
sS'another dumb blonde'
p2865
S'hoku'
p2866
sS'no such thing'
p2867
S'john mayer'
p2868
sS"who i am hates who i've been"
p2869
S'relient k'
p2870
sS'wall to wall'
p2871
S'chris brown'
p2872
sS'hold you (hold yuh)'
p2873
S'gyptian'
p2874
sS"it's gonna be me"
p2875
S"'n sync"
p2876
sS'so what the fuss'
p2877
S'stevie wonder'
p2878
sS'your man'
p2879
S'josh turner'
p2880
sS'walking away'
p2881
S'craig david'
p2882
sS'my kinda party'
p2883
S'jason aldean'
p2884
sS"beggin'"
p2885
S'madcon'
p2886
sS'things that matter'
p2887
S'rascal flatts'
p2888
sS'the way that i love you'
p2889
S'ashanti'
p2890
sS'whine up'
p2891
S'kat deluna featuring elephant man'
p2892
sS'lovebug'
p2893
S'jonas brothers'
p2894
sS'make her say'
p2895
S'kid cudi featuring kanye west & common'
p2896
sS'enchanted'
p2897
S'taylor swift'
p2898
sS'slow'
p2899
S'kylie minogue'
p2900
sS'brokenheartsville'
p2901
S'joe nichols'
p2902
sS"that's what she gets for loving me"
p2903
S'brooks & dunn'
p2904
sS'here (in your arms)'
p2905
S'hellogoodbye'
p2906
sS'the chain of love'
p2907
S'clay walker'
p2908
sS"this ain't a scene, it's an arms race"
p2909
S'fall out boy'
p2910
sS"talkin' to me"
p2911
S'amerie'
p2912
sS'outside'
p2913
S'aaron lewis of staind with fred durst'
p2914
sS'hate me'
p2915
S'blue october'
p2916
sS'tell me something bad about tulsa'
p2917
S'george strait'
p2918
sS'hot & wet'
p2919
S'112 featuring ludacris'
p2920
sS'n 2 gether now'
p2921
S'limp bizkit featuring method man'
p2922
sS'take me there'
p2923
S'rascal flatts'
p2924
sS'somewhere out there'
p2925
S'our lady peace'
p2926
sS'like glue'
p2927
S'sean paul'
p2928
sS'out last night'
p2929
S'kenny chesney'
p2930
sS'when there was me and you'
p2931
S'vanessa anne hudgens'
p2932
sS'with love'
p2933
S'hilary duff'
p2934
sS'rock star'
p2935
S'hannah montana'
p2936
sS'paint me a birmingham'
p2937
S'tracy lawrence'
p2938
sS'who dat girl'
p2939
S'flo rida featuring akon'
p2940
sS"let's get blown"
p2941
S'snoop dogg'
p2942
sS'diamonds'
p2943
S'fabolous featuring young jeezy'
p2944
sS"hustlin'"
p2945
S'rick ross'
p2946
sS'she bangs'
p2947
S'ricky martin'
p2948
sS'hanginaround'
p2949
S'counting crows'
p2950
sS'what it is'
p2951
S'violator featuring busta rhymes'
p2952
sS'shattered glass'
p2953
S'britney spears'
p2954
sS'all i do is win'
p2955
S'dj khaled featuring t-pain, ludacris, snoop dogg & rick ross'
p2956
sS'southside'
p2957
S'lloyd featuring ashanti'
p2958
sS'the ketchup song (hey hah)'
p2959
S'las ketchup'
p2960
sS'best of you'
p2961
S'foo fighters'
p2962
sS'beautiful goodbye'
p2963
S'jennifer hanson'
p2964
sS'this way'
p2965
S'dilated peoples featuring kanye west'
p2966
sS'put that woman first'
p2967
S'jaheim'
p2968
sS'get it on tonite'
p2969
S'montell jordan'
p2970
sS"what's luv?"
p2971
S'fat joe featuring ashanti'
p2972
sS'naked'
p2973
S'marques houston'
p2974
sS'reverse cowgirl'
p2975
S't-pain'
p2976
sS'outta my system'
p2977
S'bow wow featuring t-pain & johnta austin'
p2978
sS'i keep looking'
p2979
S'sara evans'
p2980
sS'playa cardz right'
p2981
S'keyshia cole featuring 2pac'
p2982
sS'last time'
p2983
S'trey songz'
p2984
sS"i'm alive"
p2985
S'kenny chesney with dave matthews'
p2986
sS'say hey (i love you)'
p2987
S'michael franti & spearhead featuring cherine anderson'
p2988
sS"you'll always be loved by me"
p2989
S'brooks & dunn'
p2990
sS'la bomba'
p2991
S'azul azul'
p2992
sS'one wing in the fire'
p2993
S'trent tomlinson'
p2994
sS'out here grindin'
p2995
S"dj khaled feat. akon, plies, young jeezy, rick ross, ace hood, trick daddy & lil' boosie"
p2996
sS'i got you'
p2997
S'craig morgan'
p2998
sS'trying to stop your leaving'
p2999
S'dierks bentley'
p3000
sS'guys like me'
p3001
S'eric church'
p3002
sS'billie jean'
p3003
S'david cook'
p3004
sS'the man i want to be'
p3005
S'chris young'
p3006
sS'breaking free'
p3007
S'zac efron, andrew seeley & vanessa anne hudgens'
p3008
sS'still frame'
p3009
S'trapt'
p3010
sS'#1'
p3011
S'nelly'
p3012
sS'fidelity'
p3013
S'regina spektor'
p3014
sS'the way i am'
p3015
S'ingrid michaelson'
p3016
sS'gotta make it'
p3017
S'trey songz featuring twista'
p3018
sS'troubadour'
p3019
S'george strait'
p3020
sS'lost one'
p3021
S'jay-z featuring chrisette michele'
p3022
sS'24/7'
p3023
S'kevon edmonds'
p3024
sS'mr. rager'
p3025
S'kid cudi'
p3026
sS"grown men don't cry"
p3027
S'tim mcgraw'
p3028
sS'like a pimp'
p3029
S"david banner featuring lil' flip"
p3030
sS'3'
S'britney spears'
p3031
sS"i'm sprung"
p3032
S't-pain'
p3033
sS'i wanna love you'
p3034
S'akon featuring snoop dogg'
p3035
sS'take you there'
p3036
S'sean kingston'
p3037
sS'the chemicals between us'
p3038
S'bush'
p3039
sS'love the way you lie'
p3040
S'eminem featuring rihanna'
p3041
sS'better than me'
p3042
S'hinder'
p3043
sS'one day at a time'
p3044
S'tupac with eminem featuring the outlawz'
p3045
sS"she wouldn't be gone"
p3046
S'blake shelton'
p3047
sS'fearless'
p3048
S'taylor swift'
p3049
sS'faded'
p3050
S'souldecision featuring thrust'
p3051
sS'love you'
p3052
S'jack ingram'
p3053
sS'i hate everything'
p3054
S'george strait'
p3055
sS'last dollar (fly away)'
p3056
S'tim mcgraw'
p3057
sS'bring it all to me'
p3058
S'blaque'
p3059
sS'one in every crowd'
p3060
S'montgomery gentry'
p3061
sS'stranded (haiti mon amour)'
p3062
S'jay-z, bono, the edge & rihanna'
p3063
sS'feel the girl'
p3064
S'ms. jade'
p3065
sS'rocketeer'
p3066
S'far*east movement featuring ryan tedder'
p3067
sS'ass like that'
p3068
S'eminem'
p3069
sS'some days you gotta dance'
p3070
S'dixie chicks'
p3071
sS"you shouldn't kiss me like this"
p3072
S'toby keith'
p3073
sS'lloro por ti'
p3074
S'enrique iglesias'
p3075
sS'a great big sled'
p3076
S'the killers featuring toni halliday'
p3077
sS'last night'
p3078
S'diddy featuring keyshia cole'
p3079
sS"i'm not okay (i promise)"
p3080
S'my chemical romance'
p3081
sS'one mic'
p3082
S'nas'
p3083
sS'i wanna rock'
p3084
S'snoop dogg'
p3085
sS"can't get you out of my head"
p3086
S'kylie minogue'
p3087
sS'beautiful monster'
p3088
S'ne-yo'
p3089
sS'riddle'
p3090
S'en vogue'
p3091
sS"waitin' on a woman"
p3092
S'brad paisley'
p3093
sS"i'm ready"
p3094
S'cherie'
p3095
sS'my neck, my back'
p3096
S'khia featuring dsd'
p3097
sS'roll with it'
p3098
S'easton corbin'
p3099
sS'i care 4 u'
p3100
S'aaliyah'
p3101
sS"i'm on a boat"
p3102
S'the lonely island featuring t-pain'
p3103
sS'move b***h'
p3104
S'ludacris featuring mystikal & infamous 2.0'
p3105
sS'last chance'
p3106
S'ginuwine'
p3107
sS'satisfaction'
p3108
S'eve'
p3109
sS'welcome to the future'
p3110
S'brad paisley'
p3111
sS'lonely no more'
p3112
S'rob thomas'
p3113
sS'wanna get to know you'
p3114
S'g-unit featuring joe'
p3115
sS'fireflies'
p3116
S'owl city'
p3117
sS'area codes'
p3118
S'ludacris featuring nate dogg'
p3119
sS'runaway'
p3120
S'kanye west featuring pusha t'
p3121
sS'you sang to me'
p3122
S'marc anthony'
p3123
sS'just friends (sunny)'
p3124
S'musiq soulchild'
p3125
sS'it was'
p3126
S'chely wright'
p3127
sS'oh santa!'
p3128
S'mariah carey'
p3129
sS'break my bank'
p3130
S'new boyz featuring iyaz'
p3131
sS'love me or hate me (f**k you!!!!)'
p3132
S'lady sovereign'
p3133
sS'breath'
p3134
S'breaking benjamin'
p3135
sS'letting go (dutty love)'
p3136
S'sean kingston featuring nicki minaj'
p3137
sS"pretty good at drinkin' beer"
p3138
S'billy currington'
p3139
sS"i'd rather"
p3140
S'luther vandross'
p3141
sS'rock the boat'
p3142
S'aaliyah'
p3143
sS"fallin' for you"
p3144
S'colbie caillat'
p3145
sS'while you loved me'
p3146
S'rascal flatts'
p3147
sS'wanted dead or alive'
p3148
S'chris daughtry'
p3149
sS'laughed until we cried'
p3150
S'jason aldean'
p3151
sS'wrong impression'
p3152
S'natalie imbruglia'
p3153
sS'left, right, left'
p3154
S'drama'
p3155
sS"we can't be friends"
p3156
S'deborah cox with r.l.'
p3157
sS'sex therapy'
p3158
S'robin thicke'
p3159
sS'fade'
p3160
S'staind'
p3161
sS'hemorrhage (in my hands)'
p3162
S'fuel'
p3163
sS'for you'
p3164
S'staind'
p3165
sS'it must be love'
p3166
S'alan jackson'
p3167
sS'tell me baby'
p3168
S'red hot chili peppers'
p3169
sS'way out here'
p3170
S'josh thompson'
p3171
sS'superstar'
p3172
S'taylor swift'
p3173
sS'so fly'
p3174
S'slim featuring yung joc'
p3175
sS'tonight i wanna be your man'
p3176
S'andy griggs'
p3177
sS'que hiciste'
p3178
S'jennifer lopez'
p3179
sS'shut up'
p3180
S'simple plan'
p3181
sS'good luck charm'
p3182
S'jagged edge'
p3183
sS'ring the alarm'
p3184
S'beyonce'
p3185
sS'stuck like glue'
p3186
S'sugarland'
p3187
sS'walk away (remember me)'
p3188
S'paula deanda featuring the dey'
p3189
sS'pinch me'
p3190
S'barenaked ladies'
p3191
sS'bad boy for life'
p3192
S'p. diddy, black rob & mark curry'
p3193
sS'that song in my head'
p3194
S'julianne hough'
p3195
sS'heard it all before'
p3196
S'sunshine anderson'
p3197
sS'ignition'
p3198
S'r. kelly'
p3199
sS"you're the only one"
p3200
S'maria mena'
p3201
sS'landslide'
p3202
S'dixie chicks'
p3203
sS'so sexy'
p3204
S'twista featuring r. kelly'
p3205
sS'spotlight'
p3206
S'gucci mane featuring usher'
p3207
sS"hey good lookin'"
p3208
S'jimmy buffett with clint black, kenny chesney, alan jackson, toby keith & george strait'
p3209
sS'get my drink on'
p3210
S'toby keith'
p3211
sS'cry baby/piece of my heart'
p3212
S'melissa etheridge & joss stone'
p3213
sS'why you wanna'
p3214
S't.i.'
p3215
sS'rain is a good thing'
p3216
S'luke bryan'
p3217
sS'obsession (no es amor)'
p3218
S'frankie j featuring baby bash'
p3219
sS'kiss a girl'
p3220
S'keith urban'
p3221
sS"throw some d's"
p3222
S'rich boy featuring polow da don'
p3223
sS'telephone'
p3224
S'glee cast'
p3225
sS'charlie last name: wilson'
p3226
S'charlie wilson'
p3227
sS'unwritten'
p3228
S'natasha bedingfield'
p3229
sS'dirty picture'
p3230
S'taio cruz featuring ke$ha'
p3231
sS'everyday'
p3232
S'zac efron/vanessa anne hudgens'
p3233
sS'jumpin , jumpin '
p3234
S'destiny s child'
p3235
sS'ride'
p3236
S'ciara featuring ludacris'
p3237
sS'digital girl'
p3238
S'jamie foxx featuring drake, kanye west & the-dream'
p3239
sS'troublemaker'
p3240
S'akon & sweet rush'
p3241
sS'ooh baby'
p3242
S'mario'
p3243
sS'f*** you'
p3244
S'lily allen'
p3245
sS"drop it like it's hot"
p3246
S'snoop dogg featuring pharrell'
p3247
sS'i do not hook up'
p3248
S'kelly clarkson'
p3249
sS'original prankster'
p3250
S'the offspring'
p3251
sS'naughty girl'
p3252
S'beyonce'
p3253
sS'my projects'
p3254
S'coo coo cal'
p3255
sS'take it off'
p3256
S'ke$ha'
p3257
sS'knock you down'
p3258
S'keri hilson featuring kanye west & ne-yo'
p3259
sS'hey ya!'
p3260
S'outkast'
p3261
sS'rollin '
p3262
S'limp bizkit'
p3263
sS'stay with me (brass bed)'
p3264
S'josh gracin'
p3265
sS'am to pm'
p3266
S'christina milian'
p3267
sS'the house that built me'
p3268
S'miranda lambert'
p3269
sS'too bad'
p3270
S'nickelback'
p3271
sS'3 peat'
p3272
S'lil wayne'
p3273
sS'tipsy'
p3274
S'j-kwon'
p3275
sS'citizen soldier'
p3276
S'3 doors down'
p3277
sS'holidae in'
p3278
S'chingy featuring ludacris & snoop dogg'
p3279
sS'jesus walks'
p3280
S'kanye west'
p3281
sS'all i want to do'
p3282
S'sugarland'
p3283
sS'deja vu'
p3284
S'3oh!3'
p3285
sS'as we lay'
p3286
S'kelly price'
p3287
sS'the light'
p3288
S'common'
p3289
sS'we need a resolution'
p3290
S'aaliyah featuring timbaland'
p3291
sS'running'
p3292
S'no doubt'
p3293
sS'the itch'
p3294
S'vitamin c'
p3295
sS'through glass'
p3296
S'stone sour'
p3297
sS'wheels'
p3298
S'foo fighters'
p3299
sS'break'
p3300
S'three days grace'
p3301
sS'back at one'
p3302
S'mark wills'
p3303
sS"that's the way it is"
p3304
S'celine dion'
p3305
sS'up on the ridge'
p3306
S'dierks bentley'
p3307
sS'only girl (in the world)'
p3308
S'rihanna'
p3309
sS'christmas lights'
p3310
S'coldplay'
p3311
sS'lucky'
p3312
S'glee cast'
p3313
sS'untitled (how can this happen to me?)'
p3314
S'simple plan'
p3315
sS'right thurr'
p3316
S'chingy'
p3317
sS"pullin' me back"
p3318
S'chingy featuring tyrese'
p3319
sS'watching airplanes'
p3320
S'gary allan'
p3321
sS'glitter in the air'
p3322
S'pink'
p3323
sS'electrical storm'
p3324
S'u2'
p3325
sS'amazed'
p3326
S'lonestar'
p3327
sS'love remains the same'
p3328
S'gavin rossdale'
p3329
sS'all the small things'
p3330
S'blink-182'
p3331
sS"this is why i'm hot"
p3332
S'mims'
p3333
sS'so much more'
p3334
S'fat joe'
p3335
sS'in my mind'
p3336
S'heather headley'
p3337
sS'do it'
p3338
S'nelly furtado'
p3339
sS'i know you see it'
p3340
S"yung joc featuring brandy 'ms. b.' hambrick"
p3341
sS'he could be the one'
p3342
S'hannah montana'
p3343
sS"wouldn't get far"
p3344
S'the game featuring kanye west'
p3345
sS"thug lovin'"
p3346
S'ja rule featuring bobby brown'
p3347
sS'fall to pieces'
p3348
S'velvet revolver'
p3349
sS'rain on me'
p3350
S'ashanti'
p3351
sS"no more (baby i'ma do right)"
p3352
S'3lw'
p3353
sS'wifey'
p3354
S'next'
p3355
sS'touch'
p3356
S'omarion'
p3357
sS'rock wit u (awww baby)'
p3358
S'ashanti'
p3359
sS'speed'
p3360
S'montgomery gentry'
p3361
sS"don't forget"
p3362
S'demi lovato'
p3363
sS"startin' with me"
p3364
S'jake owen'
p3365
sS'blow'
p3366
S'ke$ha'
p3367
sS'hot revolver'
p3368
S'lil wayne'
p3369
sS'songs about me'
p3370
S'trace adkins'
p3371
sS'everybody wants to go to heaven'
p3372
S'kenny chesney with the wailers'
p3373
sS'can t stay'
p3374
S'dave hollister'
p3375
sS'shake your pom pom'
p3376
S'missy elliott'
p3377
sS'shut up and drive'
p3378
S'rihanna'
p3379
sS'get no better'
p3380
S'cassidy featuring mashonda'
p3381
sS"ballin' out of control"
p3382
S'jermaine dupri featuring nate dogg'
p3383
sS'evacuate the dancefloor'
p3384
S'cascada'
p3385
sS'real'
p3386
S'goo goo dolls'
p3387
sS'welcome back'
p3388
S'mase'
p3389
sS"betcha can't do it like me"
p3390
S'd4l'
p3391
sS'pon de river, pon de bank'
p3392
S'elephant man'
p3393
sS"break 'em off"
p3394
S"paul wall featuring lil' keke"
p3395
sS'this gift'
p3396
S'98 degrees'
p3397
sS'good times'
p3398
S'tommy lee'
p3399
sS'miss me baby'
p3400
S'chris cagle'
p3401
sS'pop lock and drop it'
p3402
S'huey'
p3403
sS'killa'
p3404
S'cherish featuring yung joc'
p3405
sS'pop'
p3406
S"'n sync"
p3407
sS'just let me be in love'
p3408
S'tracy byrd'
p3409
sS'lady'
p3410
S'lenny kravitz'
p3411
sS'dare'
p3412
S'gorillaz featuring shaun ryder'
p3413
sS'wat da hook gon be'
p3414
S'murphy lee featuring jermaine dupri'
p3415
sS"talkin' 2 myself"
p3416
S'eminem featuring kobe'
p3417
sS'work in progress'
p3418
S'alan jackson'
p3419
sS'stranger'
p3420
S'hilary duff'
p3421
sS'over and over'
p3422
S'nelly featuring tim mcgraw'
p3423
sS'the star spangled banner'
p3424
S'whitney houston'
p3425
sS'you can get it all'
p3426
S'bow wow featuring johnta austin'
p3427
sS"cryin' for me (wayman's song)"
p3428
S'toby keith'
p3429
sS'breathe (2 am)'
p3430
S'anna nalick'
p3431
sS'if i could go!'
p3432
S"angie martinez featuring lil' mo & sacario"
p3433
sS'when i look to the sky'
p3434
S'train'
p3435
sS'standing still'
p3436
S'jewel'
p3437
sS"goin' crazy"
p3438
S'natalie'
p3439
sS"makin' good love"
p3440
S'avant'
p3441
sS"you can't always get what you want"
p3442
S'glee cast featuring lea michele, cory monteith, kevin mchale & amber riley'
p3443
sS'but for the grace of god'
p3444
S'keith urban'
p3445
sS'the riddle'
p3446
S'five for fighting'
p3447
sS"what's your fantasy"
p3448
S'ludacris featuring shawna'
p3449
sS'girl all the bad guys want'
p3450
S'bowling for soup'
p3451
sS'get buck in here'
p3452
S'dj felli fel featuring diddy, akon, ludacris & lil jon'
p3453
sS'god love her'
p3454
S'toby keith'
p3455
sS'all my life'
p3456
S'foo fighters'
p3457
sS"it's over now"
p3458
S'112'
p3459
sS'girls around the world'
p3460
S'lloyd featuring lil wayne'
p3461
sS"i don't need a man"
p3462
S'the pussycat dolls'
p3463
sS'here we go'
p3464
S'trina featuring kelly rowland'
p3465
sS'one and the same'
p3466
S'selena gomez & demi lovato'
p3467
sS'crawling in the dark'
p3468
S'hoobastank'
p3469
sS'can u believe'
p3470
S'robin thicke'
p3471
sS'i think god can explain'
p3472
S'splender'
p3473
sS'memories'
p3474
S'david guetta featuring kid cudi'
p3475
sS'follow me down'
p3476
S'3oh!3 featuring neon hitch'
p3477
sS'boondocks'
p3478
S'little big town'
p3479
sS'the lucky one'
p3480
S'faith hill'
p3481
sS'boom boom pow'
p3482
S'the black eyed peas'
p3483
sS"pickin' wildflowers"
p3484
S'keith anderson'
p3485
sS'find out who your friends are'
p3486
S'tracy lawrence'
p3487
sS'hello world'
p3488
S'lady antebellum'
p3489
sS'911'
p3490
S'wyclef jean featuring mary j. blige'
p3491
sS'all the things she said'
p3492
S't.a.t.u.'
p3493
sS"x gon' give it to ya"
p3494
S'dmx'
p3495
sS'love who you love'
p3496
S'rascal flatts'
p3497
sS'power'
p3498
S'kanye west featuring dwele'
p3499
sS'asap'
p3500
S't.i.'
p3501
sS'make it clap'
p3502
S'busta rhymes featuring spliff star'
p3503
sS'body language'
p3504
S'jesse mccartney featuring t-pain'
p3505
sS'hillbilly deluxe'
p3506
S'brooks & dunn'
p3507
sS'broken'
p3508
S'lifehouse'
p3509
sS'rock your body'
p3510
S'justin timberlake'
p3511
sS'do you believe me now'
p3512
S'jimmy wayne'
p3513
sS'if it kills me'
p3514
S'jason mraz'
p3515
sS'too many rappers'
p3516
S'beastie boys featuring nas'
p3517
sS'unwell'
p3518
S'matchbox twenty'
p3519
sS'bust your windows'
p3520
S'jazmine sullivan'
p3521
sS'no better love'
p3522
S'young gunz featuring rell'
p3523
sS'someday out of the blue'
p3524
S'elton john'
p3525
sS'where you are'
p3526
S'jessica simpson featuring nick lachey'
p3527
sS'right round'
p3528
S'flo rida'
p3529
sS'if i never see your face again'
p3530
S'maroon 5 featuring rihanna'
p3531
sS'oh'
p3532
S'ciara featuring ludacris'
p3533
sS'never ever'
p3534
S'ciara featuring young jeezy'
p3535
sS'lose yourself'
p3536
S'eminem'
p3537
sS"like you'll never see me again"
p3538
S'alicia keys'
p3539
sS'i miss you'
p3540
S'blink-182'
p3541
sS'like a g6'
p3542
S'far*east movement featuring cataracs & dev'
p3543
sS"i'm throwed"
p3544
S'paul wall featuring jermaine dupri'
p3545
sS'confessions part ii'
p3546
S'usher'
p3547
sS'party people'
p3548
S'nelly featuring fergie'
p3549
sS"it wasn't me"
p3550
S'shaggy featuring ricardo "rikrok" ducent'
p3551
sS'take a bow'
p3552
S'glee cast'
p3553
sS"u can't touch this"
p3554
S'glee cast'
p3555
sS'like a boy'
p3556
S'ciara'
p3557
sS'whoknows'
p3558
S'musiq'
p3559
sS"you can't hide beautiful"
p3560
S'aaron lines'
p3561
sS'forget you'
p3562
S'glee cast featuring gwyneth paltrow'
p3563
sS"hit 'em up style (oops!)"
p3564
S'blu cantrell'
p3565
sS'always on your side'
p3566
S'sheryl crow & sting'
p3567
sS'blessed'
p3568
S'martina mcbride'
p3569
sS'shadow of the day'
p3570
S'linkin park'
p3571
sS'i will possess your heart'
p3572
S'death cab for cutie'
p3573
sS'break it off'
p3574
S'rihanna & sean paul'
p3575
sS'the seashores of old mexico'
p3576
S'george strait'
p3577
sS'the business'
p3578
S'yung berg featuring casha'
p3579
sS'apologize'
p3580
S'kris allen'
p3581
sS'i don t wanna kiss you goodnight'
p3582
S'lfo'
p3583
sS'the whole world'
p3584
S'outkast featuring killer mike'
p3585
sS'if we were a movie'
p3586
S'hannah montana'
p3587
sS'we can t be friends'
p3588
S'deborah cox with r.l.'
p3589
sS'bubbly'
p3590
S'colbie caillat'
p3591
sS"won't back down"
p3592
S'eminem featuring pink'
p3593
sS'one more drink'
p3594
S'ludacris co-starring t-pain'
p3595
sS'put it on me'
p3596
S"ja rule featuring lil' mo & vita"
p3597
sS'sour girl'
p3598
S'stone temple pilots'
p3599
sS'the truth'
p3600
S'jason aldean'
p3601
sS'desert rose'
p3602
S'sting featuring cheb mami'
p3603
sS'hey'
p3604
S'lil jon featuring 3oh!3'
p3605
sS'call on me'
p3606
S'janet & nelly'
p3607
sS'decode'
p3608
S'paramore'
p3609
sS'hush hush'
p3610
S'the pussycat dolls featuring nicole scherzinger'
p3611
sS'somewhere only we know'
p3612
S'keane'
p3613
sS'one day'
p3614
S'matisyahu'
p3615
sS'stars'
p3616
S'switchfoot'
p3617
sS"don't make me"
p3618
S'blake shelton'
p3619
sS'freakin  it'
p3620
S'will smith'
p3621
sS"i'll take that as a yes (the hot tub song)"
p3622
S'phil vassar'
p3623
sS'the bad touch'
p3624
S'bloodhound gang'
p3625
sS'energy'
p3626
S'keri hilson'
p3627
sS'swing, swing'
p3628
S'the all-american rejects'
p3629
sS'calabria'
p3630
S'enur featuring natasja'
p3631
sS'singing in the rain / umbrella'
p3632
S'glee cast featuring gwyneth paltrow'
p3633
sS'me & u'
p3634
S'cassie'
p3635
sS'how you remind me'
p3636
S'nickelback'
p3637
sS'sooner or later'
p3638
S'michelle branch'
p3639
sS'rapture (tastes so sweet)'
p3640
S'iio'
p3641
sS'chinese democracy'
p3642
S"guns n' roses"
p3643
sS'how come'
p3644
S'd12'
p3645
sS'take me as i am'
p3646
S'mary j. blige'
p3647
sS'consider me gone'
p3648
S'reba'
p3649
sS'wrong baby wrong'
p3650
S'martina mcbride'
p3651
sS'just fine'
p3652
S'mary j. blige'
p3653
sS'soul sista'
p3654
S'bilal'
p3655
sS'woman'
p3656
S'raheem devaughn'
p3657
sS'time for miracles'
p3658
S'adam lambert'
p3659
sS"billy's got his beer goggles on"
p3660
S'neal mccoy'
p3661
sS'i wanna'
p3662
S'the all-american rejects'
p3663
sS'beverly hills'
p3664
S'weezer'
p3665
sS'boyfriend/girlfriend'
p3666
S'c-side featuring keyshia cole'
p3667
sS'anyway'
p3668
S'martina mcbride'
p3669
sS"what's it like"
p3670
S'jagged edge'
p3671
sS'wetter (calling you daddy)'
p3672
S'twista featuring erika shevon'
p3673
sS'hey, soul sister'
p3674
S'glee cast'
p3675
sS'bop to the top'
p3676
S'lucas grabeel & ashley tisdale'
p3677
sS"you'll think of me"
p3678
S'keith urban'
p3679
sS'sleazy'
p3680
S'ke$ha'
p3681
sS's.e.x.'
p3682
S'lyfe jennings'
p3683
sS'u got it bad'
p3684
S'usher'
p3685
sS'like you'
p3686
S'bow wow featuring ciara'
p3687
sS'i gotta feeling'
p3688
S'the black eyed peas'
p3689
sS'johnny cash'
p3690
S'jason aldean'
p3691
sS'so far away'
p3692
S'staind'
p3693
sS'migrate'
p3694
S'mariah carey featuring t-pain'
p3695
sS'watch the wind blow by'
p3696
S'tim mcgraw'
p3697
sS'b r right'
p3698
S'trina featuring ludacris'
p3699
sS'fistful of tears'
p3700
S'maxwell'
p3701
sS'yee haw'
p3702
S'jake owen'
p3703
sS'ms. jackson'
p3704
S'outkast'
p3705
sS'girlfriend'
p3706
S'bow wow & omarion'
p3707
sS'lifetime'
p3708
S'maxwell'
p3709
sS'pieces of me'
p3710
S'ashlee simpson'
p3711
sS'someone to call my lover'
p3712
S'janet'
p3713
sS'again'
p3714
S'faith evans'
p3715
sS'i just wanna love u (give it 2 me)'
p3716
S'jay-z'
p3717
sS'bad boy this bad boy that'
p3718
S"bad boy's da band"
p3719
sS'never scared'
p3720
S'bone crusher featuring killer mike & t.i.'
p3721
sS'american soldier'
p3722
S'toby keith'
p3723
sS'how could you'
p3724
S'mario'
p3725
sS'i changed my mind'
p3726
S'keyshia cole featuring shyne'
p3727
sS'roses'
p3728
S'outkast'
p3729
sS'fly with me'
p3730
S'jonas brothers'
p3731
sS'chicken noodle soup.'
p3732
S'webstar & young b featuring the voice of harlem'
p3733
sS"i'm a flirt"
p3734
S'r. kelly or bow wow (featuring t.i. & t-pain)'
p3735
sS'if we ever meet again'
p3736
S'timbaland featuring katy perry'
p3737
sS'little moments'
p3738
S'brad paisley'
p3739
sS'let me hold you'
p3740
S'bow wow featuring omarion'
p3741
sS'you'
p3742
S"lloyd featuring lil' wayne"
p3743
sS'bad day'
p3744
S'alvin and the chipmunks'
p3745
sS'a little less conversation'
p3746
S'elvis presley vs jxl'
p3747
sS'karma'
p3748
S'alicia keys'
p3749
sS'dem jeans'
p3750
S'chingy featuring jermaine dupri'
p3751
sS'jaded'
p3752
S'aerosmith'
p3753
sS"the party's just begun"
p3754
S'the cheetah girls'
p3755
sS'obsessed'
p3756
S'mariah carey'
p3757
sS"i'm me"
p3758
S'lil wayne'
p3759
sS'spanish guitar'
p3760
S'toni braxton'
p3761
sS'turnin me on'
p3762
S'keri hilson featuring lil wayne'
p3763
sS'video phone'
p3764
S'beyonce'
p3765
sS'back like that'
p3766
S'ghostface killah featuring ne-yo'
p3767
sS'red high heels'
p3768
S'kellie pickler'
p3769
sS'what s my name'
p3770
S'dmx'
p3771
sS'love today'
p3772
S'mika'
p3773
sS'light your a** on fire'
p3774
S'busta rhymes'
p3775
sS"can't hold us down"
p3776
S"christina aguilera featuring lil' kim"
p3777
sS'get drunk and be somebody'
p3778
S'toby keith'
p3779
sS'like a prayer'
p3780
S'glee cast featuring lea michele, jonathan groff, cory monteith, chris colfer & amber riley'
p3781
sS'notice me'
p3782
S'nb ridaz featuring angelina'
p3783
sS"can't tell me nothing"
p3784
S'kanye west'
p3785
sS'one last breath'
p3786
S'creed'
p3787
sS'real good man'
p3788
S'tim mcgraw'
p3789
sS'dey know'
p3790
S'shawty lo'
p3791
sS'my band'
p3792
S'd12'
p3793
sS"what'chu like"
p3794
S'da brat featuring tyrese'
p3795
sS'what if a woman'
p3796
S'joe'
p3797
sS"ain't back yet"
p3798
S'kenny chesney'
p3799
sS'trapped in the closet (chapter 1 of 5)'
p3800
S'r. kelly'
p3801
sS"a woman's love"
p3802
S'alan jackson'
p3803
sS'black and yellow'
p3804
S'wiz khalifa'
p3805
sS'lucky man'
p3806
S'montgomery gentry'
p3807
sS'a.d.i.d.a.s.'
p3808
S'killer mike featuring big boi'
p3809
sS'hello'
p3810
S'glee cast featuring jonathan groff & lea michele'
p3811
sS'canadian idiot'
p3812
S'weird al yankovic'
p3813
sS'little things'
p3814
S'india.arie'
p3815
sS'bet on it'
p3816
S'zac efron'
p3817
sS'calabria 2008'
p3818
S'enur featuring natasja'
p3819
sS'alright'
p3820
S'darius rucker'
p3821
sS'with you'
p3822
S'chris brown'
p3823
sS'roger that'
p3824
S'young money'
p3825
sS"a woman's worth"
p3826
S'alicia keys'
p3827
sS'suga suga'
p3828
S'baby bash featuring frankie j'
p3829
sS'concrete angel'
p3830
S'martina mcbride'
p3831
sS'the greatest romance ever sold'
p3832
S'prince'
p3833
sS'walk away'
p3834
S'kelly clarkson'
p3835
sS'feel that fire'
p3836
S'dierks bentley'
p3837
sS"let's go"
p3838
S'trick daddy featuring lil jon & twista'
p3839
sS'green light'
p3840
S'john legend featuring andre 3000'
p3841
sS'one of us'
p3842
S'glee cast'
p3843
sS'funkytown'
p3844
S'alvin and the chipmunks'
p3845
sS"i still haven't found what i'm looking for"
p3846
S'david cook'
p3847
sS'sexy love'
p3848
S'ne-yo'
p3849
sS'white horse'
p3850
S'taylor swift'
p3851
sS'the christmas song (chestnuts roasting on an open fire)'
p3852
S'christina aguilera'
p3853
sS'got money'
p3854
S'lil wayne featuring t-pain'
p3855
sS'shine on'
p3856
S'ryan cabrera'
p3857
sS"what's a guy gotta do"
p3858
S'joe nichols'
p3859
sS'run it!'
p3860
S'chris brown'
p3861
sS'so seductive'
p3862
S'tony yayo featuring 50 cent'
p3863
sS"ain't no sunshine"
p3864
S'kris allen'
p3865
sS'hey now (mean muggin)'
p3866
S'xzibit featuring keri hilson'
p3867
sS'kerosene'
p3868
S'miranda lambert'
p3869
sS'miss independent'
p3870
S'ne-yo'
p3871
sS'drops of jupiter (tell me)'
p3872
S'train'
p3873
sS'smile'
p3874
S'uncle kracker'
p3875
sS'guilty until proven innocent'
p3876
S'jay-z featuring r. kelly'
p3877
sS'shake it'
p3878
S'metro station'
p3879
sS'labios compartidos'
p3880
S'mana'
p3881
sS'again and again'
p3882
S'jewel'
p3883
sS'do you want to'
p3884
S'franz ferdinand'
p3885
sS"what u gon' do"
p3886
S'lil jon & the east side boyz featuring lil scrappy'
p3887
sS'cop that sh#!'
p3888
S'timbaland & magoo featuring missy elliott'
p3889
sS'u remind me'
p3890
S'usher'
p3891
sS'super high'
p3892
S'rick ross featuring ne-yo'
p3893
sS'i get it in'
p3894
S'omarion featuring gucci mane'
p3895
sS'cochise'
p3896
S'audioslave'
p3897
sS'diary'
p3898
S'alicia keys featuring tony! toni! tone!'
p3899
sS'fall'
p3900
S'clay walker'
p3901
sS"before it's too late (sam and mikaela's theme)"
p3902
S'goo goo dolls'
p3903
sS'lose my mind'
p3904
S'young jeezy featuring plies'
p3905
sS'what do you say'
p3906
S'reba'
p3907
sS'my love'
p3908
S'the-dream featuring mariah carey'
p3909
sS'in the end'
p3910
S'linkin park'
p3911
sS'magic stick'
p3912
S"lil' kim featuring 50 cent"
p3913
sS'left & right'
p3914
S"d'angelo featuring method man and redman"
p3915
sS'carlene'
p3916
S'phil vassar'
p3917
sS'day + night'
p3918
S'isyss featuring jadakiss'
p3919
sS'celebrity'
p3920
S'brad paisley'
p3921
sS'the prayer (live)'
p3922
S'celine dion & josh groban'
p3923
sS'what if it all goes right'
p3924
S'melissa lawson'
p3925
sS"u should've known better"
p3926
S'monica'
p3927
sS'snap yo fingers'
p3928
S'lil jon featuring e-40 & sean paul of the youngbloodz'
p3929
sS'you be killin em'
p3930
S'fabolous'
p3931
sS"lovin' all night"
p3932
S'patty loveless'
p3933
sS'what if'
p3934
S'jason derulo'
p3935
sS'big star'
p3936
S'kenny chesney'
p3937
sS'find a way'
p3938
S'dwele'
p3939
sS'be my escape'
p3940
S'relient k'
p3941
sS'entourage'
p3942
S'omarion'
p3943
sS"you don't know my name"
p3944
S'alicia keys'
p3945
sS'let s get married'
p3946
S'jagged edge'
p3947
sS'who did you think i was'
p3948
S'john mayer trio'
p3949
sS"you're like comin' home"
p3950
S'lonestar'
p3951
sS"i'll fly with you (l'amour toujours)"
p3952
S"gigi d'agostino"
p3953
sS'lying from you'
p3954
S'linkin park'
p3955
sS'not fade away'
p3956
S'sheryl crow'
p3957
sS'total eclipse of the heart'
p3958
S'glee cast featuring jonathan groff'
p3959
sS"buzzin'"
p3960
S'shwayze featuring cisco adler'
p3961
sS"cryin' like a bitch"
p3962
S'godsmack'
p3963
sS'i luv your girl'
p3964
S'the-dream'
p3965
sS'i should be...'
p3966
S'dru hill'
p3967
sS"i'll be around"
p3968
S'daryl hall  john oates'
p3969
sS'here it goes again'
p3970
S'ok go'
p3971
sS'awful, beautiful life'
p3972
S'darryl worley'
p3973
sS'6 foot 7 foot'
p3974
S'lil wayne featuring cory gunz'
p3975
sS'just like a pill'
p3976
S'pink'
p3977
sS"int'l players anthem (i choose you)"
p3978
S'ugk featuring outkast'
p3979
sS'f**k you (forget you)'
p3980
S'cee lo green'
p3981
sS'ticks'
p3982
S'brad paisley'
p3983
sS'my happy ending'
p3984
S'avril lavigne'
p3985
sS'here i am'
p3986
S'rick ross featuring nelly & avery storm'
p3987
sS'crush'
p3988
S'david archuleta'
p3989
sS'see you in my nightmares'
p3990
S'kanye west featuring lil wayne'
p3991
sS"couldn't last a moment"
p3992
S'collin raye'
p3993
sS'no love'
p3994
S'eminem featuring lil wayne'
p3995
sS'lips of an angel'
p3996
S'jack ingram'
p3997
sS'when i said i do'
p3998
S'clint black'
p3999
sS'white flag'
p4000
S'dido'
p4001
sS'arab money'
p4002
S'busta rhymes featuring ron browz'
p4003
sS'stanky legg'
p4004
S'gs boyz'
p4005
sS'best i ever had'
p4006
S'drake'
p4007
sS'i know what you want'
p4008
S'busta rhymes & mariah carey featuring the flipmode squad'
p4009
sS'welcome to atlanta'
p4010
S'jermaine dupri & ludacris'
p4011
sS'white liar'
p4012
S'miranda lambert'
p4013
sS'keep holding on'
p4014
S'glee cast'
p4015
sS'fine again'
p4016
S'seether'
p4017
sS'hey mama'
p4018
S'black eyed peas'
p4019
sS'the crow and the butterfly'
p4020
S'shinedown'
p4021
sS'twang'
p4022
S'george strait'
p4023
sS'what am i gonna do'
p4024
S'tyrese'
p4025
sS'dirrty'
p4026
S'christina aguilera featuring redman'
p4027
sS'no more drama'
p4028
S'mary j. blige'
p4029
sS'courtesy of the red, white and blue (the angry american)'
p4030
S'toby keith'
p4031
sS'another postcard (chimps)'
p4032
S'barenaked ladies'
p4033
sS'shake it off'
p4034
S'mariah carey'
p4035
sS"free fallin'"
p4036
S'john mayer'
p4037
sS'objection (tango)'
p4038
S'shakira'
p4039
sS'god bless america'
p4040
S'daniel rodriguez'
p4041
sS'deep inside'
p4042
S'mary j. blige'
p4043
sS'lay low'
p4044
S'snoop dogg featuring master p, nate dogg, butch cassidy & tha eastsidaz'
p4045
sS'pretty wings'
p4046
S'maxwell'
p4047
sS'one more time'
p4048
S'daft punk'
p4049
sS'be like that'
p4050
S'3 doors down'
p4051
sS'i never told you'
p4052
S'colbie caillat'
p4053
sS'take a message'
p4054
S'remy shand'
p4055
sS'sexy lady'
p4056
S'yung berg featuring junior'
p4057
sS'shake that monkey'
p4058
S'too short featuring lil jon & the east side boyz'
p4059
sS'soldier'
p4060
S"destiny's child featuring t.i. & lil wayne"
p4061
sS'crybaby'
p4062
S'mariah carey featuring snoop dogg'
p4063
sS'milkshake'
p4064
S'kelis'
p4065
sS'drift & die'
p4066
S'puddle of mudd'
p4067
sS'six pack summer'
p4068
S'phil vassar'
p4069
sS"don't happen twice"
p4070
S'kenny chesney'
p4071
sS'awake and alive'
p4072
S'skillet'
p4073
sS'birthday sex'
p4074
S'jeremih'
p4075
sS'sweetness'
p4076
S'jimmy eat world'
p4077
sS'honesty (write me a list)'
p4078
S'rodney atkins'
p4079
sS'die another day'
p4080
S'madonna'
p4081
sS'a few questions'
p4082
S'clay walker'
p4083
sS'the one you love'
p4084
S'paulina rubio'
p4085
sS'roc ya body "mic check 1,2"'
p4086
S'm.v.p. (most valuable playas) featuring stagga lee'
p4087
sS'bug a boo'
p4088
S'destiny s child'
p4089
sS"cupid's chokehold/breakfast in america"
p4090
S'gym class heroes featuring patrick stump'
p4091
sS'universal mind control'
p4092
S'common featuring pharrell'
p4093
sS'learn to fly'
p4094
S'foo fighters'
p4095
sS'imagine'
p4096
S'glee cast'
p4097
sS'guess?'
p4098
S'scarface featuring jay-z & beanie sigel'
p4099
sS'like red on a rose'
p4100
S'alan jackson'
p4101
sS'u know what s up'
p4102
S'donell jones'
p4103
sS'who knew'
p4104
S'pink'
p4105
sS'do you know? (the ping pong song)/dimelo'
p4106
S'enrique iglesias'
p4107
sS"i don't want to be"
p4108
S'gavin degraw'
p4109
sS"un-thinkable (i'm ready)"
p4110
S'alicia keys'
p4111
sS'with me'
p4112
S'lonestar'
p4113
sS'caught out there'
p4114
S'kelis'
p4115
sS'1901'
p4116
S'phoenix'
p4117
sS"let's stay home tonight"
p4118
S'joe'
p4119
sS'no hands'
p4120
S'waka flocka flame featuring roscoe dash & wale'
p4121
sS'save room'
p4122
S'john legend'
p4123
sS'faint'
p4124
S'linkin park'
p4125
sS'i do!!'
p4126
S'toya'
p4127
sS'i dare you'
p4128
S'shinedown'
p4129
sS'tu recuerdo'
p4130
S'ricky martin featuring la mari'
p4131
sS'2012 (it ain"t the end)'
p4132
S'jay sean featuring nicki minaj'
p4133
sS'into you'
p4134
S'fabolous featuring tamia or ashanti'
p4135
sS'daddy won t sell the farm'
p4136
S'montgomery gentry'
p4137
sS'the red'
p4138
S'chevelle'
p4139
sS'the fixer'
p4140
S'pearl jam'
p4141
sS'back when i knew it all'
p4142
S'montgomery gentry'
p4143
sS'more'
p4144
S'usher'
p4145
sS'i believe'
p4146
S'fantasia'
p4147
sS"i've got you"
p4148
S'marc anthony'
p4149
sS'the way i loved you'
p4150
S'taylor swift'
p4151
sS'southern voice'
p4152
S'tim mcgraw'
p4153
sS'gives you hell'
p4154
S'glee cast featuring lea michele'
p4155
sS'whoa!'
p4156
S'black rob'
p4157
sS'beamer, benz, or bentley'
p4158
S'lloyd banks featuring juelz santana'
p4159
sS'butterfly fly away'
p4160
S'miley cyrus & billy ray cyrus'
p4161
sS'stutter'
p4162
S'maroon 5'
p4163
sS'sugar (gimme some)'
p4164
S"trick daddy featuring ludacris, lil' kim & cee-lo"
p4165
sS'no me dejes de querer'
p4166
S'gloria estefan'
p4167
sS"po' folks"
p4168
S'nappy roots featuring anthony hamilton'
p4169
sS'landed'
p4170
S'ben folds'
p4171
sS'impossible'
p4172
S'shontelle'
p4173
sS'pimp juice'
p4174
S'nelly'
p4175
sS"it's goin' down"
p4176
S'yung joc'
p4177
sS'she was'
p4178
S'mark chesnutt'
p4179
sS'perfect situation'
p4180
S'weezer'
p4181
sS'kiss me thru the phone'
p4182
S"soulja boy tell 'em featuring sammie"
p4183
sS'diamond in the back'
p4184
S'ludacris'
p4185
sS'rhythm of love'
p4186
S"plain white t's"
p4187
sS'bump, bump, bump'
p4188
S'b2k & p. diddy'
p4189
sS'pants on the ground'
p4190
S'general larry platt'
p4191
sS"i don't want you to go"
p4192
S'carolyn dawn johnson'
p4193
sS'supernatural superserious'
p4194
S'r.e.m.'
p4195
sS'chickenhead'
p4196
S'project pat'
p4197
sS'bring em out'
p4198
S't.i.'
p4199
sS"i'd rather be with you"
p4200
S'joshua radin'
p4201
sS'american ride'
p4202
S'toby keith'
p4203
sS"feelin' on yo booty"
p4204
S'r. kelly'
p4205
sS'beautiful'
p4206
S'glee cast'
p4207
sS'ocean avenue'
p4208
S'yellowcard'
p4209
sS'knuck if you buck'
p4210
S'crime mob featuring lil scrappy'
p4211
sS'letter to me'
p4212
S'brad paisley'
p4213
sS'o...saya'
p4214
S'm.i.a. & a r rahman'
p4215
sS'straight up'
p4216
S'chante moore'
p4217
sS"i'm a king"
p4218
S'p$c featuring t.i. & lil scrappy'
p4219
sS'show me what you got'
p4220
S'jay-z'
p4221
sS'see you again'
p4222
S'miley cyrus'
p4223
sS'sugarhigh'
p4224
S'jade anderson'
p4225
sS'same script, different cast'
p4226
S'whitney houston'
p4227
sS'i luv it'
p4228
S'young jeezy'
p4229
sS'mambo no. 5 (a little bit of...)'
p4230
S'lou bega'
p4231
sS"nothin' to lose"
p4232
S'josh gracin'
p4233
sS"can't stop, won't stop"
p4234
S'young gunz'
p4235
sS'feels like tonight'
p4236
S'daughtry'
p4237
sS"u don't know me"
p4238
S't.i.'
p4239
sS'whatcha say'
p4240
S'jason derulo'
p4241
sS'what i really meant to say'
p4242
S'cyndi thomson'
p4243
sS'thugs get lonely too'
p4244
S'2pac featuring nate dogg'
p4245
sS'maps'
p4246
S'yeah yeah yeahs'
p4247
sS'the voice within'
p4248
S'christina aguilera'
p4249
sS'tell me something good'
p4250
S'glee cast'
p4251
sS'billionaire'
p4252
S'travie mccoy featuring bruno mars'
p4253
sS'mr. brightside'
p4254
S'the killers'
p4255
sS'make it rain'
p4256
S'fat joe featuring lil wayne'
p4257
sS'headstrong'
p4258
S'trapt'
p4259
sS'family portrait'
p4260
S'pink'
p4261
sS'piggy bank'
p4262
S'50 cent'
p4263
sS'runaway love'
p4264
S'ludacris featuring mary j. blige'
p4265
sS'up all night'
p4266
S'drake featuring nicki minaj'
p4267
sS"'til summer comes around"
p4268
S'keith urban'
p4269
sS'the real slim shady'
p4270
S'eminem'
p4271
sS'tattoo'
p4272
S'jordin sparks'
p4273
sS'never leave you - uh oooh, uh oooh!'
p4274
S'lumidee'
p4275
sS"you can't take the honky tonk out of the girl"
p4276
S'brooks & dunn'
p4277
sS'help somebody'
p4278
S'van zant'
p4279
sS'save a horse (ride a cowboy)'
p4280
S'big & rich'
p4281
sS'numb'
p4282
S'linkin park'
p4283
sS'life in a northern town'
p4284
S'sugarland featuring little big town & jake owen'
p4285
sS'hate it or love it'
p4286
S'the game featuring 50 cent'
p4287
sS"he can't love u"
p4288
S'jagged edge'
p4289
sS'original fire'
p4290
S'audioslave'
p4291
sS'honky tonk u'
p4292
S'toby keith'
p4293
sS'crowded'
p4294
S'jeannie ortega featuring papoose'
p4295
sS'freak the freak out'
p4296
S'victorious cast featuring victoria justice'
p4297
sS'true friend'
p4298
S'hannah montana'
p4299
sS'deuces'
p4300
S'chris brown featuring tyga & kevin mccall'
p4301
sS'holla at me'
p4302
S'dj khaled featuring lil wayne, paul wall, fat joe, rick ross & pitbull'
p4303
sS'when somebody loves you'
p4304
S'alan jackson'
p4305
sS'famous in a small town'
p4306
S'miranda lambert'
p4307
sS'cowboy casanova'
p4308
S'carrie underwood'
p4309
sS'help me understand'
p4310
S'trace adkins'
p4311
sS'porn star dancing'
p4312
S'my darkest days featuring zakk wylde'
p4313
sS"let's get crazy"
p4314
S'hannah montana'
p4315
sS'handlebars'
p4316
S'flobots'
p4317
sS"don't"
p4318
S'billy currington'
p4319
sS'september'
p4320
S'daughtry'
p4321
sS'brotha'
p4322
S'angie stone'
p4323
sS'wings of a butterfly'
p4324
S'him'
p4325
sS'bleeding love'
p4326
S'leona lewis'
p4327
sS'radar'
p4328
S'britney spears'
p4329
sS'every time i hear your name'
p4330
S'keith anderson'
p4331
sS'love sex magic'
p4332
S'ciara featuring justin timberlake'
p4333
sS'still d.r.e.'
p4334
S'dr. dre featuring snoop dogg'
p4335
sS'dip it low'
p4336
S'christina milian'
p4337
sS'signs'
p4338
S'snoop dogg featuring charlie wilson & justin timberlake'
p4339
sS'broadway'
p4340
S'goo goo dolls'
p4341
sS'hot boyz'
p4342
S'missy "misdemeanor" elliott featuring nas, eve'
p4343
sS'trouble'
p4344
S'pink'
p4345
sS'this christmas'
p4346
S'chris brown'
p4347
sS'find your love'
p4348
S'drake'
p4349
sS'if you only knew'
p4350
S'shinedown'
p4351
sS"why don't you & i"
p4352
S'santana featuring alex band or chad kroeger'
p4353
sS'a little gasoline'
p4354
S'terri clark'
p4355
sS'i need a hot girl'
p4356
S'hot boys'
p4357
sS'crazy beautiful life'
p4358
S'ke$ha'
p4359
sS'do it again (put ya hands up)'
p4360
S'jay-z featuring beanie sigel'
p4361
sS'u already know'
p4362
S'112 featuring foxy brown'
p4363
sS'ride wit u'
p4364
S'joe featuring g-unit'
p4365
sS'mistletoe'
p4366
S'colbie caillat'
p4367
sS'ryde or die, chick'
p4368
S'the lox featuring timbaland and eve'
p4369
sS'love is gone'
p4370
S'david guetta & chris willis'
p4371
sS'start all over'
p4372
S'miley cyrus'
p4373
sS'what it feels like for a girl'
p4374
S'madonna'
p4375
sS'shawty get loose'
p4376
S'lil mama featuring chris brown & t-pain'
p4377
sS'never too far/hero medley'
p4378
S'mariah carey'
p4379
sS'sorry 2004'
p4380
S'ruben studdard'
p4381
sS"if i can't"
p4382
S'50 cent'
p4383
sS'the way you move'
p4384
S'outkast featuring sleepy brown'
p4385
sS'somebody'
p4386
S'reba mcentire'
p4387
sS'forever & always'
p4388
S'taylor swift'
p4389
sS'bojangles'
p4390
S'pitbull'
p4391
sS"i'm already there"
p4392
S'lonestar'
p4393
sS'no me doy por vencido'
p4394
S'luis fonsi'
p4395
sS'cold wind blows'
p4396
S'eminem'
p4397
sS'shattered (turn the car around)'
p4398
S'o.a.r.'
p4399
sS'speechless'
p4400
S'lady gaga'
p4401
sS"heard 'em say"
p4402
S'kanye west featuring adam levine'
p4403
sS'thank you for loving me'
p4404
S'bon jovi'
p4405
sS'behind these hazel eyes'
p4406
S'kelly clarkson'
p4407
sS'fancy'
p4408
S'drake featuring t.i. & swizz beatz'
p4409
sS'still in my heart'
p4410
S'tracie spencer'
p4411
sS'poker face'
p4412
S'glee cast'
p4413
sS'what i did for love'
p4414
S'glee cast'
p4415
sS'way of life'
p4416
S'lil wayne'
p4417
sS'bigger'
p4418
S'justin bieber'
p4419
sS'desperately'
p4420
S'george strait'
p4421
sS'holiday'
p4422
S'green day'
p4423
sS'everytime'
p4424
S'britney spears'
p4425
sS'always'
p4426
S'saliva'
p4427
sS'send it on'
p4428
S"disney's friends for change"
p4429
sS"the chipmunk song (christmas don't be late) (2007)"
p4430
S'alvin and the chipmunks'
p4431
sS'the call'
p4432
S'backstreet boys'
p4433
sS'whats happnin!'
p4434
S'ying yang twins featuring trick daddy'
p4435
sS'the climb'
p4436
S'miley cyrus'
p4437
sS'freek-a-leek'
p4438
S'petey pablo'
p4439
sS'kindly unspoken'
p4440
S'kate voegele'
p4441
sS'you belong with me'
p4442
S'taylor swift'
p4443
sS'never gonna be alone'
p4444
S'nickelback'
p4445
sS'everything you want'
p4446
S'vertical horizon'
p4447
sS'holler back'
p4448
S'the lost trailers'
p4449
sS'dig'
p4450
S'incubus'
p4451
sS'coming home'
p4452
S'diddy - dirty money featuring skylar grey'
p4453
sS'step in the name of love'
p4454
S'r. kelly'
p4455
sS'bad girlfriend'
p4456
S'theory of a deadman'
p4457
sS'ooohhhwee'
p4458
S'master p featuring weebie'
p4459
sS'only prettier'
p4460
S'miranda lambert'
p4461
sS'hard'
p4462
S'rihanna featuring jeezy'
p4463
sS'how to deal'
p4464
S'frankie j'
p4465
sS'second chance'
p4466
S'shinedown'
p4467
sS'party for two'
p4468
S'shania twain with billy currington or mark mcgrath'
p4469
sS'greatest time of year'
p4470
S'aly & aj'
p4471
sS'falsetto'
p4472
S'the-dream'
p4473
sS'gangsta luv'
p4474
S'snoop dogg featuring the-dream'
p4475
sS'deck the halls'
p4476
S'shedaisy'
p4477
sS'hey luv (anything)'
p4478
S'mobb deep featuring 112'
p4479
sS"it's my life / confessions part ii"
p4480
S'glee cast'
p4481
sS'starstrukk'
p4482
S'3oh!3 featuring katy perry'
p4483
sS'what a catch, donnie'
p4484
S'fall out boy'
p4485
sS'young forever'
p4486
S'jay-z + mr. hudson'
p4487
sS'god bless the usa'
p4488
S'lee greenwood'
p4489
sS'vertigo'
p4490
S'u2'
p4491
sS'crash here tonight'
p4492
S'toby keith'
p4493
sS'alcohol'
p4494
S'brad paisley'
p4495
sS'got it all'
p4496
S'eve'
p4497
sS'in da club'
p4498
S'50 cent'
p4499
sS'feel it'
p4500
S'three 6 mafia vs. tiesto with sean kingston & flo rida'
p4501
sS'in love wit chu'
p4502
S'da brat featuring cherish'
p4503
sS'ta da'
p4504
S'lil  mo'
p4505
sS'wake up call'
p4506
S'maroon 5'
p4507
sS"damned if i do ya (damned if i don't)"
p4508
S'all time low'
p4509
sS'every river'
p4510
S'brooks & dunn'
p4511
sS'catch me'
p4512
S'demi lovato'
p4513
sS'paradise'
p4514
S'll cool j featuring amerie'
p4515
sS'cyclone'
p4516
S'baby bash featuring t-pain'
p4517
sS'falling slowly'
p4518
S'lee dewyze & crystal bowersox'
p4519
sS'who says'
p4520
S'john mayer'
p4521
sS'starry eyed surprise'
p4522
S'oakenfold featuring shifty shellshock'
p4523
sS'what a girl wants'
p4524
S'christina aguilera'
p4525
sS'chasing cars'
p4526
S'snow patrol'
p4527
sS'come home'
p4528
S'onerepublic with sara bareilles'
p4529
sS'far away'
p4530
S'nickelback'
p4531
sS'just want you to know'
p4532
S'backstreet boys'
p4533
sS'forgive'
p4534
S'rebecca lynn howard'
p4535
sS'hell of a life'
p4536
S't.i.'
p4537
sS'i miss my friend'
p4538
S'darryl worley'
p4539
sS'la la la'
p4540
S'auburn featuring iyaz'
p4541
sS'you and me'
p4542
S'dave matthews band'
p4543
sS"doesn't really matter"
p4544
S'janet'
p4545
sS'the story of us'
p4546
S'taylor swift'
p4547
sS'born to fly'
p4548
S'sara evans'
p4549
sS'she thinks she needs me'
p4550
S'andy griggs'
p4551
sS'money in the bank'
p4552
S'swizz beatz'
p4553
sS"she's like the wind"
p4554
S'lumidee featuring tony sunshine'
p4555
sS'tonight i wanna cry'
p4556
S'keith urban'
p4557
sS'hollaback girl'
p4558
S'gwen stefani'
p4559
sS'so cold'
p4560
S'breaking benjamin'
p4561
sS'there it is'
p4562
S'ginuwine'
p4563
sS'how do i breathe'
p4564
S'mario'
p4565
sS'citizen/soldier'
p4566
S'3 doors down'
p4567
sS'up to the mountain'
p4568
S'crystal bowersox'
p4569
sS'a moment like this'
p4570
S'kelly clarkson'
p4571
sS'up out my face'
p4572
S'mariah carey featuring nicki minaj'
p4573
sS'bulletproof'
p4574
S'la roux'
p4575
sS'just a dream'
p4576
S'nelly'
p4577
sS'get low'
p4578
S'lil jon & the east side boyz featuring ying yang twins'
p4579
sS'step daddy'
p4580
S'hitman sammy sam'
p4581
sS'not meant to be'
p4582
S'theory of a deadman'
p4583
sS'cyanide'
p4584
S'metallica'
p4585
sS'joey'
p4586
S'sugarland'
p4587
sS'fallen'
p4588
S'sarah mclachlan'
p4589
sS'pretty vegas'
p4590
S'inxs'
p4591
sS"don't take your love away"
p4592
S'avant'
p4593
sS'pocketful of sunshine'
p4594
S'natasha bedingfield'
p4595
sS'i think i m in love with you'
p4596
S'jessica simpson'
p4597
sS'mississippi girl'
p4598
S'faith hill'
p4599
sS'last of a dying breed'
p4600
S'ludacris co-starring lil wayne'
p4601
sS"blowin' me up (with her love)"
p4602
S'jc chasez'
p4603
sS"it's a new day"
p4604
S'will.i.am'
p4605
sS'three wooden crosses'
p4606
S'randy travis'
p4607
sS'give it to me'
p4608
S'timbaland featuring nelly furtado & justin timberlake'
p4609
sS"i don't care"
p4610
S'apocalyptica featuring adam gontier'
p4611
sS"you'll always find your way back home"
p4612
S'hannah montana'
p4613
sS'first dance'
p4614
S'justin bieber featuring usher'
p4615
sS'neighbors know my name'
p4616
S'trey songz'
p4617
sS'the diary of jane'
p4618
S'breaking benjamin'
p4619
sS'na na na (na na na na na na na na na)'
p4620
S'my chemical romance'
p4621
sS'where the blacktop ends'
p4622
S'keith urban'
p4623
sS'love like winter'
p4624
S'afi'
p4625
sS'breathless'
p4626
S'taylor swift'
p4627
sS'from where you are'
p4628
S'lifehouse'
p4629
sS'temperature'
p4630
S'sean paul'
p4631
sS"can't stop loving you"
p4632
S'phil collins'
p4633
sS'senorita'
p4634
S'justin timberlake'
p4635
sS'trade it all'
p4636
S'fabolous featuring p. diddy & jagged edge'
p4637
sS'over you'
p4638
S'daughtry'
p4639
sS'oochie wally'
p4640
S'qb finest featuring nas and bravehearts'
p4641
sS'storm'
p4642
S'lenny kravitz featuring jay-z'
p4643
sS'living in fast forward'
p4644
S'kenny chesney'
p4645
sS'our kind of love'
p4646
S'lady antebellum'
p4647
sS'he said she said'
p4648
S'ashley tisdale'
p4649
sS'figured you out'
p4650
S'nickelback'
p4651
sS'control myself'
p4652
S'll cool j featuring jennifer lopez'
p4653
sS'time warp'
p4654
S'glee cast'
p4655
sS'break up'
p4656
S'mario featuring gucci mane & sean garrett'
p4657
sS'youth of the nation'
p4658
S'p.o.d.'
p4659
sS"how am i doin'"
p4660
S'dierks bentley'
p4661
sS'party in the u.s.a.'
p4662
S'miley cyrus'
p4663
sS'the time (dirty bit)'
p4664
S'the black eyed peas'
p4665
sS'love all over me'
p4666
S'monica'
p4667
sS"it's a great day to be alive"
p4668
S'travis tritt'
p4669
sS'hotel'
p4670
S'cassidy featuring r. kelly'
p4671
sS'to sir with love'
p4672
S'glee cast'
p4673
sS'when the sun goes down'
p4674
S'kenny chesney & uncle kracker'
p4675
sS'no letting go'
p4676
S'wayne wonder'
p4677
sS'if i had eyes'
p4678
S'jack johnson'
p4679
sS'believe'
p4680
S'staind'
p4681
sS'lost in this moment'
p4682
S'big & rich'
p4683
sS'freaky gurl'
p4684
S'gucci mane'
p4685
sS'valerie'
p4686
S'glee cast'
p4687
sS'she got her own'
p4688
S'ne-yo featuring jamie foxx & fabolous'
p4689
sS'walking in memphis'
p4690
S'lonestar'
p4691
sS"playa's only"
p4692
S'r. kelly featuring the game'
p4693
sS'over the rainbow'
p4694
S'glee cast'
p4695
sS'waka waka (this time for africa)'
p4696
S'shakira featuring freshlyground'
p4697
sS'eleanor rigby'
p4698
S'david cook'
p4699
sS'music box'
p4700
S'eminem'
p4701
sS'outrageous'
p4702
S'britney spears'
p4703
sS'cannibal'
p4704
S'ke$ha'
p4705
sS'f**k you!'
p4706
S'cee lo green'
p4707
sS'the widow'
p4708
S'the mars volta'
p4709
sS'video'
p4710
S'india.arie'
p4711
sS'cha-cha slide'
p4712
S'mr. c the slide man'
p4713
sS'all i want is you'
p4714
S'miguel featuring j. cole'
p4715
sS'breakeven'
p4716
S'the script'
p4717
sS'i wanna do it all'
p4718
S'terri clark'
p4719
sS'the great escape'
p4720
S'boys like girls'
p4721
sS'give me the light'
p4722
S'sean paul'
p4723
sS'right thru me'
p4724
S'nicki minaj'
p4725
sS'like a virgin'
p4726
S'glee cast feat. matthew morrison, jayma mayes, naya rivera, cory monteith & lea michele'
p4727
sS'bb good'
p4728
S'jonas brothers'
p4729
sS'dirt off your shoulder'
p4730
S'jay-z'
p4731
sS'little miss'
p4732
S'sugarland'
p4733
sS"nothin'"
p4734
S'n.o.r.e.'
p4735
sS'do i make you proud'
p4736
S'taylor hicks'
p4737
sS'vulnerable'
p4738
S'secondhand serenade'
p4739
sS'what them girls like'
p4740
S'ludacris co-starring chris brown & sean garrett'
p4741
sS"let's go (2004)"
p4742
S'trick daddy'
p4743
sS'give you what you want (fa sure)'
p4744
S'chico debarge'
p4745
sS'full moon'
p4746
S'brandy'
p4747
sS"pumpin' up the party"
p4748
S'hannah montana'
p4749
sS'you found me'
p4750
S'the fray'
p4751
sS'go getta'
p4752
S'young jeezy featuring r. kelly'
p4753
sS'let me in'
p4754
S'young buck'
p4755
sS"i'm single"
p4756
S'lil wayne'
p4757
sS'4 in the morning'
p4758
S'gwen stefani'
p4759
sS'last resort'
p4760
S'papa roach'
p4761
sS"should've said no"
p4762
S'taylor swift'
p4763
sS'goin crazy'
p4764
S'natalie'
p4765
sS'play'
p4766
S'david banner'
p4767
sS'country boy'
p4768
S'alan jackson'
p4769
sS'go on'
p4770
S'george strait'
p4771
sS'for your entertainment'
p4772
S'adam lambert'
p4773
sS"cupid's chokehold"
p4774
S'gym class heroes featuring patrick stump'
p4775
sS'only you can love me this way'
p4776
S'keith urban'
p4777
sS'promiscuous'
p4778
S'nelly furtado featuring timbaland'
p4779
sS'through the fire and flames'
p4780
S'dragonforce'
p4781
sS'react'
p4782
S'erick sermon featuring redman'
p4783
sS"swag surfin'"
p4784
S'f.l.y. (fast life yungstaz)'
p4785
sS"white tee's"
p4786
S'dem franchize boyz'
p4787
sS'what you know'
p4788
S't.i.'
p4789
sS'soak up the sun'
p4790
S'sheryl crow'
p4791
sS'dance with my father'
p4792
S'luther vandross'
p4793
sS'love me'
p4794
S'justin bieber'
p4795
sS'smoke a little smoke'
p4796
S'eric church'
p4797
sS'good morning'
p4798
S'chamillionaire'
p4799
sS'dancin '
p4800
S'guy'
p4801
sS'set the fire to the third bar'
p4802
S'snow patrol featuring martha wainwright'
p4803
sS'lights and sounds'
p4804
S'yellowcard'
p4805
sS'from the bottom of my broken heart'
p4806
S'britney spears'
p4807
sS"dancin'"
p4808
S'guy'
p4809
sS'hell breaks loose'
p4810
S'eminem featuring dr. dre'
p4811
sS'bohemian rhapsody'
p4812
S'glee cast featuring jonathan groff'
p4813
sS'i got it from my mama'
p4814
S'will.i.am'
p4815
sS'got to get it'
p4816
S'sisqo featuring make it hot'
p4817
sS"somebody's hero"
p4818
S"jamie o'neal"
p4819
sS'breaking the habit'
p4820
S'linkin park'
p4821
sS'hello tomorrow'
p4822
S'squeak e. clean featuring karen o.'
p4823
sS'give a little bit'
p4824
S'goo goo dolls'
p4825
sS'all the right moves'
p4826
S'onerepublic'
p4827
sS'leave the pieces'
p4828
S'the wreckers'
p4829
sS"time's up!"
p4830
S'jadakiss featuring nate dogg'
p4831
sS'yeah!'
p4832
S'usher featuring lil jon & ludacris'
p4833
sS'shake that'
p4834
S'eminem featuring nate dogg'
p4835
sS'like i love you'
p4836
S'justin timberlake'
p4837
sS"when you're mad"
p4838
S'ne-yo'
p4839
sS"don't tell me"
p4840
S'avril lavigne'
p4841
sS"don't wanna try"
p4842
S'frankie j'
p4843
sS"i'm so paid"
p4844
S'akon featuring lil wayne & young jeezy'
p4845
sS'kernkraft 400'
p4846
S'zombie nation'
p4847
sS'girlfight'
p4848
S'brooke valentine featuring lil jon & big boi'
p4849
sS'not afraid'
p4850
S'eminem'
p4851
sS'a long walk'
p4852
S'jill scott'
p4853
sS'8th world wonder'
p4854
S'kimberley locke'
p4855
sS'get up'
p4856
S'50 cent'
p4857
sS'la la'
p4858
S'ashlee simpson'
p4859
sS'paranoid'
p4860
S'jonas brothers'
p4861
sS'only time'
p4862
S'enya'
p4863
sS'the pick of destiny'
p4864
S'tenacious d'
p4865
sS'dani california'
p4866
S'red hot chili peppers'
p4867
sS'still fly'
p4868
S'big tymers'
p4869
sS"call me when you're sober"
p4870
S'evanescence'
p4871
sS'ride for you'
p4872
S'danity kane'
p4873
sS'kryptonite'
p4874
S'3 doors down'
p4875
sS'moments'
p4876
S'emerson drive'
p4877
sS'mr. mom'
p4878
S'lonestar'
p4879
sS"game's pain"
p4880
S'the game featuring keyshia cole'
p4881
sS'crazy in love'
p4882
S'beyonce featuring jay-z'
p4883
sS'circle'
p4884
S'marques houston'
p4885
sS"you're a jerk"
p4886
S'new boyz'
p4887
sS'purple hills'
p4888
S'd12'
p4889
sS'baby girl'
p4890
S'sugarland'
p4891
sS'remember the name'
p4892
S'fort minor featuring styles of beyond'
p4893
sS"don't think i can't love you"
p4894
S'jake owen'
p4895
sS'where my girls at?'
p4896
S'702'
p4897
sS'sorry, blame it on me'
p4898
S'akon'
p4899
sS'rainy dayz'
p4900
S'mary j. blige featuring ja rule'
p4901
sS'put your hand in mine'
p4902
S'tracy byrd'
p4903
sS'sweet thing'
p4904
S'keith urban'
p4905
sS"don't dream it's over"
p4906
S'sixpence none the richer'
p4907
sS'remedy'
p4908
S'seether'
p4909
sS'can t fight the moonlight'
p4910
S'leann rimes'
p4911
sS'tarantula'
p4912
S'the smashing pumpkins'
p4913
sS'the woman with you'
p4914
S'kenny chesney'
p4915
sS'no one'
p4916
S'alicia keys'
p4917
sS'baby one more time'
p4918
S'glee cast'
p4919
sS'i like the way she do it'
p4920
S'g unit'
p4921
sS"soldier's heart"
p4922
S'r. kelly'
p4923
sS'come clean'
p4924
S'hilary duff'
p4925
sS'take me out'
p4926
S'franz ferdinand'
p4927
sS'go d.j.'
p4928
S'lil wayne'
p4929
sS'be good to me'
p4930
S'ashley tisdale'
p4931
sS'come to me'
p4932
S'diddy featuring nicole scherzinger'
p4933
sS'contagious'
p4934
S'the isley brothers featuring ronald isley aka mr. biggs'
p4935
sS'if you were mine'
p4936
S'marcos hernandez'
p4937
sS'cry'
p4938
S'faith hill'
p4939
sS'why i love you'
p4940
S'b2k'
p4941
sS'girls lie too'
p4942
S'terri clark'
p4943
sS"don't stand so close to me / young girl"
p4944
S'glee cast'
p4945
sS'sex on fire'
p4946
S'kings of leon'
p4947
sS'gonna get this'
p4948
S'hannah montana featuring iyaz'
p4949
sS'caramel'
p4950
S'city high featuring eve'
p4951
sS'no matter what'
p4952
S't.i.'
p4953
sS'x'
S'xzibit'
p4954
sS'river'
p4955
S'sarah mclachlan'
p4956
sS'just the way you are'
p4957
S'bruno mars'
p4958
sS'she loves me not'
p4959
S'papa roach'
p4960
sS'insane'
p4961
S'eminem'
p4962
sS'signal fire'
p4963
S'snow patrol'
p4964
sS'got it twisted'
p4965
S'mobb deep'
p4966
sS'soulja girl'
p4967
S"soulja boy tell'em featuring i-15"
p4968
sS'two is better than one'
p4969
S'boys like girls featuring taylor swift'
p4970
sS'baby don t cry (keep ya head up ii)'
p4971
S'2pac + outlawz'
p4972
sS'just dance'
p4973
S"lady gaga featuring colby o'donis"
p4974
sS"as she's walking away"
p4975
S'zac brown band featuring alan jackson'
p4976
sS'hicktown'
p4977
S'jason aldean'
p4978
sS'fire flame'
p4979
S'birdman featuring lil wayne'
p4980
sS'baby mama'
p4981
S'fantasia'
p4982
sS"livin' our love song"
p4983
S'jason michael carroll'
p4984
sS'californication'
p4985
S'red hot chili peppers'
p4986
sS'grind with me'
p4987
S'pretty ricky'
p4988
sS'tell me when to go'
p4989
S'e-40 featuring keak da sneak'
p4990
sS'take you out'
p4991
S'luther vandross'
p4992
sS'move that body'
p4993
S'nelly featuring t-pain & akon'
p4994
sS"nothin 'bout love makes sense"
p4995
S'leann rimes'
p4996
sS'u and dat'
p4997
S'e-40 featuring t-pain & kandi girl'
p4998
sS'million dollar bill'
p4999
S'whitney houston'
p5000
sS'all the above'
p5001
S'maino featuring t-pain'
p5002
sS'how do you sleep?'
p5003
S'jesse mccartney featuring ludacris'
p5004
sS'the boss'
p5005
S'rick ross featuring t-pain'
p5006
sS'whoa now'
p5007
S'b rich'
p5008
sS'soulmate'
p5009
S'natasha bedingfield'
p5010
sS'dog days are over'
p5011
S'florence + the machine'
p5012
sS'is that your chick'
p5013
S'memphis bleek featuring jay-z & missy elliott'
p5014
sS'solo'
p5015
S'iyaz'
p5016
sS'i made it (cash money heroes)'
p5017
S'kevin rudolf featuring birdman, jay sean, & lil wayne'
p5018
sS'how to save a life'
p5019
S'the fray'
p5020
sS'gal yuh ah lead'
p5021
S't.o.k.'
p5022
sS'where are you going'
p5023
S'dave matthews band'
p5024
sS'girl next door'
p5025
S'saving jane'
p5026
sS'4 ever'
p5027
S"lil' mo featuring fabolous"
p5028
sS'last train home'
p5029
S'lostprophets'
p5030
sS'viva la vida'
p5031
S'coldplay'
p5032
sS'untouched'
p5033
S'the veronicas'
p5034
sS'i wish you were here'
p5035
S'incubus'
p5036
sS'invisible'
p5037
S'ashlee simpson'
p5038
sS'auld lang syne'
p5039
S'kenny g'
p5040
sS'breathe (2 a.m.)'
p5041
S'anna nalick'
p5042
sS"don't say no, just say yes"
p5043
S'avant'
p5044
sS'rolling in the deep'
p5045
S'adele'
p5046
sS'secrets'
p5047
S'onerepublic'
p5048
sS'loving you no more'
p5049
S'diddy - dirty money featuring drake'
p5050
sS'american star'
p5051
S'lil wayne featuring shanell aka snl'
p5052
sS"this woman's work"
p5053
S'maxwell'
p5054
sS'bring it on home'
p5055
S'little big town'
p5056
sS'he didn t have to be'
p5057
S'brad paisley'
p5058
sS'beautiful love'
p5059
S'the afters'
p5060
sS'look after you'
p5061
S'the fray'
p5062
sS'make some noise'
p5063
S'hannah montana'
p5064
sS'waking up in vegas'
p5065
S'katy perry'
p5066
sS'rise above this'
p5067
S'seether'
p5068
sS'sing for the moment'
p5069
S'eminem'
p5070
sS'king of the dancehall'
p5071
S'beenie man'
p5072
sS'that s the way it is'
p5073
S'celine dion'
p5074
sS'pour me'
p5075
S'trick pony'
p5076
sS'next to you'
p5077
S'mike jones'
p5078
sS'whatever'
p5079
S'ideal featuring lil  mo'
p5080
sS'you all dat'
p5081
S'baha men with imani coppola'
p5082
sS'gypsy'
p5083
S'shakira'
p5084
sS"bartender song (aka sittin' at a bar)"
p5085
S'rehab'
p5086
sS'building bridges'
p5087
S'brooks & dunn with sheryl crow & vince gill'
p5088
sS'fergalicious'
p5089
S'fergie'
p5090
sS'1, 2 step'
p5091
S'ciara featuring missy elliott'
p5092
sS'american saturday night'
p5093
S'brad paisley'
p5094
sS'a broken wing'
p5095
S'jordin sparks'
p5096
sS'best i ever had (grey sky morning)'
p5097
S'vertical horizon'
p5098
sS'long time gone'
p5099
S'dixie chicks'
p5100
sS'faithfully'
p5101
S'glee cast'
p5102
sS'cookie jar'
p5103
S'gym class heroes featuring the-dream'
p5104
sS'long road to ruin'
p5105
S'foo fighters'
p5106
sS'choppa style'
p5107
S'choppa featuring master p'
p5108
sS'sexual (li da di)'
p5109
S'amber'
p5110
sS'used to love u'
p5111
S'john legend'
p5112
sS"oh yes (aka 'postman')"
p5113
S'juelz santana'
p5114
sS"love don't cost a thing"
p5115
S'jennifer lopez'
p5116
sS'pretty girl rock'
p5117
S'keri hilson'
p5118
sS'home to you'
p5119
S'john michael montgomery'
p5120
sS'songs about rain'
p5121
S'gary allan'
p5122
sS'vans'
p5123
S'the pack'
p5124
sS'stay or let it go'
p5125
S'brian mcknight'
p5126
sS'i hope you dance'
p5127
S'lee ann womack with sons of the desert'
p5128
sS'beware of the boys (mundian to bach ke)'
p5129
S'panjabi mc featuring jay-z'
p5130
sS"19 somethin'"
p5131
S'mark wills'
p5132
sS'fix you'
p5133
S'coldplay'
p5134
sS'we danced'
p5135
S'brad paisley'
p5136
sS'soldier of love'
p5137
S'sade'
p5138
sS'wait a minute'
p5139
S'the pussycat dolls featuring timbaland'
p5140
sS'grillz'
p5141
S'nelly featuring paul wall, ali & gipp'
p5142
sS'body on me'
p5143
S'nelly featuring ashanti & akon'
p5144
sS'tighten up'
p5145
S'the black keys'
p5146
sS'say i'
p5147
S'christina milian featuring young jeezy'
p5148
sS'nastradamus'
p5149
S'nas'
p5150
sS"it's like that"
p5151
S'mariah carey'
p5152
sS'the day that never comes'
p5153
S'metallica'
p5154
sS'i am the highway'
p5155
S'audioslave'
p5156
sS"i won't tell"
p5157
S'fat joe featuring j. holiday'
p5158
sS'walk it out'
p5159
S'unk'
p5160
sS'georgia'
p5161
S'ludacris & field mob featuring jamie foxx'
p5162
sS"this ain't no love song"
p5163
S'trace adkins'
p5164
sS"that's what you get"
p5165
S'paramore'
p5166
sS'nobody wants to be lonely'
p5167
S'ricky martin with christina aguilera'
p5168
sS'devils & dust'
p5169
S'bruce springsteen'
p5170
sS'gotta go my own way'
p5171
S'zac efron/vanessa anne hudgens'
p5172
sS"and i am telling you i'm not going"
p5173
S'glee cast featuring amber riley'
p5174
sS'beer for my horses'
p5175
S'toby keith duet with willie nelson'
p5176
sS'shake your bon-bon'
p5177
S'ricky martin'
p5178
sS'neutron star collision (love is forever)'
p5179
S'muse'
p5180
sS'come into my world'
p5181
S'kylie minogue'
p5182
sS'carry out'
p5183
S'timbaland featuring justin timberlake'
p5184
sS'the truth about men'
p5185
S'tracy byrd'
p5186
sS'bag lady'
p5187
S'erykah badu'
p5188
sS'halfway gone'
p5189
S'lifehouse'
p5190
sS'mrs. officer'
p5191
S'lil wayne featuring bobby valentino & kidd kidd'
p5192
sS'all because of you'
p5193
S'marques houston featuring young rome'
p5194
sS'locked up'
p5195
S'akon featuring styles p.'
p5196
sS'out of my heart (into your head)'
p5197
S'bbmak'
p5198
sS'cry for you'
p5199
S'september'
p5200
sS'waiting on the world to change'
p5201
S'john mayer'
p5202
sS'my destiny'
p5203
S'katharine mcphee'
p5204
sS'runnin (dying to live)'
p5205
S'tupac featuring the notorious b.i.g.'
p5206
sS'i write sins not tragedies'
p5207
S'panic! at the disco'
p5208
sS'i can'
p5209
S'nas'
p5210
sS"shuttin' detroit down"
p5211
S'john rich'
p5212
sS"don't say you love me"
p5213
S'm2m'
p5214
sS'rompe'
p5215
S'daddy yankee'
p5216
sS'bigger than my body'
p5217
S'john mayer'
p5218
sS'two wrongs'
p5219
S'wyclef jean featuring claudette ortiz'
p5220
sS'single for the rest of my life'
p5221
S'isyss'
p5222
sS'here comes goodbye'
p5223
S'rascal flatts'
p5224
sS'whatever it is'
p5225
S'zac brown band'
p5226
sS"don't know why"
p5227
S'norah jones'
p5228
sS'wasteland'
p5229
S'10 years'
p5230
sS'oh boy'
p5231
S"cam'ron featuring juelz santana"
p5232
sS'last christmas'
p5233
S'glee cast'
p5234
sS'crash and burn'
p5235
S'savage garden'
p5236
sS'7 days'
p5237
S'craig david'
p5238
sS'higher'
p5239
S'taio cruz featuring travie mccoy'
p5240
sS"baby don't go"
p5241
S'fabolous featuring jermaine dupri'
p5242
sS're-arranged'
p5243
S'limp bizkit'
p5244
sS"i'm gonna miss her (the fishin' song)"
p5245
S'brad paisley'
p5246
sS'best friend'
p5247
S'50 cent & olivia'
p5248
sS'rich girl'
p5249
S'gwen stefani featuring eve'
p5250
sS"please don't go"
p5251
S'mike posner'
p5252
sS"i don't dance"
p5253
S'corbin bleu and lucas grabeel'
p5254
sS'i got nerve'
p5255
S'hannah montana'
p5256
sS'take ya home'
p5257
S'lil bow wow'
p5258
sS'touch the sky'
p5259
S'kanye west featuring lupe fiasco'
p5260
sS'listen to your heart'
p5261
S'd.h.t.'
p5262
sS'someone to love you'
p5263
S'ruff endz'
p5264
sS'good ride cowboy'
p5265
S'garth brooks'
p5266
sS'lo que me gusta a mi'
p5267
S'juanes'
p5268
sS"baby it's you"
p5269
S'jojo featuring bow wow'
p5270
sS'anyone else but you'
p5271
S'michael cera & ellen page'
p5272
sS'my sister'
p5273
S'reba mcentire'
p5274
sS'move ya body'
p5275
S'nina sky featuring jabba'
p5276
sS'yeah ya know (takers)'
p5277
S't.i.'
p5278
sS'change your mind'
p5279
S'sister hazel'
p5280
sS'gimme the light'
p5281
S'sean paul'
p5282
sS"i'm going in"
p5283
S'drake featuring lil wayne & young jeezy'
p5284
sS'black sweat'
p5285
S'prince'
p5286
sS'hustler musik'
p5287
S'lil wayne'
p5288
sS'numb/encore'
p5289
S'jay-z/linkin park'
p5290
sS'homecoming'
p5291
S'kanye west featuring chris martin'
p5292
sS'hate that i love you'
p5293
S'rihanna featuring ne-yo'
p5294
sS'never leave you - uh ooh, uh oooh!'
p5295
S'lumidee'
p5296
sS'free and easy (down the road i go)'
p5297
S'dierks bentley'
p5298
sS'outta control'
p5299
S'50 cent'
p5300
sS'get ur freak on'
p5301
S'missy "misdemeanor" elliott'
p5302
sS'stay with you'
p5303
S'goo goo dolls'
p5304
sS'top back'
p5305
S't.i.'
p5306
sS'the shock of the lightning'
p5307
S'oasis'
p5308
sS'my best friend'
p5309
S'tim mcgraw'
p5310
sS"we weren't crazy"
p5311
S'josh gracin'
p5312
sS"f**kin' perfect"
p5313
S'p!nk'
p5314
sS'u saved me'
p5315
S'r. kelly'
p5316
sS'favorite girl'
p5317
S'justin bieber'
p5318
sS"why don't we just dance"
p5319
S'josh turner'
p5320
sS"can't leave 'em alone"
p5321
S'ciara featuring 50 cent'
p5322
sS'cooler than me'
p5323
S'mike posner'
p5324
sS'crushcrushcrush'
p5325
S'paramore'
p5326
sS'picture to burn'
p5327
S'taylor swift'
p5328
sS"i can't hate you anymore"
p5329
S'nick lachey'
p5330
sS"there's nothin"
p5331
S'sean kingston featuring elan & juelz santana'
p5332
sS'beautiful liar'
p5333
S'beyonce & shakira'
p5334
sS'show me the meaning of being lonely'
p5335
S'backstreet boys'
p5336
sS'imma star (everywhere we are)'
p5337
S'jeremih'
p5338
sS'push it to the limit'
p5339
S'corbin bleu'
p5340
sS'last call'
p5341
S'lee ann womack'
p5342
sS'indestructible'
p5343
S'disturbed'
p5344
sS'u understand'
p5345
S'juvenile'
p5346
sS'one less bell to answer / a house is not a home'
p5347
S'glee cast featuring kristin chenoweth'
p5348
sS'gimme that'
p5349
S"chris brown featuring lil' wayne"
p5350
sS'dancing queen'
p5351
S'a*teens'
p5352
sS'fire'
p5353
S'glee cast featuring kristin chenoweth'
p5354
sS"rubberneckin'"
p5355
S'elvis presley'
p5356
sS"if i fall you're going down with me"
p5357
S'dixie chicks'
p5358
sS'1, 2, 3, 4'
p5359
S"plain white t's"
p5360
sS'new divide'
p5361
S'linkin park'
p5362
sS'just because'
p5363
S"jane's addiction"
p5364
sS"keep on lovin' you"
p5365
S'steel magnolia'
p5366
sS'(you drive me) crazy'
p5367
S'britney spears'
p5368
sS"things that never cross a man's mind"
p5369
S'kellie pickler'
p5370
sS'that other woman'
p5371
S'changing faces'
p5372
sS'the ghost of you'
p5373
S'my chemical romance'
p5374
sS'one more chance'
p5375
S'michael jackson'
p5376
sS'angelito'
p5377
S'don omar'
p5378
sS'buddy'
p5379
S'musiq soulchild'
p5380
sS"big things poppin' (do it)"
p5381
S't.i.'
p5382
sS'straight out of line'
p5383
S'godsmack'
p5384
sS'how do you like me now?!'
p5385
S'toby keith'
p5386
sS"you ain't got nuthin"
p5387
S'lil wayne featuring juelz santana & fabolous'
p5388
sS"it only hurts when i'm breathing"
p5389
S'shania twain'
p5390
sS"don't stop believin'"
p5391
S'glee cast'
p5392
sS'good morning beautiful'
p5393
S'steve holy'
p5394
sS'more than a woman'
p5395
S'aaliyah'
p5396
sS"(i've had) the time of my life"
p5397
S'glee cast'
p5398
sS'miss california'
p5399
S'dante thomas featuring pras'
p5400
sS'foolish'
p5401
S'ashanti'
p5402
sS'fake it'
p5403
S'seether'
p5404
sS"this one's for the girls"
p5405
S'martina mcbride'
p5406
sS'who said'
p5407
S'hannah montana'
p5408
sS'magnificent'
p5409
S'rick ross featuring john legend'
p5410
sS'bounce'
p5411
S'sarah connor'
p5412
sS'walked outta heaven'
p5413
S'jagged edge'
p5414
sS'ni una sola palabra'
p5415
S'paulina rubio'
p5416
sS'so what'
p5417
S'pink'
p5418
sS'loser'
p5419
S'glee cast'
p5420
sS'best of intentions'
p5421
S'travis tritt'
p5422
sS'class reunion (that used to be us)'
p5423
S'lonestar'
p5424
sS'my love goes on and on'
p5425
S'chris cagle'
p5426
sS'irresistible'
p5427
S'jessica simpson'
p5428
sS'tempted to touch'
p5429
S'rupee'
p5430
sS'we no speak americano'
p5431
S'yolanda be cool & dcup'
p5432
sS'larger than life'
p5433
S'backstreet boys'
p5434
sS'anything goes'
p5435
S'randy houser'
p5436
sS'watching you'
p5437
S'rodney atkins'
p5438
sS'skin (sarabeth)'
p5439
S'rascal flatts'
p5440
sS'firecracker'
p5441
S'josh turner'
p5442
sS'weak and powerless'
p5443
S'a perfect circle'
p5444
sS'come a little closer'
p5445
S'dierks bentley'
p5446
sS'stingy'
p5447
S'ginuwine'
p5448
sS'speak now'
p5449
S'taylor swift'
p5450
sS'lose control'
p5451
S'missy elliott featuring ciara & fat man scoop'
p5452
sS'me love'
p5453
S'sean kingston'
p5454
sS'get crunked up'
p5455
S'iconz featuring tony manshino'
p5456
sS'some girls (dance with women)'
p5457
S'jc chasez featuring dirt mcgirt'
p5458
sS"sgt. pepper's lonely hearts club band"
p5459
S'paul mccartney with u2'
p5460
sS'i learned from the best'
p5461
S'whitney houston'
p5462
sS'because you love me'
p5463
S'jo dee messina'
p5464
sS'everybody'
p5465
S'keith urban'
p5466
sS"don't stop the music"
p5467
S'rihanna'
p5468
sS'the hand that feeds'
p5469
S'nine inch nails'
p5470
sS'run'
p5471
S'george strait'
p5472
sS'hallelujah'
p5473
S'lee dewyze'
p5474
sS'in a little while'
p5475
S'uncle kracker'
p5476
sS"sugar, we're goin' down"
p5477
S'fall out boy'
p5478
sS'more than a memory'
p5479
S'garth brooks'
p5480
sS'i need a girl (part two)'
p5481
S'p. diddy & ginuwine featuring loon, mario winans & tammy ruggeri'
p5482
sS'another try'
p5483
S'josh turner featuring trisha yearwood'
p5484
sS'the way you love me'
p5485
S'faith hill'
p5486
sS'otherside'
p5487
S'red hot chili peppers'
p5488
sS"let's get it started"
p5489
S'black eyed peas'
p5490
sS'we rock'
p5491
S'cast of camp rock'
p5492
sS'bust a move'
p5493
S'glee cast featuring matthew morrison'
p5494
sS'touch it'
p5495
S'busta rhymes'
p5496
sS"get'cha head in the game"
p5497
S'andrew seeley'
p5498
sS'i wanna know'
p5499
S'joe'
p5500
sS'shine'
p5501
S"lil' wayne featuring baby, mack 10 & mickey"
p5502
sS'so in love with two'
p5503
S'mikaila'
p5504
sS'undertow'
p5505
S'timbaland featuring the fray & esthero'
p5506
sS'anything'
p5507
S'jaheim featuring next'
p5508
sS'bet i'
p5509
S'b.o.b featuring t.i. & playboy tre'
p5510
sS'crank that (soulja boy)'
p5511
S"soulja boy tell'em"
p5512
sS'somebody told me'
p5513
S'the killers'
p5514
sS'your body'
p5515
S'pretty ricky'
p5516
sS'settle for a slowdown'
p5517
S'dierks bentley'
p5518
sS'teachme'
p5519
S'musiq soulchild'
p5520
sS'love in this club part ii'
p5521
S'usher featuring beyonce & lil wayne'
p5522
sS'there is no arizona'
p5523
S"jamie o'neal"
p5524
sS'that should be me'
p5525
S'justin bieber'
p5526
sS'awnaw'
p5527
S'nappy roots'
p5528
sS'could i have this kiss forever'
p5529
S'whitney houston'
p5530
sS"mama's song"
p5531
S'carrie underwood'
p5532
sS"i'm a survivor"
p5533
S'reba'
p5534
sS"ain't no rest for the wicked"
p5535
S'cage the elephant'
p5536
sS'get busy'
p5537
S'sean paul'
p5538
sS"you're a god"
p5539
S'vertical horizon'
p5540
sS'caught up'
p5541
S'usher'
p5542
sS"love's divine"
p5543
S'seal'
p5544
sS"life ain't always beautiful"
p5545
S'gary allan'
p5546
sS'all i need'
p5547
S'fat joe featuring tony sunshine & armageddon'
p5548
sS'only god knows why'
p5549
S'kid rock'
p5550
sS'the invitation'
p5551
S'50 cent'
p5552
sS'play my music'
p5553
S'jonas brothers'
p5554
sS'i melt'
p5555
S'rascal flatts'
p5556
sS'goodbye time'
p5557
S'blake shelton'
p5558
sS'what i do'
p5559
S'chris brown featuring plies'
p5560
sS'say something'
p5561
S'timbaland featuring drake'
p5562
sS'i need you now'
p5563
S'smokie norful'
p5564
sS'twisted transistor'
p5565
S'korn'
p5566
sS"god's will"
p5567
S'martina mcbride'
p5568
sS'my boo'
p5569
S'usher and alicia keys'
p5570
sS'nothing in this world'
p5571
S'keke wyatt featuring avant'
p5572
sS'peaches & cream'
p5573
S'112'
p5574
sS'modern day bonnie and clyde'
p5575
S'travis tritt'
p5576
sS'miss me'
p5577
S'drake featuring lil wayne'
p5578
sS'hands up'
p5579
S'lloyd banks featuring 50 cent'
p5580
sS'all eyez on me'
p5581
S'monica'
p5582
sS'show me how you burlesque'
p5583
S'christina aguilera'
p5584
sS'simple life'
p5585
S'carolyn dawn johnson'
p5586
sS'i call it love'
p5587
S'lionel richie'
p5588
sS'summertime'
p5589
S'new kids on the block'
p5590
sS'shut it down'
p5591
S'pitbull featuring akon'
p5592
sS'somewhere with you'
p5593
S'kenny chesney'
p5594
sS'american honey'
p5595
S'lady antebellum'
p5596
sS'my best days are ahead of me'
p5597
S'danny gokey'
p5598
sS'no surprise'
p5599
S'daughtry'
p5600
sS'wanksta'
p5601
S'50 cent'
p5602
sS'there you go'
p5603
S'pink'
p5604
sS'mountains'
p5605
S'lonestar'
p5606
sS'got ur self a...'
p5607
S'nas'
p5608
sS"ridin' rims"
p5609
S'dem franchize boyz'
p5610
sS'when you need my love'
p5611
S'darryl worley'
p5612
sS'whatchulookinat'
p5613
S'whitney houston'
p5614
sS'shoulder lean'
p5615
S'young dro featuring t.i.'
p5616
sS'getting away with murder'
p5617
S'papa roach'
p5618
sS't-shirt'
p5619
S'shontelle'
p5620
sS'at last'
p5621
S'beyonce'
p5622
sS"can't help but wait"
p5623
S'trey songz'
p5624
sS"my drink n' my 2 step"
p5625
S'cassidy featuring swizz beatz'
p5626
sS'go hard'
p5627
S'dj khaled featuring kanye west & t-pain'
p5628
sS'stand up'
p5629
S'ludacris featuring shawnna'
p5630
sS'freak on a leash (unplugged)'
p5631
S'korn featuring amy lee'
p5632
sS'love of my life'
p5633
S'brian mcknight'
p5634
sS'bossy'
p5635
S'kelis featuring too $hort'
p5636
sS'the way i are'
p5637
S'timbaland featuring keri hilson'
p5638
sS'a change is gonna come'
p5639
S'adam lambert'
p5640
sS'the carpal tunnel of love'
p5641
S'fall out boy'
p5642
sS"gettin' you home"
p5643
S'chris young'
p5644
sS"love don't live here"
p5645
S'lady antebellum'
p5646
sS'wind it up'
p5647
S'gwen stefani'
p5648
sS"everybody doesn't"
p5649
S'amanda'
p5650
sS'are you gonna kiss me or not'
p5651
S'thompson square'
p5652
sS'i tried'
p5653
S'bone thugs-n-harmony featuring akon'
p5654
sS'where the stars and stripes and the eagle fly'
p5655
S'aaron tippin'
p5656
sS'hell yeah'
p5657
S'montgomery gentry'
p5658
sS'did you wrong'
p5659
S'pleasure p.'
p5660
sS'doing too much'
p5661
S'paula deanda featuring baby bash'
p5662
sS"wanna be startin' somethin' 2008"
p5663
S'michael jackson with akon'
p5664
sS'here for the party'
p5665
S'gretchen wilson'
p5666
sS'lost!'
p5667
S'coldplay with jay-z'
p5668
sS'doa'
p5669
S'foo fighters'
p5670
sS'take your shirt off'
p5671
S't-pain'
p5672
sS'taking you home'
p5673
S'don henley'
p5674
sS'throw it in the bag'
p5675
S'fabolous featuring the-dream'
p5676
sS'year 3000'
p5677
S'jonas brothers'
p5678
sS'single'
p5679
S'natasha bedingfield'
p5680
sS'tequila makes her clothes fall off'
p5681
S'joe nichols'
p5682
sS'b.y.o.b.'
p5683
S'system of a down'
p5684
sS'girls, girls, girls'
p5685
S'jay-z'
p5686
sS'lovestoned'
p5687
S'justin timberlake'
p5688
sS"rose's turn"
p5689
S'glee cast'
p5690
sS'cry me a river'
p5691
S'justin timberlake'
p5692
sS'let u go'
p5693
S'ashley parker angel'
p5694
sS'what time is it'
p5695
S'high school musical 2 cast'
p5696
sS'hollaback'
p5697
S'gwen stefani'
p5698
sS'i turn to you'
p5699
S'christina aguilera'
p5700
sS'one of those days'
p5701
S'whitney houston'
p5702
sS'neva eva'
p5703
S'trillville'
p5704
sS'lol :-)'
p5705
S"trey songz featuring gucci mane & soulja boy tell'em"
p5706
sS'use somebody'
p5707
S'kings of leon'
p5708
sS'start of something new'
p5709
S'zac efron, andrew seeley & vanessa anne hudgens'
p5710
sS'irreplaceable'
p5711
S'beyonce'
p5712
sS'a different world'
p5713
S'bucky covington'
p5714
sS'she misses him'
p5715
S'tim rushlow'
p5716
sS'trying to find atlantis'
p5717
S"jamie o'neal"
p5718
sS'wave on wave'
p5719
S'pat green'
p5720
sS'your love'
p5721
S'nicki minaj'
p5722
sS'finding my way back'
p5723
S'jaheim'
p5724
sS'save me'
p5725
S'shinedown'
p5726
sS'work it (reinvention)'
p5727
S'nelly'
p5728
sS'pop champagne'
p5729
S'jim jones & ron browz featuring juelz santana'
p5730
sS'luxurious'
p5731
S'gwen stefani'
p5732
sS'all or nothing'
p5733
S'theory of a deadman'
p5734
sS'wetter'
p5735
S'twista'
p5736
sS'blue orchid'
p5737
S'the white stripes'
p5738
sS'wild west show'
p5739
S'big & rich'
p5740
sS'same girl'
p5741
S'r. kelly duet with usher'
p5742
sS'my chick bad'
p5743
S'ludacris featuring nicki minaj'
p5744
sS"feels good (don't worry bout a thing)"
p5745
S'naughty by nature featuring 3lw'
p5746
sS'oops!...i did it again'
p5747
S'britney spears'
p5748
sS'fighter'
p5749
S'christina aguilera'
p5750
sS'the next episode'
p5751
S'dr. dre featuring snoop dogg'
p5752
sS"walkin' on the moon"
p5753
S'the-dream featuring kanye west'
p5754
sS'meet virginia'
p5755
S'train'
p5756
sS'not today'
p5757
S'mary j. blige featuring eve'
p5758
sS'p***ycat'
p5759
S'missy "misdemeanor" elliott'
p5760
sS'never would have made it'
p5761
S'marvin sapp'
p5762
sS"ice cream freeze (let's chill)"
p5763
S'hannah montana'
p5764
sS'panic switch'
p5765
S'silversun pickups'
p5766
sS"america's suitehearts"
p5767
S'fall out boy'
p5768
sS'high maintenance woman'
p5769
S'toby keith'
p5770
sS'gossip folks'
p5771
S'missy "misdemeanor" elliott featuring ludacris'
p5772
sS'let me down easy'
p5773
S'billy currington'
p5774
sS'leave (get out)'
p5775
S'jojo'
p5776
sS"i'd do anything"
p5777
S'simple plan'
p5778
sS'tik tok'
p5779
S'ke$ha'
p5780
sS"i can't sleep"
p5781
S'clay walker'
p5782
sS'pull up'
p5783
S'mr. vegas'
p5784
sS'got your back'
p5785
S't.i. featuring keri hilson'
p5786
sS'hot in herre'
p5787
S'nelly'
p5788
sS'too drunk...'
p5789
S'buckcherry'
p5790
sS"lucky 4 you (tonight i'm just me)"
p5791
S'shedaisy'
p5792
sS'running away'
p5793
S'hoobastank'
p5794
sS'one thing'
p5795
S'finger eleven'
p5796
sS'break my heart'
p5797
S'spectacular! cast'
p5798
sS'ten rounds with jose cuervo'
p5799
S'tracy byrd'
p5800
sS'one love (people get ready)'
p5801
S'glee cast'
p5802
sS'happy?'
p5803
S'mudvayne'
p5804
sS'psycho'
p5805
S'puddle of mudd'
p5806
sS'falling down'
p5807
S'selena gomez & the scene'
p5808
sS'chillin'
p5809
S'wale featuring lady gaga'
p5810
sS'unfaithful'
p5811
S'rihanna'
p5812
sS'i wanna make you close your eyes'
p5813
S'dierks bentley'
p5814
sS'i love you'
p5815
S'dru hill'
p5816
sS'someone else calling you baby'
p5817
S'luke bryan'
p5818
sS'never let you go'
p5819
S'justin bieber'
p5820
sS'sweet dreams'
p5821
S'beyonce'
p5822
sS'so fresh, so clean'
p5823
S'outkast'
p5824
sS'u smile'
p5825
S'justin bieber'
p5826
sS'teach me how to dougie'
p5827
S'cali swag district'
p5828
sS'young'
p5829
S'kenny chesney'
p5830
sS'it s so hard'
p5831
S'big punisher featuring donell jones'
p5832
sS'witch doctor (2007)'
p5833
S'alvin and the chipmunks featuring chris classic'
p5834
sS'turn around (5 4 3 2 1)'
p5835
S'flo rida'
p5836
sS'phantom limb'
p5837
S'the shins'
p5838
sS'another nine minutes'
p5839
S'yankee grey'
p5840
sS'halfcrazy'
p5841
S'musiq'
p5842
sS'fly'
p5843
S'nicki minaj featuring rihanna'
p5844
sS'cold hard bitch'
p5845
S'jet'
p5846
sS'two people fell in love'
p5847
S'brad paisley'
p5848
sS'good girls go bad'
p5849
S'cobra starship featuring leighton meester'
p5850
sS'danger (been so long)'
p5851
S'mystikal featuring nivea'
p5852
sS'when you tell me that you love me'
p5853
S'american idol finalists season 4'
p5854
sS'ashes by now'
p5855
S'lee ann womack'
p5856
sS'good life'
p5857
S'onerepublic'
p5858
sS"are we cuttin'"
p5859
S'pastor troy featuring ms. jade'
p5860
sS'all over me'
p5861
S'josh turner'
p5862
sS"these boots are made for walkin'"
p5863
S'jessica simpson'
p5864
sS'feel good inc'
p5865
S'gorillaz'
p5866
sS"why don't we fall in love"
p5867
S'amerie'
p5868
sS'stranger in my house'
p5869
S'tamia'
p5870
sS'magic'
p5871
S'b.o.b featuring rivers cuomo'
p5872
sS'i m outta love'
p5873
S'anastacia'
p5874
sS'drop it low'
p5875
S'ester dean featuring chris brown'
p5876
sS'because i got high'
p5877
S'afroman'
p5878
sS"don't let the sun go down on me"
p5879
S'david archuleta'
p5880
sS'falls on me'
p5881
S'fuel'
p5882
sS'crazy for this girl'
p5883
S'evan and jaron'
p5884
sS'i need a girl (part one)'
p5885
S'p. diddy featuring usher & loon'
p5886
sS'rock that body'
p5887
S'the black eyed peas'
p5888
sS"pushin' me away"
p5889
S'jonas brothers'
p5890
sS'ella y yo'
p5891
S'aventura featuring don omar'
p5892
sS"sittin' sidewayz"
p5893
S'paul wall featuring big pokey'
p5894
sS'dumb love'
p5895
S'sean kingston'
p5896
sS'down 4 u'
p5897
S'irv gotti presents the inc. featuring ja rule, ashanti, charli baltimore & vita'
p5898
sS'tough little boys'
p5899
S'gary allan'
p5900
sS"stuntin' like my daddy"
p5901
S'birdman & lil wayne'
p5902
sS'on to the next one'
p5903
S'jay-z + swizz beatz'
p5904
sS'someday'
p5905
S'rob thomas'
p5906
sS'single ladies (put a ring on it)'
p5907
S'beyonce'
p5908
sS'go girl'
p5909
S'ciara featuring t-pain'
p5910
sS'just another girl'
p5911
S'monica'
p5912
sS'goodies'
p5913
S'ciara featuring petey pablo'
p5914
sS'bed intruder song'
p5915
S'antoine dodson & the gregory brothers featuring kelly dodson'
p5916
sS'do u wanna roll (dolittle theme)'
p5917
S"r.l., snoop dogg & lil' kim"
p5918
sS'boots'
p5919
S'the killers'
p5920
sS'jump'
p5921
S'flo rida featuring nelly furtado'
p5922
sS'a real fine place to start'
p5923
S'sara evans'
p5924
sS'the only exception'
p5925
S'paramore'
p5926
sS'saving grace'
p5927
S'tom petty'
p5928
sS'show stopper'
p5929
S'danity kane'
p5930
sS'treat her like a lady'
p5931
S'joe'
p5932
sS"prayin' for daylight"
p5933
S'rascal flatts'
p5934
sS'check yes juliet (run baby run)'
p5935
S'we the kings'
p5936
sS"settlin'"
p5937
S'sugarland'
p5938
sS"say somethin'"
p5939
S'mariah carey featuring snoop dogg'
p5940
sS'most girls'
p5941
S'pink'
p5942
sS'stricken'
p5943
S'disturbed'
p5944
sS'just might (make me believe)'
p5945
S'sugarland'
p5946
sS"leavin'"
p5947
S'jesse mccartney'
p5948
sS'i gotta get to you'
p5949
S'george strait'
p5950
sS"that'd be alright"
p5951
S'alan jackson'
p5952
sS"i would've loved you anyway"
p5953
S'trisha yearwood'
p5954
sS'na na na na'
p5955
S'112 featuring super cat'
p5956
sS'a little less sixteen candles, a little more touch me'
p5957
S'fall out boy'
p5958
sS'better days'
p5959
S'goo goo dolls'
p5960
sS'after party'
p5961
S'koffee brown'
p5962
sS"no one's gonna change you"
p5963
S'reina'
p5964
sS'girl talk'
p5965
S'tlc'
p5966
sS'save the last dance for me'
p5967
S'michael buble'
p5968
sS'my life'
p5969
S'the game featuring lil wayne'
p5970
sS'lighters up'
p5971
S"lil' kim"
p5972
sS'heaven sent'
p5973
S'keyshia cole'
p5974
sS'you make me sick'
p5975
S'pink'
p5976
sS'music of my heart'
p5977
S'n sync'
p5978
sS'you ll always be loved by me'
p5979
S'brooks'
p5980
sS'that s the way'
p5981
S'jo dee messina'
p5982
sS'why, why, why'
p5983
S'billy currington'
p5984
sS'underneath your clothes'
p5985
S'shakira'
p5986
sS'headsprung'
p5987
S'll cool j'
p5988
sS'fifteen'
p5989
S'taylor swift'
p5990
sS'you give love a bad name'
p5991
S'blake lewis'
p5992
sS'hold my hand'
p5993
S'michael jackson duet with akon'
p5994
sS'coffee shop'
p5995
S'yung joc featuring gorilla zoe'
p5996
sS'all i ever wanted'
p5997
S'kelly clarkson'
p5998
sS"u know what's up"
p5999
S'donell jones'
p6000
sS'survivor'
p6001
S"destiny's child"
p6002
sS"how come you don't call me"
p6003
S'alicia keys'
p6004
sS'get silly'
p6005
S'v.i.c.'
p6006
sS'satisfy you'
p6007
S'puff daddy featuring r. kelly'
p6008
sS'couldn t last a moment'
p6009
S'collin raye'
p6010
sS"i'm n luv (wit a stripper)"
p6011
S't-pain featuring mike jones'
p6012
sS'everytime we touch'
p6013
S'cascada'
p6014
sS'hold up my heart'
p6015
S'brooke white'
p6016
sS'black rain'
p6017
S'soundgarden'
p6018
sS"what i've done"
p6019
S'linkin park'
p6020
sS'danger'
p6021
S'erykah badu'
p6022
sS'careless whisper'
p6023
S'seether'
p6024
sS'give it 2 me'
p6025
S'madonna'
p6026
sS'mr. too damn good'
p6027
S'gerald levert'
p6028
sS'still ballin'
p6029
S'2pac featuring trick daddy'
p6030
sS'if you love me'
p6031
S'mint condition'
p6032
sS'party up (up in here)'
p6033
S'dmx'
p6034
sS'a public affair'
p6035
S'jessica simpson'
p6036
sS'i like that'
p6037
S'houston featuring chingy, nate dogg & i-20'
p6038
sS'99 problems'
p6039
S'jay-z'
p6040
sS'love remembers'
p6041
S'craig morgan'
p6042
sS'maybach music 2'
p6043
S"rick ross featuring kanye west, t-pain, lil' wayne"
p6044
sS'smack that'
p6045
S'akon featuring eminem'
p6046
sS'show me the money'
p6047
S'petey pablo'
p6048
sS'break down here'
p6049
S'julie roberts'
p6050
sS'number one spot'
p6051
S'ludacris'
p6052
sS'you raise me up'
p6053
S"josh groban & the african children's choir"
p6054
sS'losing my religion'
p6055
S'glee cast'
p6056
sS"don't you forget it"
p6057
S'glenn lewis'
p6058
sS"hustler's ambition"
p6059
S'50 cent'
p6060
sS'bye bye bye'
p6061
S"'n sync"
p6062
sS'small town southern man'
p6063
S'alan jackson'
p6064
sS'break ya neck'
p6065
S'busta rhymes'
p6066
sS'shake my'
p6067
S'three 6 mafia featuring kalenna'
p6068
sS'party to damascus'
p6069
S'wyclef jean featuring missy elliott'
p6070
sS'suds in the bucket'
p6071
S'sara evans'
p6072
sS"i'm just talkin' about tonight"
p6073
S'toby keith'
p6074
sS'rock yo hips'
p6075
S'crime mob featuring lil scrappy'
p6076
sS"i'm gonna getcha good!"
p6077
S'shania twain'
p6078
sS'somewhere over the rainbow'
p6079
S'katharine mcphee'
p6080
sS'we r who we r'
p6081
S'ke$ha'
p6082
sS'i run to you'
p6083
S'lady antebellum'
p6084
sS'last day of my life'
p6085
S'phil vassar'
p6086
sS"how 'bout you"
p6087
S'eric church'
p6088
sS'gimme more'
p6089
S'britney spears'
p6090
sS"lookin' for a good time"
p6091
S'lady antebellum'
p6092
sS'defying gravity'
p6093
S'glee cast'
p6094
sS'clubbin'
p6095
S'marques houston featuring joe budden & pied piper'
p6096
sS'bridge over troubled water'
p6097
S'glee cast'
p6098
sS'on fire'
p6099
S'lil wayne'
p6100
sS"cleanin' out my closet"
p6101
S'eminem'
p6102
sS'let me'
p6103
S'pat green'
p6104
sS'customer'
p6105
S'raheem devaughn'
p6106
sS'son of a gun'
p6107
S'janet featuring missy elliott, p. diddy & carly simon'
p6108
sS"if this isn't love"
p6109
S'jennifer hudson'
p6110
sS'i am mine'
p6111
S'pearl jam'
p6112
sS'animals'
p6113
S'nickelback'
p6114
sS'right where you want me'
p6115
S'jesse mccartney'
p6116
sS"sometimes you can't make it on your own"
p6117
S'u2'
p6118
sS'everyday america'
p6119
S'sugarland'
p6120
sS'this'
p6121
S'darius rucker'
p6122
sS'hot n cold'
p6123
S'katy perry'
p6124
sS'put on'
p6125
S'young jeezy featuring kanye west'
p6126
sS'red light'
p6127
S'david nail'
p6128
sS"the man who can't be moved"
p6129
S'the script'
p6130
sS'my town'
p6131
S'montgomery gentry'
p6132
sS"it's a business doing pleasure with you"
p6133
S'tim mcgraw'
p6134
sS'control'
p6135
S'puddle of mudd'
p6136
sS'bittersweet'
p6137
S'fantasia'
p6138
sS'loca'
p6139
S'shakira featuring el cata or dizzee rascal'
p6140
sS'back here'
p6141
S'bbmak'
p6142
sS'bent'
p6143
S'matchbox twenty'
p6144
sS'start a band'
p6145
S'brad paisley duet with keith urban'
p6146
sS"playas gon' play"
p6147
S'3lw'
p6148
sS'loco'
p6149
S'david lee murphy'
p6150
sS"if you're going through hell (before the devil even knows)"
p6151
S'rodney atkins'
p6152
sS'high'
p6153
S'james blunt'
p6154
sS'steal my sunshine'
p6155
S'len'
p6156
sS'he is'
p6157
S'heather headley'
p6158
sS'something'
p6159
S'lasgo'
p6160
sS'what hurts the most'
p6161
S'cascada'
p6162
sS"you're my everything"
p6163
S'anita baker'
p6164
sS"the talkin' song repair blues"
p6165
S'alan jackson'
p6166
sS'this is me'
p6167
S'demi lovato & joe jonas'
p6168
sS"what's left of me"
p6169
S'nick lachey'
p6170
sS'sparks fly'
p6171
S'taylor swift'
p6172
sS'the sweet escape'
p6173
S'gwen stefani featuring akon'
p6174
sS'turn my swag on'
p6175
S"soulja boy tell'em"
p6176
sS'now or never'
p6177
S'high school musical 3 cast'
p6178
sS'can i have it like that'
p6179
S'pharrell featuring gwen stefani'
p6180
sS'i wanna be with you'
p6181
S'mandy moore'
p6182
sS'feelin  so good'
p6183
S'jennifer lopez featuring big pun'
p6184
sS'superwoman pt. ii'
p6185
S"lil' mo featuring fabolous"
p6186
sS'be yourself'
p6187
S'audioslave'
p6188
sS'like a star'
p6189
S'corinne bailey rae'
p6190
sS'get back'
p6191
S'demi lovato'
p6192
sS'animal'
p6193
S'neon trees'
p6194
sS'do what you gotta do'
p6195
S'garth brooks'
p6196
sS'i know you want me (calle ocho)'
p6197
S'pitbull'
p6198
sS'window shopper'
p6199
S'50 cent'
p6200
sS'be without you'
p6201
S'mary j. blige'
p6202
sS'shake ya ass'
p6203
S'mystikal'
p6204
sS'always the love songs'
p6205
S'eli young band'
p6206
sS'you gets no love'
p6207
S'faith evans'
p6208
sS'doomsday clock'
p6209
S'the smashing pumpkins'
p6210
sS'come on over'
p6211
S'jessica simpson'
p6212
sS'walk a little straighter'
p6213
S'billy currington'
p6214
sS'on the hotline'
p6215
S'pretty ricky'
p6216
sS'mr. carter'
p6217
S'lil wayne featuring jay-z'
p6218
sS'heartbreak warfare'
p6219
S'john mayer'
p6220
sS'no leaf clover'
p6221
S'metallica'
p6222
sS"can't fight the moonlight"
p6223
S'leann rimes'
p6224
sS"you're beautiful"
p6225
S'james blunt'
p6226
sS'what the world needs'
p6227
S'wynonna'
p6228
sS'nine in the afternoon'
p6229
S'panic at the disco'
p6230
sS'want it, need it'
p6231
S'plies featuring ashanti'
p6232
sS"wish i didn't miss you"
p6233
S'angie stone'
p6234
sS'moving mountains'
p6235
S'usher'
p6236
sS'strut'
p6237
S'the cheetah girls'
p6238
sS"young'n (holla back)"
p6239
S'fabolous'
p6240
sS'love song'
p6241
S'sara bareilles'
p6242
sS'da mvp'
p6243
S'mary j. blige featuring the game & 50 cent'
p6244
sS'p.i.m.p.'
p6245
S'50 cent'
p6246
sS'chicks dig it'
p6247
S'chris cagle'
p6248
sS'honestly'
p6249
S'cartel'
p6250
sS"nobody's home"
p6251
S'avril lavigne'
p6252
sS'womanizer'
p6253
S'britney spears'
p6254
sS'the long goodbye'
p6255
S'brooks & dunn'
p6256
sS'there she goes'
p6257
S'babyface'
p6258
sS'disturbia'
p6259
S'rihanna'
p6260
sS'move shake drop'
p6261
S'dj laz featuring flo rida, casely & pitbull'
p6262
sS'9 am in dallas'
p6263
S'drake'
p6264
sS'girls dem sugar'
p6265
S'beenie man featuring mya'
p6266
sS'lark on my go-kart'
p6267
S'asher roth'
p6268
sS'it s over now'
p6269
S'112'
p6270
sS'there goes my baby'
p6271
S'usher'
p6272
sS'unbreakable'
p6273
S'alicia keys'
p6274
sS'nothing as it seems'
p6275
S'pearl jam'
p6276
sS'i just wanna live'
p6277
S'good charlotte'
p6278
sS'river deep, mountain high'
p6279
S'glee cast'
p6280
sS'downtime'
p6281
S'jo dee messina'
p6282
sS'dream big'
p6283
S'david cook'
p6284
sS'shiftwork'
p6285
S'kenny chesney duet with george strait'
p6286
sS'mrs. steven rudy'
p6287
S'mark mcguinn'
p6288
sS"this ain't nothin'"
p6289
S'craig morgan'
p6290
sS'change clothes'
p6291
S'jay-z'
p6292
sS"keeps gettin' better"
p6293
S'christina aguilera'
p6294
sS'west side story'
p6295
S'lfo'
p6296
sS'charlene'
p6297
S'anthony hamilton'
p6298
sS'right where i need to be'
p6299
S'gary allan'
p6300
sS'i love my b****'
p6301
S'busta rhymes featuring will.i.am & kelis'
p6302
sS'my front porch looking in'
p6303
S'lonestar'
p6304
sS'music is my hot hot sex'
p6305
S'css'
p6306
sS'lo mejor de mi vida eres tu/the best thing about me is you'
p6307
S'ricky martin featuring natalia jimenez'
p6308
sS'all you wanted'
p6309
S'michelle branch'
p6310
sS'errtime'
p6311
S'nelly featuring jung tru & king jacob'
p6312
sS'hate to say i told you so'
p6313
S'the hives'
p6314
sS'permanent'
p6315
S'david cook'
p6316
sS'laffy taffy'
p6317
S'd4l'
p6318
sS'proud of the house we built'
p6319
S'brooks & dunn'
p6320
sS"i got a feelin'"
p6321
S'billy currington'
p6322
sS'what happened to that boy'
p6323
S'baby featuring clipse'
p6324
sS"what's my name?"
p6325
S'rihanna featuring drake'
p6326
sS'crash'
p6327
S'gwen stefani'
p6328
sS'time of the season'
p6329
S'blake lewis'
p6330
sS'crush tonight'
p6331
S'fat joe featuring ginuwine'
p6332
sS'fiesta'
p6333
S'r. kelly featuring jay-z'
p6334
sS'love in this club, part ii'
p6335
S'usher featuring beyonce & lil wayne'
p6336
sS'candy shop'
p6337
S'50 cent featuring olivia'
p6338
sS'untouchable'
p6339
S'taylor swift'
p6340
sS'in the ayer'
p6341
S'flo rida featuring will.i.am'
p6342
sS'snake'
p6343
S'r. kelly featuring big tigger'
p6344
sS'get gone'
p6345
S'ideal'
p6346
sS'double vision'
p6347
S'3oh!3'
p6348
sS'realize'
p6349
S'colbie caillat'
p6350
sS'presidential'
p6351
S'youngbloodz'
p6352
sS'take a picture'
p6353
S'filter'
p6354
sS'white & nerdy'
p6355
S'weird al yankovic'
p6356
sS'the hand clap'
p6357
S'hurricane chris featuring big poppa'
p6358
sS'remember me'
p6359
S't.i. featuring mary j. blige'
p6360
sS'your body is a wonderland'
p6361
S'john mayer'
p6362
sS'wrapped around'
p6363
S'brad paisley'
p6364
sS"don't phunk with my heart"
p6365
S'the black eyed peas'
p6366
sS'eight second ride'
p6367
S'jake owen'
p6368
sS'work that'
p6369
S'mary j. blige'
p6370
sS'unpredictable'
p6371
S'jamie foxx featuring ludacris'
p6372
sS'have a nice day'
p6373
S'bon jovi'
p6374
sS'diamond girl'
p6375
S'ryan leslie'
p6376
sS"that's all she wrote"
p6377
S't.i. featuring eminem'
p6378
sS'say aah'
p6379
S'trey songz featuring fabolous'
p6380
sS'bust it baby (part 2)'
p6381
S'plies featuring ne-yo'
p6382
sS'today was a fairytale'
p6383
S'taylor swift'
p6384
sS'gotta go'
p6385
S'trey songz'
p6386
sS'try again'
p6387
S'aaliyah'
p6388
sS'untitled (how does it feel)'
p6389
S'd angelo'
p6390
sS'got some teeth'
p6391
S'obie trice'
p6392
sS'love story'
p6393
S'taylor swift'
p6394
sS'we belong together'
p6395
S'gavin degraw'
p6396
sS'prayin  for daylight'
p6397
S'rascal flatts'
p6398
sS'a good day to run'
p6399
S'darryl worley'
p6400
sS'black balloon'
p6401
S'goo goo dolls'
p6402
sS'alejandro'
p6403
S'lady gaga'
p6404
sS'every day'
p6405
S'rascal flatts'
p6406
sS'the only difference between martyrdom and suicide is press coverage'
p6407
S'panic! at the disco'
p6408
sS'he loves u not'
p6409
S'dream'
p6410
sS"ain't no other man"
p6411
S'christina aguilera'
p6412
sS'if something should happen'
p6413
S'darryl worley'
p6414
sS"(there's gotta be) more to life"
p6415
S'stacie orrico'
p6416
sS'all my friends say'
p6417
S'luke bryan'
p6418
sS'another way to die'
p6419
S'disturbed'
p6420
sS'make me better'
p6421
S'fabolous featuring ne-yo'
p6422
sS'harder to breathe'
p6423
S'maroon5'
p6424
sS'family affair'
p6425
S'mary j. blige'
p6426
sS'i try'
p6427
S'macy gray'
p6428
sS'how we do'
p6429
S'the game featuring 50 cent'
p6430
sS'what i need to do'
p6431
S'kenny chesney'
p6432
sS'game over'
p6433
S"lil' flip"
p6434
sS"black suits comin' (nod ya head)"
p6435
S'will smith featuring tra-knox'
p6436
sS'mayberry'
p6437
S'rascal flatts'
p6438
sS'price to play'
p6439
S'staind'
p6440
sS'you look good in my shirt'
p6441
S'keith urban'
p6442
sS'the baby'
p6443
S'blake shelton'
p6444
sS'dj play a love song'
p6445
S'jamie foxx featuring twista'
p6446
sS'umbrella'
p6447
S'rihanna featuring jay-z'
p6448
sS'any other night'
p6449
S'sharissa'
p6450
sS'do you'
p6451
S'ne-yo'
p6452
sS'wadsyaname'
p6453
S'nelly'
p6454
sS'be here'
p6455
S"raphael saadiq featuring d'angelo"
p6456
sS'no air'
p6457
S'glee cast'
p6458
sS'heartbreaker'
p6459
S'mariah carey featuring jay-z'
p6460
sS'felt good on my lips'
p6461
S'tim mcgraw'
p6462
sS'bright lights'
p6463
S'matchbox twenty'
p6464
sS'all good things (come to an end)'
p6465
S'nelly furtado'
p6466
sS"roun' the globe"
p6467
S'nappy roots'
p6468
sS"poppin'"
p6469
S'chris brown featuring jay biz'
p6470
sS'money maker'
p6471
S'ludacris featuring pharrell'
p6472
sS'lady (hear me tonight)'
p6473
S'modjo'
p6474
sS'drowning'
p6475
S'backstreet boys'
p6476
sS"i'm just here for the music"
p6477
S'paula abdul'
p6478
sS'bass down low'
p6479
S'dev featuring the cataracs'
p6480
sS'le jazz hot'
p6481
S'glee cast'
p6482
sS'sobeautiful'
p6483
S'musiq soulchild'
p6484
sS"i'll wait for you"
p6485
S'joe nichols'
p6486
sS'scars'
p6487
S'papa roach'
p6488
sS'just a lil bit'
p6489
S'50 cent'
p6490
sS"i'd come for you"
p6491
S'nickelback'
p6492
sS'one call away'
p6493
S'chingy featuring j. weav'
p6494
sS'austin'
p6495
S'blake shelton'
p6496
sS"don't let me fall"
p6497
S'b.o.b'
p6498
sS"farmer's daughter"
p6499
S'rodney atkins'
p6500
sS"don't let me get me"
p6501
S'pink'
p6502
sS"you're gonna go far, kid"
p6503
S'the offspring'
p6504
sS'rose bouquet'
p6505
S'phil vassar'
p6506
sS"gangsta lovin'"
p6507
S'eve featuring alicia keys'
p6508
sS'somebody to love'
p6509
S'justin bieber featuring usher'
p6510
sS'get by'
p6511
S'talib kweli'
p6512
sS'echo'
p6513
S'gorilla zoe'
p6514
sS'me, myself and i'
p6515
S'beyonce'
p6516
sS'look at us'
p6517
S'sarina paris'
p6518
sS"if it's lovin' that you want"
p6519
S'rihanna'
p6520
sS'make her feel good'
p6521
S'teairra mari'
p6522
sS'check it out'
p6523
S'will.i.am & nicki minaj'
p6524
sS'touch my body'
p6525
S'mariah carey'
p6526
sS'e-pro'
p6527
S'beck'
p6528
sS"u don't have to call"
p6529
S'usher'
p6530
sS'it kills me'
p6531
S'melanie fiona'
p6532
sS'love this pain'
p6533
S'lady antebellum'
p6534
sS'maria maria'
p6535
S'santana featuring the product g'
p6536
sS'nothing left to lose'
p6537
S'mat kearney'
p6538
sS'upside down'
p6539
S'jack johnson'
p6540
sS'spaceman'
p6541
S'the killers'
p6542
sS'oh yeah!'
p6543
S'big tymers featuring tateeze, boo & gotti'
p6544
sS'new york'
p6545
S'ja rule featuring fat joe & jadakiss'
p6546
sS"i'll be lovin' u long time"
p6547
S'mariah carey'
p6548
sS'wrapped'
p6549
S'george strait'
p6550
sS'times like these'
p6551
S'foo fighters'
p6552
sS"that's the way"
p6553
S'jo dee messina'
p6554
sS'tu amor'
p6555
S'rbd'
p6556
sS'into the ocean'
p6557
S'blue october'
p6558
sS'ice box'
p6559
S'omarion'
p6560
sS'like a stone'
p6561
S'audioslave'
p6562
sS'turn off the light'
p6563
S'nelly furtado'
p6564
sS'nobody'
p6565
S'wonder girls'
p6566
sS'the hardest part of breaking up (is getting back your stuff)'
p6567
S'2gether'
p6568
sS'a rose by any other name'
p6569
S'teena marie featuring gerald levert'
p6570
sS'our time now'
p6571
S"plain white t's"
p6572
sS"i'm a hustla"
p6573
S'cassidy'
p6574
sS'pop that booty'
p6575
S'marques houston featuring jermaine "jd" dupri'
p6576
sS'back then'
p6577
S'mike jones'
p6578
sS'a thousand miles'
p6579
S'vanessa carlton'
p6580
sS'photograph'
p6581
S'nickelback'
p6582
sS'i should have cheated'
p6583
S'keyshia cole'
p6584
sS'the reason'
p6585
S'hoobastank'
p6586
sS'bother'
p6587
S'stone sour'
p6588
sS'bed'
p6589
S'j. holiday'
p6590
sS"it's been awhile"
p6591
S'staind'
p6592
sS"we're all in this together"
p6593
S'high school musical cast'
p6594
sS'firework'
p6595
S'katy perry'
p6596
sS'oh no'
p6597
S'mos def & pharoahe monch featuring nate dogg'
p6598
sS'let them be little'
p6599
S'billy dean'
p6600
sS'hot mama'
p6601
S'trace adkins'
p6602
sS"let's get it"
p6603
S'three the... g. dep, p. diddy & black rob'
p6604
sS'i invented sex'
p6605
S'trey songz featuring drake'
p6606
sS'encore'
p6607
S'eminem featuring dr. dre & 50 cent'
p6608
sS'never say never'
p6609
S'justin bieber featuring jaden smith'
p6610
sS'whatever you like'
p6611
S'anya marina'
p6612
sS'shark in the water'
p6613
S'v v brown'
p6614
sS'teenagers'
p6615
S'my chemical romance'
p6616
sS'tonight'
p6617
S'jonas brothers'
p6618
sS'deep inside of you'
p6619
S'third eye blind'
p6620
sS'westside story'
p6621
S'the game featuring 50 cent'
p6622
sS"i don't have to be me ('til monday)"
p6623
S'steve azar'
p6624
sS'who the f*** is that?'
p6625
S'dolla featuring t-pain & tay dizm'
p6626
sS'coming undone'
p6627
S'korn'
p6628
sS'so sexy chapter ii (like this)'
p6629
S'twista featuring r. kelly'
p6630
sS'home sweet home'
p6631
S'carrie underwood'
p6632
sS'my president'
p6633
S'young jeezy featuring nas'
p6634
sS'ghetto story chapter 2'
p6635
S'cham featuring alicia keys'
p6636
sS'we will become silhouettes'
p6637
S'the postal service'
p6638
sS'where i come from'
p6639
S'alan jackson'
p6640
sS'misery business'
p6641
S'paramore'
p6642
sS"dj got us fallin' in love"
p6643
S'usher featuring pitbull'
p6644
sS'be on you'
p6645
S'flo rida featuring ne-yo'
p6646
sS'as if'
p6647
S'sara evans'
p6648
sS'god in me'
p6649
S'mary mary featuring kierra "kiki" sheard'
p6650
sS'ordinary day'
p6651
S'vanessa carlton'
p6652
sS'gravity'
p6653
S'john mayer'
p6654
sS'empire state of mind (part ii) broken down'
p6655
S'alicia keys'
p6656
sS"hush lil' lady"
p6657
S"corey featuring lil' romeo"
p6658
sS'redneck yacht club'
p6659
S'craig morgan'
p6660
sS"my give a damn's busted"
p6661
S'jo dee messina'
p6662
sS'best days of your life'
p6663
S'kellie pickler'
p6664
sS'here is gone'
p6665
S'goo goo dolls'
p6666
sS"i'm a slave 4 u"
p6667
S'glee cast'
p6668
sS'i want to live'
p6669
S'josh gracin'
p6670
sS'get buck'
p6671
S'young buck'
p6672
sS'fast cars and freedom'
p6673
S'rascal flatts'
p6674
sS'flipside'
p6675
S'freeway featuring peedi crakk'
p6676
sS'candyman'
p6677
S'christina aguilera'
p6678
sS'crawling'
p6679
S'linkin park'
p6680
sS'london bridge'
p6681
S'fergie'
p6682
sS'chasing pavements'
p6683
S'adele'
p6684
sS"what up, what's haapnin'"
p6685
S't.i.'
p6686
sS"what's going on"
p6687
S'all star tribute'
p6688
sS'where is the love?'
p6689
S'black eyed peas'
p6690
sS'in my life'
p6691
S'juvenile featuring mannie fresh'
p6692
sS'beat it'
p6693
S'fall out boy featuring john mayer'
p6694
sS'gallery'
p6695
S'mario vazquez'
p6696
sS'bow wow (that s my name)'
p6697
S'lil bow wow'
p6698
sS'gotta find you'
p6699
S'joe jonas'
p6700
sS'stronger'
p6701
S'glee cast'
p6702
sS'disease'
p6703
S'matchbox twenty'
p6704
sS'introducing me'
p6705
S'nick jonas'
p6706
sS'new soul'
p6707
S'yael naim'
p6708
sS'feel good time'
p6709
S'pink featuring william orbit'
p6710
sS'fat lip'
p6711
S'sum 41'
p6712
sS'sing!'
p6713
S'glee cast'
p6714
sS'float on'
p6715
S'modest mouse'
p6716
sS'set it off'
p6717
S'juvenile'
p6718
sS'peacekeeper'
p6719
S'fleetwood mac'
p6720
sS'whatever u want'
p6721
S'christina milian featuring joe budden'
p6722
sS'pen & paper'
p6723
S'the red jumpsuit apparatus'
p6724
sS'then they do'
p6725
S'trace adkins'
p6726
sS'from her mama (mama got a**)'
p6727
S'juvenile'
p6728
sS'the music of the night'
p6729
S'david cook'
p6730
sS"day 'n' nite"
p6731
S'kid cudi'
p6732
sS'fire burning'
p6733
S'sean kingston'
p6734
sS'chances'
p6735
S'five for fighting'
p6736
sS'marry for money'
p6737
S'trace adkins'
p6738
sS'when the stars go blue'
p6739
S'tim mcgraw'
p6740
sS'wipe me down'
p6741
S'lil boosie featuring foxx & webbie'
p6742
sS'always be my baby'
p6743
S'david cook'
p6744
sS'when you were young'
p6745
S'the killers'
p6746
sS'the best day'
p6747
S'george strait'
p6748
sS'whenever, wherever'
p6749
S'shakira'
p6750
sS'careful'
p6751
S'paramore'
p6752
sS"old time's sake"
p6753
S'eminem featuring dr. dre'
p6754
sS'the river'
p6755
S'good charlotte featuring m. shadows and synyster gates'
p6756
sS"if you're not the one"
p6757
S'daniel bedingfield'
p6758
sS"signs of love makin'"
p6759
S'tyrese'
p6760
sS'if nobody believed in you'
p6761
S'joe nichols'
p6762
sS'winner'
p6763
S'jamie foxx featuring justin timberlake & t .i.'
p6764
sS'know your enemy'
p6765
S'green day'
p6766
sS'i want to hold your hand'
p6767
S'glee cast'
p6768
sS'buttons'
p6769
S'the pussycat dolls featuring snoop dogg'
p6770
sS'perdidos'
p6771
S'monchy & alexandra'
p6772
sS'overnight celebrity'
p6773
S'twista'
p6774
sS"let's ride"
p6775
S'the game'
p6776
sS'hope she cheats on you (with a basketball player)'
p6777
S'marsha ambrosius'
p6778
sS'do it to it'
p6779
S'cherish featuring sean paul of the youngbloodz'
p6780
sS"don't trust me"
p6781
S'3oh!3'
p6782
sS"rockin' that thang"
p6783
S'the-dream'
p6784
sS'let it rock'
p6785
S'kevin rudolf featuring lil wayne'
p6786
sS"(if you're wondering if i want you to) i want you to"
p6787
S'weezer'
p6788
sS'don t say you love me'
p6789
S'm2m'
p6790
sS'fly on the wall'
p6791
S'miley cyrus'
p6792
sS'purest of pain (a puro dolor)'
p6793
S'son by four'
p6794
sS'hoedown throwdown'
p6795
S'miley cyrus'
p6796
sS'rush'
p6797
S'aly & aj'
p6798
sS'welcome to jamrock'
p6799
S'damian "jr. gong" marley'
p6800
sS'american boy'
p6801
S'estelle featuring kanye west'
p6802
sS'nada es para siempre'
p6803
S'luis fonsi'
p6804
sS'lions, tigers & bears'
p6805
S'jazmine sullivan'
p6806
sS'cowboy take me away'
p6807
S'dixie chicks'
p6808
sS'you won t be lonely now'
p6809
S'billy ray cyrus'
p6810
sS'ghetto'
p6811
S'akon'
p6812
sS'hold on'
p6813
S'jonas brothers'
p6814
sS'love is a beautiful thing'
p6815
S'phil vassar'
p6816
sS'for you i will (confidence)'
p6817
S'teddy geiger'
p6818
sS'better in time'
p6819
S'leona lewis'
p6820
sS'fill me in'
p6821
S'craig david'
p6822
sS'lady marmalade'
p6823
S"christina aguilera, lil' kim, mya & pink"
p6824
sS'johnny & june'
p6825
S'heidi newfield'
p6826
sS'marry me'
p6827
S'train'
p6828
sS'shout to the lord'
p6829
S'american idol top 8'
p6830
sS'in a real love'
p6831
S'phil vassar'
p6832
sS"who wouldn't wanna be me"
p6833
S'keith urban'
p6834
sS"ridin'"
p6835
S'chamillionaire featuring krayzie bone'
p6836
sS'letters from home'
p6837
S'john michael montgomery'
p6838
sS'this i promise you'
p6839
S"'n sync"
p6840
sS"hear 'em say"
p6841
S'kanye west featuring adam levine'
p6842
sS'you and your heart'
p6843
S'jack johnson'
p6844
sS"if you're reading this"
p6845
S'tim mcgraw'
p6846
sS'tha block is hot'
p6847
S'lil  wayne featuring juvenile'
p6848
sS'here we go again'
p6849
S'demi lovato'
p6850
sS'more like her'
p6851
S'miranda lambert'
p6852
sS'sexy bitch'
p6853
S'david guetta featuring akon'
p6854
sS'try sleeping with a broken heart'
p6855
S'alicia keys'
p6856
sS'pretty boy swag'
p6857
S"soulja boy tell'em"
p6858
sS'breathe'
p6859
S'taylor swift'
p6860
sS'my way'
p6861
S'limp bizkit'
p6862
sS'enough cryin'
p6863
S'mary j. blige featuring brook-lyn'
p6864
sS'omg'
p6865
S'usher featuring will.i.am'
p6866
sS"big girls don't cry"
p6867
S'fergie'
p6868
sS'this love'
p6869
S'maroon5'
p6870
sS'closer'
p6871
S'ne-yo'
p6872
sS'disco inferno'
p6873
S'50 cent'
p6874
sS'nightmare'
p6875
S'avenged sevenfold'
p6876
sS'outta control (remix)'
p6877
S'50 cent feat. mobb deep'
p6878
sS'this woman needs'
p6879
S'shedaisy'
p6880
sS'25 to life'
p6881
S'eminem'
p6882
sS'swagga like us'
p6883
S'jay-z & t.i. featuring kanye west & lil wayne'
p6884
sS'what a beautiful day'
p6885
S'chris cagle'
p6886
sS'take that'
p6887
S'torrey carter featuring missy "misdemeanor" elliott'
p6888
sS'little wonders'
p6889
S'rob thomas'
p6890
sS'who is she 2 u'
p6891
S'brandy'
p6892
sS'perfect'
p6893
S'sara evans'
p6894
sS"any way you want it/lovin' touchin' squeezin'"
p6895
S'glee cast'
p6896
sS'dead and gone'
p6897
S't.i. featuring justin timberlake'
p6898
sS'tie me down'
p6899
S'new boyz featuring ray j'
p6900
sS'our song'
p6901
S'taylor swift'
p6902
sS'4, 5, 6'
p6903
S'sole featuring jt money'
p6904
sS'passenger seat'
p6905
S'shedaisy'
p6906
sS'closer to love'
p6907
S'mat kearney'
p6908
sS"you can't stop the beat"
p6909
S'cast of hairspray'
p6910
sS'one in a million'
p6911
S'ne-yo'
p6912
sS'in this moment'
p6913
S'david archuleta'
p6914
sS'i need you'
p6915
S'tim mcgraw with faith hill'
p6916
sS'precious'
p6917
S'depeche mode'
p6918
sS'take me on the floor'
p6919
S'the veronicas'
p6920
sS'where were you (when the world stopped turning)'
p6921
S'alan jackson'
p6922
sS"i'm still in love with you"
p6923
S'sean paul featuring sasha'
p6924
sS'unstoppable'
p6925
S'rascal flatts'
p6926
sS'bartender song'
p6927
S'rehab'
p6928
sS'once in a lifetime'
p6929
S'keith urban'
p6930
sS'hot mess'
p6931
S'cobra starship'
p6932
sS'a little more country than that'
p6933
S'easton corbin'
p6934
sS'sexy can i'
p6935
S'ray j & yung berg'
p6936
sS'headlines (friendship never ends)'
p6937
S'spice girls'
p6938
sS'little miss obsessive'
p6939
S'ashlee simpson with tom higgenson'
p6940
sS'pop ya collar'
p6941
S'usher'
p6942
sS"papa don't preach"
p6943
S'kelly osbourne'
p6944
sS'i still miss you'
p6945
S'keith anderson'
p6946
sS'every mile a memory'
p6947
S'dierks bentley'
p6948
sS'big machine'
p6949
S'goo goo dolls'
p6950
sS'who i am'
p6951
S'nick jonas & the administration'
p6952
sS"doesn't remind me"
p6953
S'audioslave'
p6954
sS'simply being loved (somnambulist)'
p6955
S'bt'
p6956
sS'u + ur hand'
p6957
S'pink'
p6958
sS'paper planes'
p6959
S'm.i.a.'
p6960
sS"idlewild blue (don'tchu worry 'bout me)"
p6961
S'outkast'
p6962
sS'it just comes natural'
p6963
S'george strait'
p6964
sS'you know my name'
p6965
S'chris cornell'
p6966
sS'my love is your love'
p6967
S'whitney houston'
p6968
sS"it's good to be us"
p6969
S'bucky covington'
p6970
sS'la la land'
p6971
S'demi lovato'
p6972
sS'i who have nothing'
p6973
S'jordin sparks'
p6974
sS'chemicals react'
p6975
S'aly & aj'
p6976
sS'every other time'
p6977
S'lfo'
p6978
sS'i hate this part'
p6979
S'the pussycat dolls'
p6980
sS'i may hate myself in the morning'
p6981
S'lee ann womack'
p6982
sS'stunt 101'
p6983
S'g-unit'
p6984
sS'follow me'
p6985
S'uncle kracker'
p6986
sS'can i have this dance'
p6987
S'zac efron & vanessa hudgens'
p6988
sS'dont trust me'
p6989
S'3oh!3'
p6990
sS"when i'm gone"
p6991
S'eminem'
p6992
sS"she's no you"
p6993
S'jesse mccartney'
p6994
sS'smoke rings in the dark'
p6995
S'gary allan'
p6996
sS'no boundaries'
p6997
S'kris allen'
p6998
sS"you'll be there"
p6999
S'george strait'
p7000
sS'my place'
p7001
S'nelly featuring jaheim'
p7002
sS'girl tonite'
p7003
S'twista featuring trey songz'
p7004
sS'a little too late'
p7005
S'toby keith'
p7006
sS'stickwitu'
p7007
S'the pussycat dolls'
p7008
sS"you're my better half"
p7009
S'keith urban'
p7010
sS'roll wit m.v.p.'
p7011
S'stagga lee'
p7012
sS'down and out'
p7013
S"cam'ron featuring kanye west & syleena johnson"
p7014
sS"look what you've done"
p7015
S'jet'
p7016
sS'my hood'
p7017
S'young jeezy'
p7018
sS'airplanes'
p7019
S'b.o.b featuring hayley williams'
p7020
sS'love s the only house'
p7021
S'martina mcbride'
p7022
sS'balla baby'
p7023
S'chingy'
p7024
sS'diamonds from sierra leone'
p7025
S'kanye west'
p7026
sS"haven't met you yet"
p7027
S'michael buble'
p7028
sS'slow motion'
p7029
S'juvenile featuring soulja slim'
p7030
sS'better off alone'
p7031
S'alice deejay'
p7032
sS'fly like me'
p7033
S'chingy featuring amerie'
p7034
sS'in the kitchen'
p7035
S'r. kelly'
p7036
sS'pass that dutch'
p7037
S'missy elliott'
p7038
sS'highway 20 ride'
p7039
S'zac brown band'
p7040
sS'we fly high'
p7041
S'jim jones'
p7042
sS'man to man'
p7043
S'gary allan'
p7044
sS'love me right (oh sheila)'
p7045
S'angel city featuring lara mcallen'
p7046
sS'the boy is mine'
p7047
S'glee cast'
p7048
sS"burnin' up"
p7049
S'jonas brothers'
p7050
sS'belly dancer (bananza)'
p7051
S'akon'
p7052
sS'holding you down (goin in circles)'
p7053
S'jazmine sullivan'
p7054
sS'lemonade'
p7055
S'gucci mane'
p7056
sS"don't talk"
p7057
S'jon b'
p7058
sS'candle (sick and tired)'
p7059
S'the white tie affair'
p7060
sS'please excuse my hands'
p7061
S'plies featuring jamie foxx & the-dream'
p7062
sS'i smoke, i drank'
p7063
S'body head bangerz featuring youngbloodz'
p7064
sS'halfway there'
p7065
S'big time rush'
p7066
sS'still on your side'
p7067
S'bbmak'
p7068
sS'the outsider'
p7069
S'a perfect circle'
p7070
sS'love don t cost a thing'
p7071
S'jennifer lopez'
p7072
sS"you're gonna miss this"
p7073
S'trace adkins'
p7074
sS'almost'
p7075
S'bowling for soup'
p7076
sS'cold day in july'
p7077
S'dixie chicks'
p7078
sS'the lazy song'
p7079
S'bruno mars'
p7080
sS'cleaning this gun (come on in boy)'
p7081
S'rodney atkins'
p7082
sS'shackles (praise you)'
p7083
S'mary mary'
p7084
sS'mockingbird'
p7085
S'rob thomas'
p7086
sS"something's gotta give"
p7087
S'leann rimes'
p7088
sS'bring out the freak in you'
p7089
S'lil rob'
p7090
sS'i just call you mine'
p7091
S'martina mcbride'
p7092
sS'if you re gone'
p7093
S'matchbox twenty'
p7094
sS'never too far/hero (medley)'
p7095
S'mariah carey'
p7096
sS"can't believe"
p7097
S'faith evans featuring carl thomas'
p7098
sS'new day'
p7099
S'patti labelle'
p7100
sS'you know that i love you'
p7101
S'donell jones'
p7102
sS'2 step'
p7103
S'unk'
p7104
sS'the saints are coming'
p7105
S'u2 & green day'
p7106
sS'big chips'
p7107
S'r. kelly & jay-z'
p7108
sS'j**z in my pants'
p7109
S'the lonely island'
p7110
sS'i ll be'
p7111
S'reba mcentire'
p7112
sS'sweet southern comfort'
p7113
S'buddy jewell'
p7114
sS'strange'
p7115
S'reba'
p7116
sS'i loved her first'
p7117
S'heartland'
p7118
sS'mamacita'
p7119
S'public announcement'
p7120
sS"i'm awesome"
p7121
S'spose'
p7122
sS'empty walls'
p7123
S'serj tankian'
p7124
sS'it s my life'
p7125
S'bon jovi'
p7126
sS'fireman'
p7127
S'lil wayne'
p7128
sS'how you want that'
p7129
S'loon featuring kelis'
p7130
sS'hands clean'
p7131
S'alanis morissette'
p7132
sS'tricky, tricky'
p7133
S'lou bega'
p7134
sS'me against the music'
p7135
S'glee cast'
p7136
sS'liquid dreams'
p7137
S'o-town'
p7138
sS"i'm so hood"
p7139
S'dj khaled featuring t-pain, trick daddy, rick ross & plies'
p7140
sS'thinking of you'
p7141
S'katy perry'
p7142
sS'gone'
p7143
S'montgomery gentry'
p7144
sS'oye mi canto'
p7145
S'n.o.r.e. featuring daddy yankee, nina sky, gem star & big mato'
p7146
sS'too little too late'
p7147
S'jojo'
p7148
sS'there it go! (the whistle song)'
p7149
S'juelz santana'
p7150
sS'she wolf'
p7151
S'shakira'
p7152
sS'braid my hair'
p7153
S'mario'
p7154
sS'that girl'
p7155
S'frankie j featuring mannie fresh & chamillionaire'
p7156
sS'trading places'
p7157
S'usher'
p7158
sS"when i get where i'm going"
p7159
S'brad paisley featuring dolly parton'
p7160
sS'empire state of mind'
p7161
S'glee cast'
p7162
sS'top of the world'
p7163
S'the pussycat dolls'
p7164
sS'quitame ese hombre'
p7165
S'pilar montenegro'
p7166
sS'case of the ex (whatcha gonna do)'
p7167
S'mya'
p7168
sS'hypnotized'
p7169
S'plies featuring akon'
p7170
sS'fall into me'
p7171
S'emerson drive'
p7172
sS'take away'
p7173
S'missy "misdemeanor" elliott featuring ginuwine & tweet'
p7174
sS'women lie, men lie'
p7175
S'yo gotti featuring lil wayne'
p7176
sS'breathe, stretch, shake'
p7177
S'mase featuring p. diddy'
p7178
sS'because of you'
p7179
S'reba mcentire duet with kelly clarkson'
p7180
sS'a bay bay'
p7181
S'hurricane chris'
p7182
sS'goodbye to you'
p7183
S'michelle branch'
p7184
sS'number one'
p7185
S'r. kelly featuring keri hilson'
p7186
sS'pursuit of happiness (nightmare)'
p7187
S'kid cudi featuring mgmt & ratatat'
p7188
sS'clocks'
p7189
S'coldplay'
p7190
sS"what i've been looking for (reprise)"
p7191
S'zac efron & vanessa anne hudgens'
p7192
sS'american idiot'
p7193
S'green day'
p7194
sS'not myself tonight'
p7195
S'christina aguilera'
p7196
sS'coconut juice'
p7197
S'tyga featuring travis mccoy'
p7198
sS'bouncing off the ceiling (upside down)'
p7199
S'a*teens'
p7200
sS'winner at a losing game'
p7201
S'rascal flatts'
p7202
sS'long trip alone'
p7203
S'dierks bentley'
p7204
sS'she only smokes when she drinks'
p7205
S'joe nichols'
p7206
sS'kick push'
p7207
S'lupe fiasco'
p7208
sS'send the pain below'
p7209
S'chevelle'
p7210
sS'i dreamed a dream'
p7211
S'glee cast featuring idina menzel'
p7212
sS'drift away'
p7213
S'uncle kracker featuring dobie gray'
p7214
sS"the remedy (i won't worry)"
p7215
S'jason mraz'
p7216
sS'say i yi yi'
p7217
S'ying yang twins'
p7218
sS'notorious b.i.g.'
p7219
S'the notorious b.i.g. featuring puff daddy'
p7220
sS'russian roulette'
p7221
S'rihanna'
p7222
sS'right here (departed)'
p7223
S'brandy'
p7224
sS"don't ask me how i know"
p7225
S'bobby pinson'
p7226
sS'flap your wings'
p7227
S'nelly'
p7228
sS'down a** chick'
p7229
S'ja rule featuring charli "chuck" baltimore'
p7230
sS'knoc'
p7231
S'knoc-turn\'al with dr. dre & missy "misdemeanor" elliott'
p7232
sS'what do you want'
p7233
S'jerrod niemann'
p7234
sS'these words'
p7235
S'natasha bedingfield'
p7236
sS"i'm feeling you"
p7237
S'santana featuring michelle branch & the wreckers'
p7238
sS'piece of me'
p7239
S'britney spears'
p7240
sS'never grow up'
p7241
S'taylor swift'
p7242
sS'izzo (h.o.v.a.)'
p7243
S'jay-z'
p7244
sS"can't believe it"
p7245
S't-pain featuring lil wayne'
p7246
sS'when a woman loves'
p7247
S'r. kelly'
p7248
sS'angels in waiting'
p7249
S'tammy cochran'
p7250
sS'naturally'
p7251
S'selena gomez & the scene'
p7252
sS'what is it'
p7253
S'baby bash featuring sean kingston'
p7254
sS'lost'
p7255
S'gorilla zoe'
p7256
sS'back to december'
p7257
S'taylor swift'
p7258
sS'simple kind of life'
p7259
S'no doubt'
p7260
sS'babylon'
p7261
S'david gray'
p7262
sS'lady is a tramp'
p7263
S'glee cast'
p7264
sS'what goes around...'
p7265
S'justin timberlake'
p7266
sS'come in with the rain'
p7267
S'taylor swift'
p7268
sS'candy'
p7269
S'mandy moore'
p7270
sS'gunpowder & lead'
p7271
S'miranda lambert'
p7272
sS'only in america'
p7273
S'brooks & dunn'
p7274
sS"i'm back"
p7275
S't.i.'
p7276
sS'fatty girl'
p7277
S'ludacris, ll cool j & keith murray'
p7278
sS'do it just like a rockstar'
p7279
S'freak nasty featuring crazy mike'
p7280
sS"comin' to your city"
p7281
S'big & rich'
p7282
sS'in color'
p7283
S'jamey johnson'
p7284
sS'21 guns'
p7285
S'green day'
p7286
sS'alive'
p7287
S'p.o.d.'
p7288
sS'hush'
p7289
S'll cool j featuring 7 aurelius'
p7290
sS'make a wave'
p7291
S"disney's friends for change"
p7292
sS'daylight'
p7293
S'matt & kim'
p7294
sS'big blue note'
p7295
S'toby keith'
p7296
sS'i am not my hair'
p7297
S'india.arie'
p7298
sS'slow jamz'
p7299
S'twista featuring kanye west & jamie foxx'
p7300
sS'home'
p7301
S'glee cast featuring kristin chenoweth'
p7302
sS'your everything'
p7303
S'keith urban'
p7304
sS'little lion man'
p7305
S'mumford & sons'
p7306
sS'falls apart'
p7307
S'sugar ray'
p7308
sS"nobody's perfect"
p7309
S'hannah montana'
p7310
sS"cowgirls don't cry"
p7311
S'brooks & dunn featuring reba mcentire'
p7312
sS'happy xmas (war is over)'
p7313
S'the fray'
p7314
sS'lolli lolli (pop that body)'
p7315
S'three 6 mafia featuring project pat, young d & superpower'
p7316
sS'start the commotion'
p7317
S'the wiseguys'
p7318
sS'learning how to bend'
p7319
S'gary allan'
p7320
sS'shone'
p7321
S'flo rida featuring pleasure p'
p7322
sS'gotta be somebody'
p7323
S'nickelback'
p7324
sS'woohoo'
p7325
S'christina aguilera featuring nicki minaj'
p7326
sS'mad world'
p7327
S'adam lambert'
p7328
sS'clap back'
p7329
S'ja rule'
p7330
sS'speak'
p7331
S'godsmack'
p7332
sS'where do we go from here'
p7333
S'filter'
p7334
sS'blurry'
p7335
S'puddle of mudd'
p7336
sS'how many licks?'
p7337
S"lil' kim featuring sisqo"
p7338
sS'come home soon'
p7339
S'shedaisy'
p7340
sS'flying without wings'
p7341
S'ruben studdard'
p7342
sS'blue (da ba dee)'
p7343
S'eiffel 65'
p7344
sS'your love is my drug'
p7345
S'ke$ha'
p7346
sS"you're the one"
p7347
S'guerilla black featuring mario winans'
p7348
sS'dance with me'
p7349
S'112'
p7350
sS'hey there delilah'
p7351
S"plain white t's"
p7352
sS'luv u better'
p7353
S'll cool j'
p7354
sS'dance, dance'
p7355
S'fall out boy'
p7356
sS'crazy bitch'
p7357
S'buckcherry'
p7358
sS'my sacrifice'
p7359
S'creed'
p7360
sS'how you gonna act like that'
p7361
S'tyrese'
p7362
sS"hate (i really don't like you)"
p7363
S"plain white t's"
p7364
sS'unusually unusual'
p7365
S'lonestar'
p7366
sS'show me how to live'
p7367
S'audioslave'
p7368
sS'no shoes, no shirt, no problems'
p7369
S'kenny chesney'
p7370
sS'freedom'
p7371
S'paul mccartney'
p7372
sS'for all time'
p7373
S'soluna'
p7374
sS'rude boy'
p7375
S'rihanna'
p7376
sS'flake'
p7377
S'jack johnson'
p7378
sS'i go back'
p7379
S'kenny chesney'
p7380
sS'axel f'
p7381
S'crazy frog'
p7382
sS'the time of my life'
p7383
S'david cook'
p7384
sS'rodeo'
p7385
S'juvenile'
p7386
sS"what's wrong with them"
p7387
S'lil wayne featuring nicki minaj'
p7388
sS'love at first sight'
p7389
S'kylie minogue'
p7390
sS'streetcorner symphony'
p7391
S'rob thomas'
p7392
sS'where are you christmas?'
p7393
S'faith hill'
p7394
sS'scott mescudi vs. the world'
p7395
S'kid cudi featuring cee-lo'
p7396
sS"how 'bout them cowgirls"
p7397
S'george strait'
p7398
sS'when i see u'
p7399
S'fantasia'
p7400
sS"don't call me baby"
p7401
S'madison avenue'
p7402
sS'when the last time'
p7403
S'clipse'
p7404
sS"roman's revenge"
p7405
S'nicki minaj featuring eminem'
p7406
sS'are you gonna be my girl'
p7407
S'jet'
p7408
sS'mighty "o"'
p7409
S'outkast'
p7410
sS'the neighbor'
p7411
S'dixie chicks'
p7412
sS'baby boy'
p7413
S'beyonce featuring sean paul'
p7414
sS"it's okay (one blood)"
p7415
S'the game featuring junior reid'
p7416
sS'right now (na na na)'
p7417
S'akon'
p7418
sS'good time'
p7419
S'alan jackson'
p7420
sS'promise'
p7421
S'ciara'
p7422
sS'my sweet lord'
p7423
S'george harrison'
p7424
sS"don't mess with the radio"
p7425
S'nivea'
p7426
sS'the set up'
p7427
S'obie trice featuring nate dogg'
p7428
sS'circle the drain'
p7429
S'katy perry'
p7430
sS'river of love'
p7431
S'george strait'
p7432
sS'swear it again'
p7433
S'westlife'
p7434
sS'boots on'
p7435
S'randy houser'
p7436
sS'1985'
p7437
S'bowling for soup'
p7438
sS'not a day goes by'
p7439
S'lonestar'
p7440
sS'all summer long'
p7441
S'the rock heroes'
p7442
sS'like wow!'
p7443
S'leslie carter'
p7444
sS'f.u.r.b. (f u right back)'
p7445
S'frankee'
p7446
sS"travelin' soldier"
p7447
S'dixie chicks'
p7448
sS'cater 2 u'
p7449
S"destiny's child"
p7450
sS'dynamite'
p7451
S'taio cruz'
p7452
sS'undo it'
p7453
S'carrie underwood'
p7454
sS'laredo'
p7455
S'chris cagle'
p7456
sS'since u been gone'
p7457
S'kelly clarkson'
p7458
sS"jessie's girl"
p7459
S'glee cast'
p7460
sS'shake that sh**'
p7461
S'shawnna featuring ludacris'
p7462
sS'you should ve told me'
p7463
S'kelly price'
p7464
sS"i'm tryin'"
p7465
S'trace adkins'
p7466
sS'dream on'
p7467
S'glee cast featuring neil patrick harris'
p7468
sS'sick of being lonely'
p7469
S'field mob'
p7470
sS'i just wanna be mad'
p7471
S'terri clark'
p7472
sS"you know you're right"
p7473
S'nirvana'
p7474
sS'miss you'
p7475
S'aaliyah'
p7476
sS'why we thugs'
p7477
S'ice cube'
p7478
sS'superwoman'
p7479
S'alicia keys'
p7480
sS'love of my life (an ode to hip hop)'
p7481
S'erykah badu featuring common'
p7482
sS'welcome christmas'
p7483
S'glee cast'
p7484
sS'georgia rain'
p7485
S'trisha yearwood'
p7486
sS'meant to live'
p7487
S'switchfoot'
p7488
sS'dangerous'
p7489
S'kardinal offishall featuring akon'
p7490
sS'soundtrack to your life'
p7491
S'ashley parker angel'
p7492
sS'smooth'
p7493
S'santana featuring rob thomas'
p7494
sS'what do ya think about that'
p7495
S'montgomery gentry'
p7496
sS'sleep on it'
p7497
S'danity kane'
p7498
sS's&m'
p7499
S'rihanna'
p7500
sS"who's that chick?"
p7501
S'david guetta featuring rihanna'
p7502
sS'brand new girlfriend'
p7503
S'steve holy'
p7504
sS'it ends tonight'
p7505
S'the all-american rejects'
p7506
sS'before he cheats'
p7507
S'carrie underwood'
p7508
sS"she's everything"
p7509
S'brad paisley'
p7510
sS'tell her'
p7511
S'lonestar'
p7512
sS"wavin' flag"
p7513
S"k'naan"
p7514
sS'circus'
p7515
S'britney spears'
p7516
sS'in the sun'
p7517
S'michael stipe'
p7518
sS'some cut'
p7519
S'trillville featuring cutty'
p7520
sS'sympathy for the devil'
p7521
S'the rolling stones'
p7522
sS'thugz mansion'
p7523
S'2pac'
p7524
sS"don't matter"
p7525
S'akon'
p7526
sS'kissin u'
p7527
S'miranda cosgrove'
p7528
sS'ice cream paint job'
p7529
S'dorrough'
p7530
sS'corona and lime'
p7531
S'shwayze'
p7532
sS'toca s miracle'
p7533
S'fragma'
p7534
sS'a la primera persona'
p7535
S'alejandro sanz'
p7536
sS"feelin' way too damn good"
p7537
S'nickelback'
p7538
sS'not like the movies'
p7539
S'katy perry'
p7540
sS"can't deny it"
p7541
S'fabolous featuring nate dogg'
p7542
sS'leave right now'
p7543
S'will young'
p7544
sS"i'm really hot"
p7545
S'missy elliott'
p7546
sS'get like me'
p7547
S'david banner featuring chris brown'
p7548
sS'say goodbye'
p7549
S'chris brown'
p7550
sS'give it up to me'
p7551
S'shakira featuring lil wayne'
p7552
sS'for the first time'
p7553
S'the script'
p7554
sS'overprotected'
p7555
S'britney spears'
p7556
sS'more than words'
p7557
S'frankie j'
p7558
sS'good directions'
p7559
S'billy currington'
p7560
sS'the anthem'
p7561
S'pitbull featuring lil jon'
p7562
sS'sick'
p7563
S'new hollow'
p7564
sS"takin' it to the streets"
p7565
S'taylor hicks'
p7566
sS"bitches ain't s**t"
p7567
S'ben folds'
p7568
sS"she'll leave you with a smile"
p7569
S'george strait'
p7570
sS"can't be tamed"
p7571
S'miley cyrus'
p7572
sS'if you don t wanna love me'
p7573
S'tamar'
p7574
sS'ifuleave'
p7575
S'musiq soulchild featuring mary j. blige'
p7576
sS'snow ((hey oh))'
p7577
S'red hot chili peppers'
p7578
sS"lot of leavin' left to do"
p7579
S'dierks bentley'
p7580
sS'gold lion'
p7581
S'yeah yeah yeahs'
p7582
sS'kiss the girl'
p7583
S'ashley tisdale'
p7584
sS'footprints'
p7585
S't.o.k.'
p7586
sS'15 minutes'
p7587
S'marc nelson'
p7588
sS'stay'
p7589
S'miley cyrus'
p7590
sS"i'll be"
p7591
S'reba mcentire'
p7592
sS'anything like me'
p7593
S'brad paisley'
p7594
sS'bring on the rain'
p7595
S'jo dee messina with tim mcgraw'
p7596
sS'stan'
p7597
S'eminem featuring dido'
p7598
sS"let's get away"
p7599
S't.i.'
p7600
sS'gotta get thru this'
p7601
S'daniel bedingfield'
p7602
sS'ch-check it out'
p7603
S'beastie boys'
p7604
sS'wrapped up in you'
p7605
S'garth brooks'
p7606
sS'steady, as she goes'
p7607
S'the raconteurs'
p7608
sS'mr. jones'
p7609
S'mike jones'
p7610
sS'pull over'
p7611
S'trina'
p7612
sS'graduation (friends forever)'
p7613
S'vitamin c'
p7614
sS'tear it up'
p7615
S"yung wun featuring dmx, lil' flip & david banner"
p7616
sS"life's what you make it"
p7617
S'hannah montana'
p7618
sS'just a friend 2002'
p7619
S'mario'
p7620
sS'face down'
p7621
S'the red jumpsuit apparatus'
p7622
sS'ice ice baby'
p7623
S'glee cast'
p7624
sS'lessons learned'
p7625
S'tracy lawrence'
p7626
sS'my immortal'
p7627
S'evanescence'
p7628
sS"don't think i'm not"
p7629
S'kandi'
p7630
sS'little bit of life'
p7631
S'craig morgan'
p7632
sS"g.n.o. (girl's night out)"
p7633
S'miley cyrus'
p7634
sS'he can t love u'
p7635
S'jagged edge'
p7636
sS'(you want to) make a memory'
p7637
S'bon jovi'
p7638
sS'ready to love again'
p7639
S'lady antebellum'
p7640
sS'naggin'
p7641
S'ying yang twins'
p7642
s.