(dp1
S'my side of the bed'
p2
S'susanna hoffs'
p3
sS'happily ever after'
p4
S'case'
p5
sS'desperately wanting'
p6
S'better than ezra'
p7
sS"cruisin'"
p8
S"d'angelo"
p9
sS'who needs pictures'
p10
S'brad paisley'
p11
sS"i'll stand by you"
p12
S'pretenders'
p13
sS'what u see is what u get'
p14
S'xzibit'
p15
sS'children of the night'
p16
S'richard marx'
p17
sS'praise you'
p18
S'fatboy slim'
p19
sS'round and round'
p20
S'tevin campbell'
p21
sS'the one'
p22
S'elton john'
p23
sS'falling in love'
p24
S'new born'
p25
sS'amish paradise'
p26
S'weird al yankovic'
p27
sS'i m gonna be (500 miles)'
p28
S'the proclaimers'
p29
sS'willing to forgive'
p30
S'aretha franklin'
p31
sS'you gotta love someone'
p32
S'elton john'
p33
sS'butt naked'
p34
S'charm'
p35
sS'i had no right'
p36
S'p.m. dawn'
p37
sS'too late, too soon'
p38
S'jon secada'
p39
sS'i m alright'
p40
S'jo dee messina'
p41
sS'three little pigs'
p42
S'green jelly'
p43
sS'bang and blame'
p44
S'r.e.m.'
p45
sS'macarena (bayside boys mix)'
p46
S'los del rio'
p47
sS'another sad love song'
p48
S'toni braxton'
p49
sS'hat 2 da back'
p50
S'tlc'
p51
sS'naked eye'
p52
S'luscious jackson'
p53
sS'ex-factor'
p54
S'lauryn hill'
p55
sS'gotta be'
p56
S'jagged edge'
p57
sS'punks jump up to get beat down'
p58
S'brand nubian'
p59
sS'i m overjoyed'
p60
S'nona gaye'
p61
sS'blues before and after'
p62
S'the smithereens'
p63
sS'sweat (a la la la la long)'
p64
S'inner circle'
p65
sS'think twice'
p66
S'celine dion'
p67
sS'so what cha want'
p68
S'beastie boys'
p69
sS'will you be there (in the morning)'
p70
S'heart'
p71
sS'this used to be my playground'
p72
S'madonna'
p73
sS'get on your feet'
p74
S'gloria estefan'
p75
sS"don't go away"
p76
S'fun factory'
p77
sS'let me let go'
p78
S'faith hill'
p79
sS'the way that you talk'
p80
S'jagged edge featuring da brat & jd'
p81
sS'it doesn t matter'
p82
S'tyler collins'
p83
sS'fat boy'
p84
S'max-a-million'
p85
sS'if u stay ready'
p86
S'suga free'
p87
sS'she s in love'
p88
S'mark wills'
p89
sS'abc-123'
p90
S'levert'
p91
sS'make love like a man'
p92
S'def leppard'
p93
sS'written on ya kitten'
p94
S'naughty by nature'
p95
sS'the arms of orion'
p96
S'prince (with sheena easton)'
p97
sS'betcha ll never find'
p98
S'chantay savage'
p99
sS'we ain t goin  out like that'
p100
S'cypress hill'
p101
sS'movin  on'
p102
S'mya featuring silkk the shocker'
p103
sS'doll parts'
p104
S'hole'
p105
sS"don't be stupid (you know i love you)"
p106
S'shania twain'
p107
sS'melt in your mouth'
p108
S'candyman'
p109
sS'jack-ass'
p110
S'beck'
p111
sS"tell me (i'll be around)"
p112
S'shades'
p113
sS'until your love comes back around'
p114
S'rtz'
p115
sS'follow you down/til i hear it from you'
p116
S'gin blossoms'
p117
sS'she s a bitch'
p118
S'missy "misdemeanor" elliott'
p119
sS'gypsy woman (she s homeless)'
p120
S'crystal waters'
p121
sS'it ain t my fault 1 '
p122
S'silkk the shocker featuring mystikal'
p123
sS'wrong night'
p124
S'reba'
p125
sS'my body says yes'
p126
S'titiyo'
p127
sS'pushin  weight'
p128
S'ice cube featuring mr. short khop'
p129
sS'blue'
p130
S'leann rimes'
p131
sS'what i need'
p132
S'crystal waters'
p133
sS'here we go'
p134
S'funkmaster flex presents khadejia featuring product'
p135
sS'back for good'
p136
S'take that'
p137
sS'if you want it'
p138
S'2nd ii none'
p139
sS'whip appeal'
p140
S'babyface'
p141
sS'shoop shoop (never stop givin  you love)'
p142
S'michael cooper'
p143
sS'shake your bon-bon'
p144
S'ricky martin'
p145
sS'poison'
p146
S'bell biv devoe'
p147
sS'mama, i m coming home'
p148
S'ozzy osbourne'
p149
sS'do you'
p150
S'heather b.'
p151
sS'no diggity'
p152
S'blackstreet (featuring dr. dre)'
p153
sS"what's the frequency, kenneth?"
p154
S'r.e.m.'
p155
sS'the right combination'
p156
S'seiko'
p157
sS'i know'
p158
S'dionne farris'
p159
sS"shadowboxin'"
p160
S'genius/gza featuring method man'
p161
sS'down 4 whateva (from "a low down dirty shame")'
p162
S"nuttin' nyce"
p163
sS'sunny came home'
p164
S'shawn colvin'
p165
sS'rhythm divine'
p166
S'enrique iglesias'
p167
sS"here's your sign (get the picture)"
p168
S'bill engvall with special guest travis tritt'
p169
sS'hero'
p170
S'mariah carey'
p171
sS'the world tonight (from "fathers\' day")'
p172
S'paul mccartney'
p173
sS'supermodel (you better work)'
p174
S'rupaul'
p175
sS'easy come easy go'
p176
S'winger'
p177
sS'shook ones part ii'
p178
S'mobb deep'
p179
sS'the unforgiven ii'
p180
S'metallica'
p181
sS'rise to it'
p182
S'kiss'
p183
sS'girlfriend/boyfriend'
p184
S'blackstreet with janet'
p185
sS'until the end of time'
p186
S'foreigner'
p187
sS'cherry pie'
p188
S'warrant'
p189
sS'my heart is failing me'
p190
S'riff'
p191
sS'wishes (from "kazaam")'
p192
S'nathan morris'
p193
sS"she's a river"
p194
S'simple minds'
p195
sS'the actual'
p196
S'all city'
p197
sS'waiting for love'
p198
S'alias'
p199
sS'hold me'
p200
S'brian mcknight featuring tone'
p201
sS'if that s your boyfriend (he wasn t last night)'
p202
S'meshell ndegeocello'
p203
sS'love is (from "beverly hills, 90210")'
p204
S'vanessa williams/brian mcknight'
p205
sS'when you re gone/free to decide'
p206
S'the cranberries'
p207
sS'the life of riley'
p208
S'lightning seeds'
p209
sS'fa all y all'
p210
S'da brat'
p211
sS'heartbreaker'
p212
S'mariah carey featuring jay-z'
p213
sS'too much information'
p214
S'duran duran'
p215
sS'changes'
p216
S'2pac'
p217
sS'still a g thang'
p218
S'snoop dogg'
p219
sS'when i fall in love (from "sleepless in seattle")'
p220
S'celine dion and clive griffin'
p221
sS'call it rock n  roll'
p222
S'great white'
p223
sS'do da what'
p224
S'1 of the girls'
p225
sS'can t let go'
p226
S'laurnea'
p227
sS'everyotherday'
p228
S'or-n-more (featuring father m.c.)'
p229
sS"da' dip"
p230
S'freak nasty'
p231
sS'diamonds and pearls'
p232
S'prince and the n.p.g.'
p233
sS'violence of summer (love s taking over)'
p234
S'duran duran'
p235
sS'what you give'
p236
S'tesla'
p237
sS'hey now now'
p238
S'swirl 360'
p239
sS'touch me (all night long)'
p240
S'cathy dennis'
p241
sS'hungry'
p242
S'lita ford'
p243
sS'this kiss'
p244
S'faith hill'
p245
sS'live and die for hip hop'
p246
S'kris kross'
p247
sS'hide your heart'
p248
S'kiss'
p249
sS"don't cry"
p250
S'seal'
p251
sS'invisible man'
p252
S'98 degrees'
p253
sS'the way i feel about you'
p254
S'karyn white'
p255
sS'sexy mf'
p256
S'prince and the n.p.g.'
p257
sS'the boomin  system'
p258
S'll cool j'
p259
sS'when a man loves a woman'
p260
S'michael bolton'
p261
sS'raise the roof'
p262
S'luke featuring no good but so good'
p263
sS'breathe'
p264
S'faith hill'
p265
sS'caribbean blue'
p266
S'enya'
p267
sS'smack my bitch up'
p268
S'prodigy'
p269
sS'why must we wait until tonight'
p270
S'tina turner'
p271
sS'enjoy the silence'
p272
S'depeche mode'
p273
sS'nobody knows'
p274
S'the tony rich project'
p275
sS'can u get wit it'
p276
S'usher'
p277
sS'smile'
p278
S'lonestar'
p279
sS'another minute'
p280
S'cause'
p281
sS'missunderstanding'
p282
S'al b. sure!'
p283
sS'jimmy olsen s blues'
p284
S'spin doctors'
p285
sS'fields of gold'
p286
S'sting'
p287
sS'shoop'
p288
S'salt-n-pepa'
p289
sS'ooh aah... just a little bit'
p290
S'gina g'
p291
sS'not enough'
p292
S'van halen'
p293
sS'anything but down'
p294
S'sheryl crow'
p295
sS'who got the props'
p296
S'black moon'
p297
sS'sprinkle me'
p298
S'e-40 (featuring suga t)'
p299
sS'church of your heart'
p300
S'roxette'
p301
sS'forever in your eyes'
p302
S'mint condition'
p303
sS'angel in disguise'
p304
S'brandy'
p305
sS'runaway train'
p306
S'soul asylum'
p307
sS'you remind me of something'
p308
S'r. kelly'
p309
sS'sometimes always'
p310
S'the jesus and mary chain'
p311
sS'under the water'
p312
S'merril bainbridge'
p313
sS'hey mr. d.j.'
p314
S'zhane'
p315
sS'no place that far'
p316
S'sara evans'
p317
sS'praying for time'
p318
S'george michael'
p319
sS'pictures of you'
p320
S'the cure'
p321
sS'a mover la colita'
p322
S'artie the 1 man party'
p323
sS'will you marry me?'
p324
S'paula abdul'
p325
sS'can t get enough of your love'
p326
S'taylor dayne'
p327
sS"ain't that just the way"
p328
S'lutricia mcneal'
p329
sS'let me clear my throat'
p330
S'dj kool'
p331
sS'we trying to stay alive'
p332
S'wyclef jean featuring refugee allstars'
p333
sS'paparazzi'
p334
S'xzibit'
p335
sS'honey'
p336
S'mariah carey'
p337
sS'something s goin  on'
p338
S'u.n.v.'
p339
sS'the fly'
p340
S'u2'
p341
sS'almost unreal (from "super mario bros.")'
p342
S'roxette'
p343
sS'glaciers of ice/criminology'
p344
S'chef raekwon'
p345
sS'unforgettable'
p346
S'natalie cole'
p347
sS'mr. vain'
p348
S'culture beat'
p349
sS'holy water'
p350
S'bad company'
p351
sS'back to the hotel'
p352
S'n2deep'
p353
sS'undone - the sweater song'
p354
S'weezer'
p355
sS'don t say goodbye girl'
p356
S'tevin campbell'
p357
sS'rosealia'
p358
S'better than ezra'
p359
sS'i wish'
p360
S'skee-lo'
p361
sS'amazing'
p362
S'aerosmith'
p363
sS'spend my life with you'
p364
S'eric benet featuring tamia'
p365
sS'across the river'
p366
S'bruce hornsby'
p367
sS"you're still the one"
p368
S'shania twain'
p369
sS'kitty kitty'
p370
S'69 boyz'
p371
sS'if'
p372
S'janet jackson'
p373
sS'sleeping with you'
p374
S'firehouse'
p375
sS'i will be here for you'
p376
S'michael w. smith'
p377
sS'hold me, thrill me, kiss me, kill me (from "batman forever")'
p378
S'u2'
p379
sS'and our feelings'
p380
S'babyface'
p381
sS'beauty'
p382
S'dru hill'
p383
sS'my way'
p384
S'usher'
p385
sS'even better than the real thing'
p386
S'u2'
p387
sS"don't take it personal (just one of dem days)"
p388
S'monica'
p389
sS'i do [cherish you]'
p390
S'mark wills'
p391
sS'a day in my life (without you)'
p392
S'lisette melendez'
p393
sS'i saw red'
p394
S'warrant'
p395
sS'adia'
p396
S'sarah mclachlan'
p397
sS'wrong'
p398
S'everything but the girl'
p399
sS'if i could turn back the hands of time'
p400
S'r. kelly'
p401
sS'notorious b.i.g.'
p402
S"the notorious b.i.g. featuring puff daddy & lil' kim"
p403
sS'i finally found someone (from "the mirror has two faces")'
p404
S'barbra streisand & bryan adams'
p405
sS'the secret of life'
p406
S'faith hill'
p407
sS'electric relaxation (relax yourself girl)'
p408
S'a tribe called quest'
p409
sS'cell therapy'
p410
S'goodie mob.'
p411
sS'the devil came up to michigan'
p412
S'k.m.c. kru'
p413
sS'love gets me every time'
p414
S'shania twain'
p415
sS'i missed the bus'
p416
S'kris kross'
p417
sS'kiss me'
p418
S'sixpence none the richer'
p419
sS'wink'
p420
S'neal mccoy'
p421
sS'real love'
p422
S'the beatles'
p423
sS'goodbye'
p424
S'spice girls'
p425
sS'given to fly'
p426
S'pearl jam'
p427
sS"how's it going to be"
p428
S'third eye blind'
p429
sS'love the way'
p430
S'eol'
p431
sS'boom! i got your boyfriend'
p432
S'mc luscious'
p433
sS'send me an angel'
p434
S'scorpions'
p435
sS'i see your smile'
p436
S'gloria estefan'
p437
sS'she s gone (lady)'
p438
S'steelheart'
p439
sS'you don t have to love me'
p440
S'monifah'
p441
sS'stay the same'
p442
S'joey mcintyre'
p443
sS'choose'
p444
S'color me badd'
p445
sS'here we are'
p446
S'gloria estefan'
p447
sS'set me free'
p448
S'clubland featuring zemya hamilton'
p449
sS'losin  myself'
p450
S'debbie gibson'
p451
sS'u know what s up'
p452
S'donell jones'
p453
sS'anything is possible'
p454
S'debbie gibson'
p455
sS'just because i love you'
p456
S'lina santiago'
p457
sS'you make me wanna...'
p458
S'usher'
p459
sS'dreamer'
p460
S"livin' joy"
p461
sS'beyond the invisible'
p462
S'enigma'
p463
sS'still po  pimpin '
p464
S'do or die featuring johnny p'
p465
sS'if u were mine'
p466
S'the u-krew'
p467
sS'bow wow wow'
p468
S'funkdoobiest'
p469
sS'full of smoke'
p470
S'christion'
p471
sS'fix'
p472
S"blackstreet with special guests ol' dirty bastard & slash"
p473
sS'woman to woman'
p474
S'jewell'
p475
sS'i want you back'
p476
S"'n sync"
p477
sS'unchained melody'
p478
S'righteous brothers'
p479
sS'freak out'
p480
S'nutta butta featuring teddy riley and anonymous'
p481
sS'broken arrow'
p482
S'rod stewart'
p483
sS'what s it gonna be?!'
p484
S'busta rhymes featuring janet'
p485
sS'let me return the favor'
p486
S'andrea martin'
p487
sS'friends of p.'
p488
S'the rentals'
p489
sS'setting sun'
p490
S'chemical brothers'
p491
sS'the sound of your voice'
p492
S'38 special'
p493
sS'silent lucidity'
p494
S'queensryche'
p495
sS'here it comes'
p496
S'mc serch'
p497
sS'tick tock'
p498
S'vaughan brothers'
p499
sS'crazy love'
p500
S'cece peniston'
p501
sS'i wanna sex you up (from "new jack city")'
p502
S'color me badd'
p503
sS'method man'
p504
S'wu-tang clan'
p505
sS'ever since you went away'
p506
S"art n' soul"
p507
sS"kissin' you"
p508
S'total'
p509
sS'your song'
p510
S'rod stewart'
p511
sS'tonight, tonight'
p512
S'the smashing pumpkins'
p513
sS'how do i deal'
p514
S'jennifer love hewitt'
p515
sS'the star spangled banner'
p516
S'whitney houston'
p517
sS'the one and only'
p518
S'chesney hawkes'
p519
sS'would i lie to you?'
p520
S'charles'
p521
sS'cheers 2 u'
p522
S'playa'
p523
sS'real hip hop'
p524
S'das efx'
p525
sS'oh girl'
p526
S'paul young'
p527
sS'boombastic/in the summertime'
p528
S'shaggy'
p529
sS'a deeper love (from "sister act 2")'
p530
S'aretha franklin'
p531
sS'victory'
p532
S'puff daddy'
p533
sS'theme from mission: impossible (from "mission: impossible")'
p534
S'adam clayton & larry mullen'
p535
sS'the globe'
p536
S'big audio'
p537
sS'something like that'
p538
S'tim mcgraw'
p539
sS'tic toc'
p540
S'lords of the underground'
p541
sS'the unforgiven'
p542
S'metallica'
p543
sS'can t help myself'
p544
S'gerald levert'
p545
sS'we can t be friends'
p546
S'deborah cox with r.l.'
p547
sS'i want it all'
p548
S'warren g featuring mack 10'
p549
sS'here we go again!'
p550
S'portrait'
p551
sS'just be straight with me'
p552
S'silkk the shocker featuring master p, destiny s child, o dell, mo'
p553
sS'keep on walkin '
p554
S'cece peniston'
p555
sS'forever more'
p556
S'puff johnson'
p557
sS'blind faith'
p558
S'warrant'
p559
sS'spin the bottle (from "reality bites")'
p560
S'the juliana hatfield 3'
p561
sS'i need to know'
p562
S'marc anthony'
p563
sS'love gets rough'
p564
S'troy newman'
p565
sS'colour of love'
p566
S'amber'
p567
sS'love on a rooftop'
p568
S'desmond child'
p569
sS'money, power & respect'
p570
S"the lox [featuring dmx & lil' kim]"
p571
sS'mother s pride'
p572
S'george michael'
p573
sS'what\'s love got to do with it (from "supercop")'
p574
S'warren g featuring adina howard'
p575
sS'don t let the sun go down on me'
p576
S'george michael/elton john'
p577
sS'you get what you give'
p578
S'new radicals'
p579
sS'what you want'
p580
S'mase featuring total'
p581
sS'washed away'
p582
S'tom cochrane'
p583
sS'how s it going to be'
p584
S'third eye blind'
p585
sS'laid'
p586
S'james'
p587
sS'victim of the ghetto'
p588
S'the college boyz'
p589
sS'you light up my life'
p590
S'leann rimes'
p591
sS"but it's alright"
p592
S'huey lewis & the news'
p593
sS'ninety nine [flash the message]'
p594
S'john forte'
p595
sS'i apologize'
p596
S'anita baker'
p597
sS'none of your business'
p598
S'salt-n-pepa'
p599
sS'comedown'
p600
S'bush'
p601
sS'it\'s all the way live (now) (from "eddie")'
p602
S'coolio'
p603
sS'don t know much'
p604
S'linda ronstadt (featuring aaron neville)'
p605
sS'hold on my heart'
p606
S'genesis'
p607
sS'like i do'
p608
S'for real'
p609
sS"you don't have to hurt no more"
p610
S'mint condition'
p611
sS'free'
p612
S'ultra nate'
p613
sS"please don't go"
p614
S'no mercy'
p615
sS'you don t love me (no, no, no)'
p616
S'dawn penn'
p617
sS'four leaf clover'
p618
S'abra moore'
p619
sS'i wanna love you forever'
p620
S'jessica simpson'
p621
sS'westside'
p622
S'tq'
p623
sS'a thin line between love & hate (from "a thin line...")'
p624
S'h-town'
p625
sS'heaven in the back seat'
p626
S'eddie money'
p627
sS'write this down'
p628
S'george strait'
p629
sS'baby i m for real/natural high'
p630
S'after 7'
p631
sS'if you could read my mind'
p632
S'stars on 54: ultra nate, amber, jocelyn enriquez'
p633
sS'feel the music'
p634
S'planet soul featuring brenda dee'
p635
sS'can\'t help falling in love (from "sliver")'
p636
S'ub40'
p637
sS'the most beautiful girl in the world'
p638
S'prince'
p639
sS'never make a promise'
p640
S'dru hill'
p641
sS'let s go through the motions (from "who s the man?")'
p642
S'jodeci'
p643
sS'if you needed somebody'
p644
S'bad company'
p645
sS'boom biddy bye bye'
p646
S'cypress hill'
p647
sS'mouth'
p648
S'merril bainbridge'
p649
sS'same ol  situation (s.o.s.)'
p650
S'motley crue'
p651
sS'just for tonight'
p652
S'vanessa williams'
p653
sS'angelia'
p654
S'richard marx'
p655
sS'get away'
p656
S'bobby brown'
p657
sS'cold shower'
p658
S'erin cruise'
p659
sS'romeo and juliet'
p660
S'sylk-e. fyne featuring chill'
p661
sS'digging in the dirt'
p662
S'peter gabriel'
p663
sS'i believe'
p664
S'blessid union of souls'
p665
sS'hook'
p666
S'blues traveler'
p667
sS'2 become 1'
p668
S'spice girls'
p669
sS'watch for the hook'
p670
S'cool breeze featuring outkast, goodie mob'
p671
sS'delicious'
p672
S'pure sugar'
p673
sS'comforter'
p674
S'shai'
p675
sS'just another dream'
p676
S'cathy dennis'
p677
sS'another you, another me'
p678
S'brady seals'
p679
sS'in the heart of a woman'
p680
S'billy ray cyrus'
p681
sS'discotheque'
p682
S'u2'
p683
sS'that s the way love is'
p684
S'bobby brown'
p685
sS'lost in you'
p686
S'garth brooks as chris gaines'
p687
sS'touch myself (from "fled")'
p688
S't-boz'
p689
sS'what s my name?'
p690
S'snoop doggy dogg'
p691
sS'i can t make you love me'
p692
S'bonnie raitt'
p693
sS'twisted'
p694
S'keith sweat'
p695
sS'stranger in my mirror'
p696
S'randy travis'
p697
sS'lift me up'
p698
S'howard jones'
p699
sS"santa's a fat bitch"
p700
S'insane clown posse'
p701
sS'goody goody'
p702
S'lisette melendez'
p703
sS"i'll be there for you/this house is not a home"
p704
S'the rembrandts'
p705
sS'maybe not tonight'
p706
S'sammy kershaw'
p707
sS'firestarter'
p708
S'prodigy'
p709
sS'listen'
p710
S'collective soul'
p711
sS'i won t give up on you'
p712
S'tka'
p713
sS'endless love'
p714
S'luther vandross & mariah carey'
p715
sS'as long as it matters'
p716
S'gin blossoms'
p717
sS'skat strut'
p718
S'mc skat kat'
p719
sS"i'm not a player"
p720
S'big punisher'
p721
sS'i m dreamin  (from "new jack city")'
p722
S'christopher williams'
p723
sS"5 o'clock"
p724
S'nonchalant'
p725
sS'take your time (do it right)'
p726
S'max-a-million'
p727
sS'feel so good'
p728
S'mase'
p729
sS'you used to love me'
p730
S'faith evans'
p731
sS'mega medley'
p732
S'zapp & roger'
p733
sS'red light special'
p734
S'tlc'
p735
sS'within my heart'
p736
S'voyce'
p737
sS"you're the one"
p738
S'swv'
p739
sS'opposites attract'
p740
S'paula abdul (duet with the wild pair)'
p741
sS'when can i see you'
p742
S'babyface'
p743
sS'get ready to bounce'
p744
S'brooklyn bounce'
p745
sS'southern gul'
p746
S'erykah badu featuring rahzel'
p747
sS'pink cashmere'
p748
S'prince'
p749
sS'she s so high'
p750
S'tal bachman'
p751
sS'that s the way love goes'
p752
S'janet jackson'
p753
sS'the dolphin s cry'
p754
S'live'
p755
sS"i'm from the country"
p756
S'tracy byrd'
p757
sS'helluva'
p758
S'brotherhood creed'
p759
sS'i love you period'
p760
S'dan baird'
p761
sS'inside out'
p762
S'eve 6'
p763
sS'too many walls'
p764
S'cathy dennis'
p765
sS"i'm not feeling you"
p766
S'yvette michele'
p767
sS'bang bang'
p768
S'david sanborn'
p769
sS'on & on'
p770
S'erykah badu'
p771
sS'lost in your eyes'
p772
S'the jeff healey band'
p773
sS'we like to party!'
p774
S'vengaboys'
p775
sS'talk to me'
p776
S'wild orchid'
p777
sS'it ain t over  til it s over'
p778
S'lenny kravitz'
p779
sS"we're not making love no more"
p780
S'dru hill'
p781
sS'my love is the shhh!'
p782
S"somethin' for the people featuring trina & tamara"
p783
sS'going home'
p784
S'kenny g'
p785
sS'everybody s free (to wear sunscreen)'
p786
S'baz luhrmann'
p787
sS'bittersweet me'
p788
S'r.e.m.'
p789
sS'sad new day'
p790
S'me phi me'
p791
sS'stand up (kick love into motion)'
p792
S'def leppard'
p793
sS'my name is'
p794
S'eminem'
p795
sS'kiss this thing goodbye'
p796
S'del amitri'
p797
sS'only one road'
p798
S'celine dion'
p799
sS'i ll be missing you'
p800
S'puff daddy'
p801
sS'john deere green'
p802
S'joe diffie'
p803
sS'young, sad and blue'
p804
S'lysette'
p805
sS'addams family (whoomp!)'
p806
S'tag team'
p807
sS"i'll be around"
p808
S"rappin' 4-tay featuring the spinners"
p809
sS'nobody'
p810
S'keith sweat featuring athena cage'
p811
sS'the morning papers'
p812
S'prince and the new power generation'
p813
sS'touch me tease me (from "the nutty professor")'
p814
S'case featuring foxxy brown'
p815
sS'grandma got run over by a reindeer'
p816
S'elmo & patsy'
p817
sS'everything s changed'
p818
S'lonestar'
p819
sS'hypnotize'
p820
S'the notorious b.i.g.'
p821
sS'how deep is your love'
p822
S'dru hill featuring redman'
p823
sS'universal heart-beat'
p824
S'juliana hatfield'
p825
sS"93 'til infinity"
p826
S'souls of mischief'
p827
sS'dr. greenthumb'
p828
S'cypress hill'
p829
sS'i should cheat on you'
p830
S'j son'
p831
sS'ghetto supastar (that is what you are)'
p832
S"pras michel feat. ol' dirty bastard & introducing mya"
p833
sS'nothing else matters'
p834
S'metallica'
p835
sS'jus lyke compton'
p836
S'dj quik'
p837
sS'without you/never forget you'
p838
S'mariah carey'
p839
sS'jeremy/yellow ledbetter'
p840
S'pearl jam'
p841
sS'the rockafeller skank'
p842
S'fatboy slim'
p843
sS"don't stop movin'"
p844
S"livin' joy"
p845
sS"it's your body"
p846
S'johnny gill featuring roger troutman'
p847
sS'tom s diner'
p848
S'dna featuring suzanne vega'
p849
sS'how much is enough'
p850
S'the fixx'
p851
sS"jimmy olsen's blues"
p852
S'spin doctors'
p853
sS'rub you the right way'
p854
S'johnny gill'
p855
sS'almost home'
p856
S'mary chapin carpenter'
p857
sS'principal s office'
p858
S'young mc'
p859
sS'stay the night'
p860
S'imx'
p861
sS'everybody plays the fool'
p862
S'aaron neville'
p863
sS"jackie's strength"
p864
S'tori amos'
p865
sS'cheated (to all the girls)'
p866
S'wyclef jean featuring queen pen & the product'
p867
sS'she s always right'
p868
S'clay walker'
p869
sS'fields of gray'
p870
S'bruce hornsby'
p871
sS'lucas with the lid off'
p872
S'lucas'
p873
sS'fading like a flower (every time you leave)'
p874
S'roxette'
p875
sS'love ain t like that'
p876
S'faith hill'
p877
sS'shot of poison'
p878
S'lita ford'
p879
sS'tequila'
p880
S'a.l.t. and the lost civilization'
p881
sS'joyride'
p882
S'roxette'
p883
sS'time after time'
p884
S'inoj'
p885
sS'(it s just) the way that you love me'
p886
S'paula abdul'
p887
sS'the first night'
p888
S'monica'
p889
sS'give it away'
p890
S'red hot chili peppers'
p891
sS"we've got it goin' on"
p892
S'backstreet boys'
p893
sS'shake it (like a white girl)'
p894
S'jesse jaymes'
p895
sS'exclusivity'
p896
S'damian dame'
p897
sS'rebirth of slick (cool like dat)'
p898
S'digable planets'
p899
sS'it s my cadillac (got that bass)'
p900
S'mc nas-d'
p901
sS'every little thing u do'
p902
S'christopher williams'
p903
sS'finally'
p904
S'cece peniston'
p905
sS'cradle of love (from "ford fairlane")'
p906
S'billy idol'
p907
sS'lights'
p908
S'journey'
p909
sS'nobody wins in this war'
p910
S'mitch malloy'
p911
sS'too much passion'
p912
S'the smithereens'
p913
sS'cupid'
p914
S'112'
p915
sS'really doe'
p916
S'ice cube'
p917
sS'bliss'
p918
S'tori amos'
p919
sS'flow joe'
p920
S'fat joe'
p921
sS'gangsta'
p922
S'bell biv devoe'
p923
sS'deep, deep trouble'
p924
S'the simpsons featuring bart'
p925
sS'watch out now'
p926
S'the beatnuts featuring yellaklaw'
p927
sS"real muthaphuckkin g's"
p928
S'eazy-e'
p929
sS'all for love'
p930
S'bryan adams/rod stewart/sting'
p931
sS'how about that'
p932
S'bad company'
p933
sS'turn it up [remix]/fire it up'
p934
S'busta rhymes'
p935
sS"still po' pimpin'"
p936
S'do or die featuring johnny p & twista'
p937
sS'stop'
p938
S'spice girls'
p939
sS"how's it goin' down"
p940
S'dmx featuring faith evans'
p941
sS'groove is in the heart'
p942
S'deee-lite'
p943
sS'i ll stand by you'
p944
S'pretenders'
p945
sS'body & soul'
p946
S'anita baker'
p947
sS'no more rain (in this cloud)'
p948
S'angie stone'
p949
sS"you don't have to love me"
p950
S'monifah'
p951
sS'bad love'
p952
S'eric clapton'
p953
sS'without love'
p954
S'donna lewis'
p955
sS'how could you (from "bulletproof")'
p956
S'k-ci'
p957
sS'you won t see me cry'
p958
S'wilson phillips'
p959
sS'ain t gonna hurt nobody'
p960
S'kid  n play'
p961
sS'step it up'
p962
S'stereo mc s'
p963
sS'see the lights'
p964
S'simple minds'
p965
sS'written in the stars'
p966
S'elton john'
p967
sS'all about soul'
p968
S'billy joel'
p969
sS'on my own'
p970
S'peach union'
p971
sS'get serious'
p972
S'cut  n  move'
p973
sS'c mon and get my love'
p974
S'd-mob with cathy dennis'
p975
sS'not about romance'
p976
S'inner circle'
p977
sS'when we dance'
p978
S'sting'
p979
sS'wishing on a star'
p980
S'the cover girls'
p981
sS'where i wanna be boy'
p982
S'missjones'
p983
sS'something to believe in'
p984
S'poison'
p985
sS'steam'
p986
S'ty herndon'
p987
sS"what's stopping you"
p988
S"the o'jays"
p989
sS'relax & party'
p990
S'ivory'
p991
sS'regulate (from "above the rim")'
p992
S'warren g'
p993
sS"can't cry anymore"
p994
S'sheryl crow'
p995
sS'get your groove on (from "baps")'
p996
S'gyrl'
p997
sS'rubberband girl'
p998
S'kate bush'
p999
sS'sensitivity'
p1000
S'ralph tresvant'
p1001
sS'cruel summer'
p1002
S'ace of base'
p1003
sS'return to innocence'
p1004
S'enigma'
p1005
sS'can i stay with you'
p1006
S'karyn white'
p1007
sS'a man holdin  on (to a woman lettin  go)'
p1008
S'ty herndon'
p1009
sS'are you jimmy ray?'
p1010
S'jimmy ray'
p1011
sS'only my heart talkin '
p1012
S'alice cooper'
p1013
sS'sweet sensual love'
p1014
S'big mountain'
p1015
sS'(now you see me) now you don t'
p1016
S'lee ann womack'
p1017
sS'every day of the week'
p1018
S'jade'
p1019
sS'always the last to know'
p1020
S'del amitri'
p1021
sS'for the cool in you'
p1022
S'babyface'
p1023
sS'temptation'
p1024
S'corina'
p1025
sS'whatuon'
p1026
S'latanya featuring twista'
p1027
sS'move right out'
p1028
S'rick astley'
p1029
sS'feels good'
p1030
S'tony toni tone'
p1031
sS'i wanna be your girl'
p1032
S'icy blu'
p1033
sS"you won't forget me"
p1034
S'la bouche'
p1035
sS'back 2 good'
p1036
S'matchbox 20'
p1037
sS'pets'
p1038
S'porno for pyros'
p1039
sS'funky y-2-c'
p1040
S'the puppies'
p1041
sS'get with u'
p1042
S'lidell townsell'
p1043
sS'now you re gone'
p1044
S'whitesnake'
p1045
sS'i ll take you there'
p1046
S'bebe'
p1047
sS'voice of freedom'
p1048
S'freedom williams'
p1049
sS'love is the ritual'
p1050
S'styx'
p1051
sS'love you all my lifetime'
p1052
S'chaka khan'
p1053
sS'weak'
p1054
S'swv'
p1055
sS'mama said knock you out'
p1056
S'll cool j'
p1057
sS'gitty up'
p1058
S'salt-n-pepa'
p1059
sS'2 legit 2 quit'
p1060
S'm.c. hammer'
p1061
sS'banned in the u.s.a.'
p1062
S'luke featuring the 2 live crew'
p1063
sS'all i m missing is you'
p1064
S'glenn medeiros featuring ray parker, jr.'
p1065
sS'a deeper love/pride (in the name of love)'
p1066
S'clivilles'
p1067
sS'anyone else'
p1068
S'collin raye'
p1069
sS'i m not in love'
p1070
S'will to power'
p1071
sS'how forever feels'
p1072
S'kenny chesney'
p1073
sS'love no limit'
p1074
S'mary j. blige'
p1075
sS'whoomp! (there it went)'
p1076
S'tag team, mickey, minnie, and goofy'
p1077
sS'give it up'
p1078
S'public enemy'
p1079
sS"i'd rather be alone"
p1080
S'iv xample'
p1081
sS'my up and down'
p1082
S'adina howard'
p1083
sS'whatcha gonna do with my lovin '
p1084
S'inner city'
p1085
sS'escapade'
p1086
S'janet jackson'
p1087
sS'(everything i do) i do it for you (from "robin hood")'
p1088
S'bryan adams'
p1089
sS'dance into the light'
p1090
S'phil collins'
p1091
sS'think of you'
p1092
S'usher'
p1093
sS'can\'t you see (from "new jersey drive")'
p1094
S'total feat. the notorious b.i.g.'
p1095
sS'juice (know the ledge)'
p1096
S'eric b.'
p1097
sS"i'd lie for you (and that's the truth)"
p1098
S'meat loaf'
p1099
sS'who s gonna ride your wild horses'
p1100
S'u2'
p1101
sS'lullaby'
p1102
S'shawn mullins'
p1103
sS'where does my heart beat now'
p1104
S'celine dion'
p1105
sS'mmm mmm mmm mmm'
p1106
S'crash test dummies'
p1107
sS'did i shave my legs for this?'
p1108
S'deana carter'
p1109
sS'love s taken over'
p1110
S'chante moore'
p1111
sS"can't knock the hustle"
p1112
S'jay-z'
p1113
sS'don t walk away'
p1114
S'jade'
p1115
sS'one night stand'
p1116
S'j-shin featuring latocha scott'
p1117
sS'precious declaration'
p1118
S'collective soul'
p1119
sS'husbands and wives'
p1120
S'brooks'
p1121
sS'ease my mind'
p1122
S'arrested development'
p1123
sS"if you think i'm jiggy"
p1124
S'the lox'
p1125
sS'guys do it all the time'
p1126
S'mindy mccready'
p1127
sS'counting blue cars'
p1128
S'dishwalla'
p1129
sS'tarzan boy (from "teenage mutant ninja turtles iii")'
p1130
S'baltimora'
p1131
sS'it s all about u'
p1132
S'swv'
p1133
sS'doo doo brown'
p1134
S'2 hyped brothers'
p1135
sS'thank god i found you'
p1136
S'mariah carey featuring joe & 98 degrees'
p1137
sS'vision of love'
p1138
S'mariah carey'
p1139
sS'you were mine'
p1140
S'dixie chicks'
p1141
sS"everything's gonna be alright"
p1142
S'sweetbox'
p1143
sS'wu-wear: the garment renaissance (from "high school high")'
p1144
S'rza feat. method man & cappadonna'
p1145
sS'you put a move on my heart'
p1146
S'quincy jones introducing tamia'
p1147
sS'i get around'
p1148
S'2pac'
p1149
sS'only wanna be with you'
p1150
S'hootie & the blowfish'
p1151
sS'key west intermezzo (i saw you first)'
p1152
S'john mellencamp'
p1153
sS"that's right"
p1154
S'dj taz featuring raheem the dream'
p1155
sS'just like jesse james'
p1156
S'cher'
p1157
sS"body bumpin' yippie-yi-yo"
p1158
S'public announcement'
p1159
sS'life'
p1160
S'k-ci'
p1161
sS'innocent'
p1162
S'the whispers'
p1163
sS'dre day'
p1164
S'dr. dre'
p1165
sS'sunshine'
p1166
S'coko'
p1167
sS'everyone falls in love'
p1168
S'tanto metro'
p1169
sS'breakin  my heart (pretty brown eyes)'
p1170
S'mint condition'
p1171
sS'gotta get mine'
p1172
S'm.c. breed'
p1173
sS'baby luv'
p1174
S'groove theory'
p1175
sS'unskinny bop'
p1176
S'poison'
p1177
sS'she don t use jelly'
p1178
S'the flaming lips'
p1179
sS'grapevyne'
p1180
S'brownstone'
p1181
sS'that s how it is (it s like that)'
p1182
S'redman featuring k-solo'
p1183
sS'i wish it would rain down'
p1184
S'phil collins'
p1185
sS'big daddy'
p1186
S'heavy d'
p1187
sS"you'll be mine (party time)"
p1188
S'gloria estefan'
p1189
sS'everything changes'
p1190
S'kathy troccoli'
p1191
sS"ridin' low"
p1192
S'l.a.d.'
p1193
sS'your body s callin '
p1194
S'r. kelly'
p1195
sS'jealous again'
p1196
S'the black crowes'
p1197
sS'who am i'
p1198
S'beenie man'
p1199
sS'word to the badd!!'
p1200
S'jermaine jackson'
p1201
sS'tryin  to get over you'
p1202
S'vince gill'
p1203
sS'down low (nobody has to know)'
p1204
S'r. kelly featuring ronald isley'
p1205
sS'all n my grill'
p1206
S'missy "misdemeanor" elliott featuring big boi'
p1207
sS"somethin' 4 da honeyz"
p1208
S'montell jordan'
p1209
sS"tucker's town"
p1210
S'hootie & the blowfish'
p1211
sS'dancehall queen (from "dancehall queen")'
p1212
S'beenie man featuring chevelle franklyn'
p1213
sS'this is the last time'
p1214
S'laura enea'
p1215
sS'dirty love'
p1216
S'thunder'
p1217
sS'you re the only woman'
p1218
S'the brat pack'
p1219
sS'somebody love me'
p1220
S'michael w. smith'
p1221
sS'summer girls'
p1222
S'lfo'
p1223
sS'the way it is'
p1224
S'tesla'
p1225
sS'getting away with it'
p1226
S'electronic'
p1227
sS'when i give my love'
p1228
S'keith sweat'
p1229
sS"i'm the only one"
p1230
S'melissa etheridge'
p1231
sS'every light in the house'
p1232
S'trace adkins'
p1233
sS"never alone (eeyore's lullaby)"
p1234
S'tyler collins'
p1235
sS'make it like it was'
p1236
S'regina belle'
p1237
sS"tonight's the night"
p1238
S'blackstreet'
p1239
sS'p.a.s.s.i.o.n.'
p1240
S'rhythm syndicate'
p1241
sS'girls '
p1242
S'blur'
p1243
sS'disappear'
p1244
S'inxs'
p1245
sS'take it to heart'
p1246
S'michael mcdonald'
p1247
sS'the chanukah song'
p1248
S'adam sandler'
p1249
sS'nika'
p1250
S'vicious'
p1251
sS'hip hop drunkies'
p1252
S"tha alkaholiks featuring ol' dirty bastard"
p1253
sS'go the distance (from "hercules")'
p1254
S'michael bolton'
p1255
sS'a rose is still a rose'
p1256
S'aretha franklin'
p1257
sS'back seat (of my jeep)'
p1258
S'll cool j'
p1259
sS'under the bridge'
p1260
S'red hot chili peppers'
p1261
sS'sad but true'
p1262
S'metallica'
p1263
sS'i wonder if heaven got a ghetto'
p1264
S'2pac'
p1265
sS'bitter sweet symphony'
p1266
S'the verve'
p1267
sS'toss-up'
p1268
S'n2deep'
p1269
sS'nappy heads'
p1270
S'fugees'
p1271
sS'lithium'
p1272
S'nirvana'
p1273
sS'the world i know'
p1274
S'collective soul'
p1275
sS'stone cold gentleman'
p1276
S'ralph tresvant'
p1277
sS'good vibrations'
p1278
S'marky mark & the funky bunch featuring loleatta holloway'
p1279
sS"me and those dreamin' eyes of mine"
p1280
S"d'angelo"
p1281
sS'i don t wanna fight (from "what s love got to do with it")'
p1282
S'tina turner'
p1283
sS'blue on black'
p1284
S'kenny wayne shepherd band'
p1285
sS'rain'
p1286
S'swv'
p1287
sS'when i m back on my feet again'
p1288
S'michael bolton'
p1289
sS'supa star'
p1290
S'group home'
p1291
sS'never 2 much of u'
p1292
S'dino'
p1293
sS'i live by the groove'
p1294
S'paul carrack'
p1295
sS'jealous'
p1296
S'gene loves jezebel'
p1297
sS'girls nite out'
p1298
S'tyler collins'
p1299
sS'chasin  the wind'
p1300
S'chicago'
p1301
sS'you ll be in my heart'
p1302
S'phil collins'
p1303
sS'i believe in you and me (from "the preacher s wife")'
p1304
S'whitney houston'
p1305
sS'try a little tenderness'
p1306
S'the commitments'
p1307
sS'kiss you all over'
p1308
S'no mercy'
p1309
sS'1979'
p1310
S'the smashing pumpkins'
p1311
sS'do you believe in us'
p1312
S'jon secada'
p1313
sS'mint car'
p1314
S'the cure'
p1315
sS'peace of mind (love goes on)'
p1316
S'one 2 one'
p1317
sS'perfect world'
p1318
S'alias'
p1319
sS'mr. ice cream man'
p1320
S'master p'
p1321
sS'stupid girl'
p1322
S'garbage'
p1323
sS'808'
p1324
S'blaque'
p1325
sS'nothing compares 2 u'
p1326
S'sinead o connor'
p1327
sS'shame (from "a low down dirty shame")'
p1328
S'zhane'
p1329
sS'everything is everything'
p1330
S'lauryn hill'
p1331
sS'can i call you my girl'
p1332
S'pc quest'
p1333
sS'summer vacation'
p1334
S'the party'
p1335
sS'yours'
p1336
S'shai'
p1337
sS'if you had my love'
p1338
S'jennifer lopez'
p1339
sS'luchini aka (this is it)'
p1340
S'camp lo'
p1341
sS"ain't no nigga/dead presidents"
p1342
S'jay-z featuring foxxy brown'
p1343
sS'my all'
p1344
S'mariah carey'
p1345
sS"hang 'em high"
p1346
S'sadat x'
p1347
sS"nobody's supposed to be here"
p1348
S'deborah cox'
p1349
sS'knockin  da boots'
p1350
S'h-town'
p1351
sS'good times with bad boys'
p1352
S'boy krazy'
p1353
sS'oh father'
p1354
S'madonna'
p1355
sS'lick it'
p1356
S'roula'
p1357
sS'i want you'
p1358
S'savage garden'
p1359
sS'one more night'
p1360
S'amber'
p1361
sS'birmingham'
p1362
S'amanda marshall'
p1363
sS'all i do is think of you'
p1364
S'troop'
p1365
sS'(if there was) any other way'
p1366
S'celine dion'
p1367
sS'miles away'
p1368
S'winger'
p1369
sS'just another case'
p1370
S'cru featuring slick rick'
p1371
sS'lesson in leavin '
p1372
S'jo dee messina'
p1373
sS'a better love'
p1374
S'londonbeat'
p1375
sS'i kissed a girl'
p1376
S'jill sobule'
p1377
sS'hay'
p1378
S'crucial conflict'
p1379
sS'brainstorming'
p1380
S'm.c. brains'
p1381
sS'easy'
p1382
S'faith no more'
p1383
sS'gimme some love'
p1384
S'gina g'
p1385
sS"keep it comin'"
p1386
S'keith sweat'
p1387
sS'tell me something'
p1388
S'indecent obsession'
p1389
sS'keep it comin '
p1390
S'keith sweat'
p1391
sS'how can we be lovers'
p1392
S'michael bolton'
p1393
sS'just between you and me'
p1394
S'dc talk'
p1395
sS'got me waiting'
p1396
S'heavy d'
p1397
sS'if wishes came true'
p1398
S'sweet sensation'
p1399
sS'big yellow taxi'
p1400
S'amy grant'
p1401
sS'hold you tight'
p1402
S'tara kemp'
p1403
sS'don t wanna fall in love'
p1404
S'jane child'
p1405
sS'give me...a reason'
p1406
S'buffy'
p1407
sS'i m still waiting'
p1408
S'jodeci'
p1409
sS'heartbreak station'
p1410
S'cinderella'
p1411
sS'dreams'
p1412
S'the cranberries'
p1413
sS'days like these'
p1414
S'asia'
p1415
sS'nothing broken but my heart'
p1416
S'celine dion'
p1417
sS'something got me started'
p1418
S'simply red'
p1419
sS'home alone'
p1420
S'r. kelly featuring keith murray'
p1421
sS'daughter/yellow ledbetter'
p1422
S'pearl jam'
p1423
sS'one week'
p1424
S'barenaked ladies'
p1425
sS'i got the hook up!'
p1426
S'master p featuring sons of funk'
p1427
sS'stay real'
p1428
S'erick sermon'
p1429
sS'until it sleeps'
p1430
S'metallica'
p1431
sS'please remember me'
p1432
S'tim mcgraw'
p1433
sS'misled'
p1434
S'celine dion'
p1435
sS'ditty'
p1436
S'paperboy'
p1437
sS'for a little while'
p1438
S'tim mcgraw'
p1439
sS'already missing you'
p1440
S'gerald levert & eddie levert, sr.'
p1441
sS'fast as you'
p1442
S'dwight yoakam'
p1443
sS'leave virginia alone'
p1444
S'rod stewart'
p1445
sS'god blessed texas'
p1446
S'little texas'
p1447
sS'barrel of a gun'
p1448
S'depeche mode'
p1449
sS'the joint'
p1450
S'epmd'
p1451
sS'the place where you belong (from "beverly hills cop iii")'
p1452
S'shai'
p1453
sS'what it takes'
p1454
S'aerosmith'
p1455
sS' 98 thug paradise'
p1456
S'tragedy, capone, infinite'
p1457
sS'where does that leave love'
p1458
S'george lamond'
p1459
sS'behind bars'
p1460
S'slick rick'
p1461
sS'left '
p1462
S'd angelo featuring method man and redman'
p1463
sS"'98 thug paradise"
p1464
S'tragedy, capone, infinite'
p1465
sS'i like to move it'
p1466
S'reel 2 real featuring the mad stuntman'
p1467
sS'stepping stone'
p1468
S'lari white'
p1469
sS'that don t impress me much'
p1470
S'shania twain'
p1471
sS'boom, boom, boom, boom!!'
p1472
S'vengaboys'
p1473
sS'that s right'
p1474
S'dj taz featuring raheem the dream'
p1475
sS'voices that care'
p1476
S'voices that care'
p1477
sS'having a party'
p1478
S'rod stewart'
p1479
sS'how to dance'
p1480
S'bingo boys featuring princessa'
p1481
sS'turn the beat around (from "the specialist")'
p1482
S'gloria estefan'
p1483
sS"can't get enough"
p1484
S'willie max featuring raphael saadiq'
p1485
sS'i will survive (from "she-devil")'
p1486
S'safire'
p1487
sS'december 1963 (oh, what a night)'
p1488
S'four seasons'
p1489
sS'blame it on the rain'
p1490
S'milli vanilli'
p1491
sS'i love you/you bring me joy'
p1492
S'mary j. blige'
p1493
sS"where it's at"
p1494
S'beck'
p1495
sS'i adore mi amor'
p1496
S'color me badd'
p1497
sS'another sleepless night'
p1498
S'shawn christopher'
p1499
sS'i come off'
p1500
S'young mc'
p1501
sS'breathe again'
p1502
S'toni braxton'
p1503
sS'anything i want'
p1504
S'kevin paige'
p1505
sS'el trago (the drink)'
p1506
S'2 in a room'
p1507
sS'burn'
p1508
S'militia'
p1509
sS'incarcerated scarfaces/ice cream'
p1510
S'raekwon'
p1511
sS'when will i see you smile again?'
p1512
S'bell biv devoe'
p1513
sS'if i had the chance'
p1514
S'cynthia'
p1515
sS'ruff ryders  anthem'
p1516
S'dmx'
p1517
sS'always tomorrow'
p1518
S'gloria estefan'
p1519
sS'in my arms'
p1520
S'erasure'
p1521
sS'erotica'
p1522
S'madonna'
p1523
sS'tha hop'
p1524
S'kinsu'
p1525
sS'all through the night'
p1526
S'tone-loc'
p1527
sS'do you remember?'
p1528
S'phil collins'
p1529
sS'a dreams a dream'
p1530
S'soul ii soul'
p1531
sS"can't truss it"
p1532
S'public enemy'
p1533
sS"the quittin' kind"
p1534
S'joe diffie'
p1535
sS'what s it to you'
p1536
S'clay walker'
p1537
sS'cowboy'
p1538
S'kid rock'
p1539
sS'angels would fall'
p1540
S'melissa etheridge'
p1541
sS'motownphilly'
p1542
S'boyz ii men'
p1543
sS'i got id/long road'
p1544
S'pearl jam'
p1545
sS'elevate my mind'
p1546
S'stereo mc s'
p1547
sS'almost doesn t count'
p1548
S'brandy'
p1549
sS'fall down'
p1550
S'toad the wet sprocket'
p1551
sS'sunday morning'
p1552
S'earth, wind'
p1553
sS'i don t care'
p1554
S'shakespear s sister'
p1555
sS'call me'
p1556
S'le click'
p1557
sS'everlasting love'
p1558
S'gloria estefan'
p1559
sS'love like this'
p1560
S'faith evans'
p1561
sS'two princes'
p1562
S'spin doctors'
p1563
sS'pump it (nice an  hard)'
p1564
S'icy blu'
p1565
sS'fly (the angel song)'
p1566
S'the wilkinsons'
p1567
sS'keep warm'
p1568
S'jinny'
p1569
sS'if you go'
p1570
S'jon secada'
p1571
sS'your baby never looked good in blue'
p1572
S'expose'
p1573
sS'lies'
p1574
S'emf'
p1575
sS'missing you'
p1576
S'brooks'
p1577
sS'lullabye (goodnight, my angel)'
p1578
S'billy joel'
p1579
sS'brown sugar'
p1580
S"d'angelo"
p1581
sS'if i lost you'
p1582
S'travis tritt'
p1583
sS'she ain t worth it'
p1584
S'glenn medeiros featuring bobby brown'
p1585
sS'fool for your loving'
p1586
S'whitesnake'
p1587
sS'everyday is a winding road'
p1588
S'sheryl crow'
p1589
sS'spending my time'
p1590
S'roxette'
p1591
sS'just clownin '
p1592
S'wc from westside connection'
p1593
sS'luv me, luv me'
p1594
S'shaggy featuring janet'
p1595
sS"it's alright, it's ok"
p1596
S'leah andreone'
p1597
sS'night in my veins'
p1598
S'pretenders'
p1599
sS'don t take it personal'
p1600
S'jermaine jackson'
p1601
sS'jealousy'
p1602
S'kim sanders'
p1603
sS'nothin\' but the cavi hit (from "rhyme & reason")'
p1604
S'mack 10 & tha dogg pound'
p1605
sS'lambada'
p1606
S'kaoma'
p1607
sS'like the way i do/if i wanted to'
p1608
S'melissa etheridge'
p1609
sS'how do you sleep at night'
p1610
S'wade hayes'
p1611
sS'no pigeons'
p1612
S'sporty thievz featuring mr. woods'
p1613
sS'happy'
p1614
S'legacy of sound featuring meja'
p1615
sS'be true to yourself'
p1616
S'2nd ii none'
p1617
sS'none of ur friends business'
p1618
S'ginuwine'
p1619
sS"can't stop my heart from loving you (the rain song)"
p1620
S'aaron neville'
p1621
sS'angel of mine'
p1622
S'monica'
p1623
sS'(she s) some kind of wonderful'
p1624
S'huey lewis'
p1625
sS'i m in luv'
p1626
S'joe'
p1627
sS'fall in love again'
p1628
S'eddie money'
p1629
sS'heal the world'
p1630
S'michael jackson'
p1631
sS'we got it'
p1632
S'immature (featuring smooth)'
p1633
sS'both sides of the story'
p1634
S'phil collins'
p1635
sS'king nothing'
p1636
S'metallica'
p1637
sS'welcome to the real world'
p1638
S'jane child'
p1639
sS"i can't sleep baby (if i)"
p1640
S'r. kelly'
p1641
sS'i could not ask for more'
p1642
S'edwin mccain'
p1643
sS'live, laugh, love'
p1644
S'clay walker'
p1645
sS'born to roll'
p1646
S'masta ace incorporated'
p1647
sS'envy/firewater'
p1648
S'fat joe'
p1649
sS'before i let you go'
p1650
S'blackstreet'
p1651
sS'what s the frequency, kenneth?'
p1652
S'r.e.m.'
p1653
sS'do you sleep?'
p1654
S'lisa loeb & nine stories'
p1655
sS'my kinda girl'
p1656
S'babyface'
p1657
sS'take your time'
p1658
S'tre'
p1659
sS'southernplayalisticadillacmuzik'
p1660
S'outkast'
p1661
sS'blowing kisses in the wind'
p1662
S'paula abdul'
p1663
sS'humps for the blvd.'
p1664
S'rodney o'
p1665
sS'ooops up'
p1666
S'snap'
p1667
sS'it s for you (from "the meteor man")'
p1668
S'shanice'
p1669
sS'i wanna rock'
p1670
S'luke'
p1671
sS'rest in peace'
p1672
S'extreme'
p1673
sS'so good'
p1674
S'davina'
p1675
sS'so long (well, well, well)'
p1676
S'phajja'
p1677
sS'my love is your love'
p1678
S'whitney houston'
p1679
sS'tell me'
p1680
S'groove theory'
p1681
sS'sesame s treet'
p1682
S'smart e s'
p1683
sS'(i know i got) skillz'
p1684
S'shaquille o neal'
p1685
sS'lyin  to myself'
p1686
S'david cassidy'
p1687
sS'coco jamboo'
p1688
S'mr. president'
p1689
sS'cold world'
p1690
S'genius/gza featuring inspektah deck'
p1691
sS'request line'
p1692
S'zhane'
p1693
sS'my own worst enemy'
p1694
S'lit'
p1695
sS'baby got back'
p1696
S'sir mix-a-lot'
p1697
sS'i like (from "the nutty professor")'
p1698
S'montell jordan featuring slick rick'
p1699
sS'a country boy can survive (y2k version)'
p1700
S'chad brock with hank williams jr. & george jones'
p1701
sS'life (everybody needs somebody to love)'
p1702
S'haddaway'
p1703
sS'jump on it'
p1704
S'sir mix-a-lot'
p1705
sS'faithful'
p1706
S'go west'
p1707
sS'made up my mind'
p1708
S'safire'
p1709
sS'said i loved you...but i lied'
p1710
S'michael bolton'
p1711
sS'reality'
p1712
S'elusion'
p1713
sS"don't let it go to your head"
p1714
S'brand nubian'
p1715
sS'flood'
p1716
S'jars of clay'
p1717
sS'just like you'
p1718
S'robbie nevil'
p1719
sS'creep'
p1720
S'tlc'
p1721
sS'comin  on strong'
p1722
S'sudden change'
p1723
sS'body bumpin  yippie-yi-yo'
p1724
S'public announcement'
p1725
sS'girl on tv'
p1726
S'lfo'
p1727
sS'if you re serious'
p1728
S'riff'
p1729
sS'spirit of a boy, wisdom of a man'
p1730
S'randy travis'
p1731
sS'live and let die'
p1732
S'guns n  roses'
p1733
sS'after the summer s gone'
p1734
S'pc quest'
p1735
sS'i belong to you/how many ways'
p1736
S'toni braxton'
p1737
sS'how can you expect to be taken seriously?'
p1738
S'pet shop boys'
p1739
sS'in the hood'
p1740
S'donell jones'
p1741
sS'tonight is the night'
p1742
S'le click'
p1743
sS'policy of truth'
p1744
S'depeche mode'
p1745
sS'don t you love me'
p1746
S'49-ers'
p1747
sS'smells like teen spirit'
p1748
S'nirvana'
p1749
sS'love u more'
p1750
S'sunscreem'
p1751
sS'move it like this'
p1752
S'k7'
p1753
sS'superthug (what what)'
p1754
S'noreaga'
p1755
sS'how do you fall in love'
p1756
S'alabama'
p1757
sS"do you want to/can't hang"
p1758
S'xscape featuring mc lyte'
p1759
sS'bling bling'
p1760
S"b.g. featuring baby, turk, mannie fresh, juvenile & lil' wayne"
p1761
sS'the sound of my tears'
p1762
S'deborah cox'
p1763
sS"what's on tonight"
p1764
S'montell jordan'
p1765
sS'oye mi canto (hear my voice)'
p1766
S'gloria estefan'
p1767
sS'feed the tree'
p1768
S'belly'
p1769
sS"i've got a lot to learn about love"
p1770
S'the storm'
p1771
sS'use it up and wear it out'
p1772
S'pat'
p1773
sS'wide river'
p1774
S'steve miller band'
p1775
sS'candy rain'
p1776
S'soul for real'
p1777
sS'didn t i (blow your mind)'
p1778
S'new kids on the block'
p1779
sS'nothin  to hide'
p1780
S'poco'
p1781
sS'all this time'
p1782
S'sting'
p1783
sS'conviction of the heart'
p1784
S'kenny loggins'
p1785
sS'playaz club'
p1786
S"rappin' 4-tay"
p1787
sS'love me'
p1788
S'112 featuring mase'
p1789
sS'tonight the heartache s on me'
p1790
S'dixie chicks'
p1791
sS'no tengo dinero'
p1792
S'los umbrellos'
p1793
sS'ray of light'
p1794
S'madonna'
p1795
sS'foolin  around'
p1796
S'changing faces'
p1797
sS'i wanna be down'
p1798
S'brandy'
p1799
sS'fantastic voyage'
p1800
S'coolio'
p1801
sS'how can i ease the pain'
p1802
S'lisa fischer'
p1803
sS'made in england'
p1804
S'elton john'
p1805
sS'the floor'
p1806
S'johnny gill'
p1807
sS'someday (from "the hunchback of notre dame")'
p1808
S'all-4-one'
p1809
sS'the party continues'
p1810
S'jd featuring da brat'
p1811
sS'died in your arms'
p1812
S'intonation featuring joee'
p1813
sS'the way i feel'
p1814
S'tag'
p1815
sS'get here'
p1816
S'oleta adams'
p1817
sS'the real love'
p1818
S'bob seger'
p1819
sS'how do you do!'
p1820
S'roxette'
p1821
sS'everybody [backstreet s back]'
p1822
S'backstreet boys'
p1823
sS'everything'
p1824
S'mary j. blige'
p1825
sS'hope of deliverance'
p1826
S'paul mccartney'
p1827
sS'indian outlaw'
p1828
S'tim mcgraw'
p1829
sS'father'
p1830
S'll cool j'
p1831
sS'we really shouldn t be doing this'
p1832
S'george strait'
p1833
sS'coming out of the dark'
p1834
S'gloria estefan'
p1835
sS"she don't use jelly"
p1836
S'the flaming lips'
p1837
sS'the humpty dance'
p1838
S'digital underground'
p1839
sS'3-2-1 pump'
p1840
S'redhead kingpin'
p1841
sS'let the music heal your soul'
p1842
S'bravo all stars'
p1843
sS'reach for the sky'
p1844
S'firehouse'
p1845
sS'my little secret'
p1846
S'xscape'
p1847
sS'these are the times'
p1848
S'dru hill'
p1849
sS'step by step'
p1850
S'new kids on the block'
p1851
sS'whatcha gone do?'
p1852
S'link'
p1853
sS'here come the lords'
p1854
S'lords of the underground'
p1855
sS'hole hearted'
p1856
S'extreme'
p1857
sS'never, never gonna give you up'
p1858
S'lisa stansfield'
p1859
sS'krazy'
p1860
S'blackgirl'
p1861
sS'the earth, the sun, the rain'
p1862
S'color me badd'
p1863
sS'stairway to heaven'
p1864
S'pure soul'
p1865
sS'pump up the jam'
p1866
S'technotronic'
p1867
sS'how much love'
p1868
S'vixen'
p1869
sS'high enough'
p1870
S'damn yankees'
p1871
sS'looking through patient eyes'
p1872
S'p.m. dawn'
p1873
sS'this beat is hot'
p1874
S'b.g. the prince of rap'
p1875
sS'won t talk about it'
p1876
S'beats international'
p1877
sS'whole wide world (from "true love")'
p1878
S'a me lorain'
p1879
sS'this could be the one'
p1880
S'bad company'
p1881
sS'thorn in my pride'
p1882
S'the black crowes'
p1883
sS'closer to free (from "party of five")'
p1884
S'bodeans'
p1885
sS'always be my baby'
p1886
S'mariah carey'
p1887
sS'the deeper the love'
p1888
S'whitesnake'
p1889
sS'chains around my heart'
p1890
S'richard marx'
p1891
sS"i care 'bout you"
p1892
S'milestone'
p1893
sS'i melt with you'
p1894
S'modern english'
p1895
sS'two to make it right'
p1896
S'seduction'
p1897
sS"it's all coming back to me now"
p1898
S'celine dion'
p1899
sS'i like it'
p1900
S'the blackout allstars'
p1901
sS'1999'
p1902
S'prince'
p1903
sS'johnny have you seen her?'
p1904
S'the rembrandts'
p1905
sS'don\'t cry for me argentina (from "evita")'
p1906
S'madonna'
p1907
sS'i knew i loved you'
p1908
S'savage garden'
p1909
sS'damn i wish i was your lover'
p1910
S'sophie b. hawkins'
p1911
sS"it's good to be king"
p1912
S'tom petty'
p1913
sS'walking on broken glass'
p1914
S'annie lennox'
p1915
sS'white men can t jump'
p1916
S'riff'
p1917
sS'there you are'
p1918
S'sam salter'
p1919
sS'funk boutique'
p1920
S'the cover girls'
p1921
sS'whenever you re near me'
p1922
S'ace of base'
p1923
sS'i remember'
p1924
S'boyz ii men'
p1925
sS'physical funk'
p1926
S'domino'
p1927
sS'only you'
p1928
S'tami davis'
p1929
sS'watch me do my thing (from "all that")'
p1930
S'immature featuring smooth and ed from good burger'
p1931
sS'what might have been'
p1932
S'little texas'
p1933
sS'one for the money'
p1934
S'horace brown'
p1935
sS'your woman'
p1936
S'white town'
p1937
sS'how  bout us (from "true love")'
p1938
S'grayson hugh'
p1939
sS'word is bond'
p1940
S'brand nubian'
p1941
sS"ain't nobody/kissing you"
p1942
S'faith evans'
p1943
sS'thank you'
p1944
S'boyz ii men'
p1945
sS'you gotta be'
p1946
S"des'ree"
p1947
sS'me so horny'
p1948
S'the 2 live crew'
p1949
sS'forever love (from "mo  money")'
p1950
S'color me badd'
p1951
sS"(she's got) skillz"
p1952
S'all-4-one'
p1953
sS'love me or leave me alone'
p1954
S'brand nubian'
p1955
sS'i m ready'
p1956
S'tevin campbell'
p1957
sS'girlstown'
p1958
S'super cat'
p1959
sS'who will save your soul'
p1960
S'jewel'
p1961
sS'sweet november'
p1962
S'troop'
p1963
sS'got your money'
p1964
S"ol' dirty bastard featuring kelis"
p1965
sS'falling'
p1966
S'montell jordan'
p1967
sS'hearts don t think (they feel)'
p1968
S'natural selection'
p1969
sS'buddy x'
p1970
S'neneh cherry'
p1971
sS'jump jive an  wail'
p1972
S'the brian setzer orchestra'
p1973
sS'diary of a madman'
p1974
S'gravediggaz'
p1975
sS'all the man that i need'
p1976
S'whitney houston'
p1977
sS'dirty cash (money talks)'
p1978
S'the adventures of stevie v'
p1979
sS'rhythm nation'
p1980
S'janet jackson'
p1981
sS"i'm not giving you up"
p1982
S'gloria estefan'
p1983
sS'galileo'
p1984
S'indigo girls'
p1985
sS'sexual healing'
p1986
S'max-a-million'
p1987
sS'looking for mr. do right'
p1988
S'jade'
p1989
sS'change'
p1990
S'lisa stansfield'
p1991
sS'feels like heaven'
p1992
S'peter cetera (duet with chaka khan)'
p1993
sS"this ain't a love song"
p1994
S'bon jovi'
p1995
sS'thinkin  problem'
p1996
S'david ball'
p1997
sS'never there'
p1998
S'cake'
p1999
sS'without you'
p2000
S'motley crue'
p2001
sS'listen me tic (woyoi)'
p2002
S'ini kamoze'
p2003
sS'let s forget about it'
p2004
S'lisa loeb'
p2005
sS'i don t want to lose your love'
p2006
S'b angie b'
p2007
sS'i can love you'
p2008
S'mary j. blige'
p2009
sS'we can get down'
p2010
S'myron'
p2011
sS"you want this/70's love groove"
p2012
S'janet jackson'
p2013
sS'i go to extremes'
p2014
S'billy joel'
p2015
sS'tender lover'
p2016
S'babyface'
p2017
sS'listen to your heart'
p2018
S'roxette'
p2019
sS'the child (inside)'
p2020
S'qkumba zoo'
p2021
sS"you'll see"
p2022
S'madonna'
p2023
sS'do not pass me by'
p2024
S'm.c. hammer'
p2025
sS'come over to my place'
p2026
S'davina'
p2027
sS'let me be your lover'
p2028
S'the u-krew'
p2029
sS'i feel you'
p2030
S'depeche mode'
p2031
sS'waiting for tonight'
p2032
S'jennifer lopez'
p2033
sS'the river of dreams'
p2034
S'billy joel'
p2035
sS'flava in ya ear'
p2036
S'craig mack'
p2037
sS'soul inspiration'
p2038
S'anita baker'
p2039
sS'time and chance'
p2040
S'color me badd'
p2041
sS'not the only one'
p2042
S'bonnie raitt'
p2043
sS'summer bunnies'
p2044
S'r. kelly'
p2045
sS'shimmy shimmy ya'
p2046
S"ol' dirty bastard"
p2047
sS'i will go with you (con te partiro)'
p2048
S'donna summer'
p2049
sS'booti call'
p2050
S'blackstreet'
p2051
sS'not a dry eye in the house'
p2052
S'meat loaf'
p2053
sS'heaven'
p2054
S'nu flavor'
p2055
sS'the hitman'
p2056
S'ab logic'
p2057
sS'when i die'
p2058
S'no mercy'
p2059
sS'woof'
p2060
S'snoop dogg featuring mystikal and fiend'
p2061
sS'too hot'
p2062
S'coolio'
p2063
sS'heaven is a 4 letter word'
p2064
S'bad english'
p2065
sS'in these arms'
p2066
S'bon jovi'
p2067
sS'angels'
p2068
S'robbie williams'
p2069
sS'wicked'
p2070
S'ice cube'
p2071
sS'stand by me'
p2072
S'4 the cause'
p2073
sS'sometimes i miss you so much (dedicated to the christ consciousness)'
p2074
S'p.m. dawn'
p2075
sS'fired up!'
p2076
S'funky green dogs'
p2077
sS'ain t seen love like that'
p2078
S'mr. big'
p2079
sS"i'm not a fool"
p2080
S'immature'
p2081
sS'redneck games'
p2082
S'jeff foxworthy with alan jackson'
p2083
sS'as i lay me down'
p2084
S'sophie b. hawkins'
p2085
sS'pushin\' inside you (from "how bout it")'
p2086
S'sons of funk'
p2087
sS'all things considered'
p2088
S'yankee grey'
p2089
sS'money don t matter 2 night'
p2090
S'prince and the n.p.g.'
p2091
sS'walls (from "she\'s the one")'
p2092
S'tom petty and the heartbreakers'
p2093
sS'love takes time'
p2094
S'mariah carey'
p2095
sS'i say a little prayer'
p2096
S'diana king'
p2097
sS'dirty south'
p2098
S'goodie mob.'
p2099
sS'until i find you again'
p2100
S'richard marx'
p2101
sS'sex me (parts i '
p2102
S'r. kelly'
p2103
sS'if i say'
p2104
S'kingofthehill'
p2105
sS'power of love'
p2106
S'deee-lite'
p2107
sS'what a price to pay'
p2108
S'michael damian'
p2109
sS'alone'
p2110
S'bee gees'
p2111
sS'do your thing'
p2112
S'7 mile'
p2113
sS'lucky love'
p2114
S'ace of base'
p2115
sS'all i want (from "good burger")'
p2116
S'702'
p2117
sS'[freak] and u know it'
p2118
S'adina howard'
p2119
sS'let love rule'
p2120
S'lenny kravitz'
p2121
sS'heart'
p2122
S'neneh cherry'
p2123
sS'dedicated'
p2124
S'r. kelly'
p2125
sS'the ghetto'
p2126
S'too short'
p2127
sS'december'
p2128
S'collective soul'
p2129
sS'candy everybody wants'
p2130
S'10,000 maniacs'
p2131
sS"groovin'"
p2132
S'ub40'
p2133
sS'groovin '
p2134
S'ub40'
p2135
sS'you bring me up'
p2136
S'k-ci & jojo'
p2137
sS'rosa parks'
p2138
S'outkast'
p2139
sS'i do (cherish you)'
p2140
S'98 degrees'
p2141
sS'ruffneck'
p2142
S'mc lyte'
p2143
sS"it's a party"
p2144
S'busta rhymes featuring zhane'
p2145
sS'only happy when it rains'
p2146
S'garbage'
p2147
sS'missing you (from "set it off")'
p2148
S'brandy, tamia, gladys knight'
p2149
sS'let me ride'
p2150
S'dr. dre'
p2151
sS'thirty-three'
p2152
S'the smashing pumpkins'
p2153
sS'from this moment on'
p2154
S'shania twain'
p2155
sS'rock with you'
p2156
S'inner circle'
p2157
sS'pink'
p2158
S'aerosmith'
p2159
sS'play my funk (from "sugar hill")'
p2160
S'simple e'
p2161
sS'c u when u get there (from "nothing to lose")'
p2162
S'coolio featuring 40 thevz'
p2163
sS"keep tryin'"
p2164
S'groove theory'
p2165
sS'through the rain'
p2166
S'tanya blount'
p2167
sS'rock my world (little country girl)'
p2168
S'brooks'
p2169
sS'your love keeps working on me'
p2170
S'jody watley'
p2171
sS'wild night'
p2172
S"john mellencamp with me'shell ndegeocello"
p2173
sS'tic-tac-toe'
p2174
S'kyper'
p2175
sS'i don t want to wait'
p2176
S'paula cole'
p2177
sS'that s what little girls are made of'
p2178
S'raven-symone'
p2179
sS'pure'
p2180
S'lightning seeds'
p2181
sS'i can t get over you'
p2182
S'brooks'
p2183
sS'wild wild west'
p2184
S'will smith featuring dru hill'
p2185
sS"that's just what you are"
p2186
S'aimee mann'
p2187
sS'get a leg up'
p2188
S'john mellencamp'
p2189
sS"mary jane's last dance"
p2190
S'tom petty and the heartbreakers'
p2191
sS'true blue love'
p2192
S'lou gramm'
p2193
sS'november rain'
p2194
S'guns n  roses'
p2195
sS'never lie'
p2196
S'immature'
p2197
sS'the great beyond'
p2198
S'r.e.m.'
p2199
sS'advice for the young at heart'
p2200
S'tears for fears'
p2201
sS'hey leonardo (she likes me for me)'
p2202
S'blessid union of souls'
p2203
sS'do you miss me'
p2204
S'jocelyn enriquez'
p2205
sS'hero of the day'
p2206
S'metallica'
p2207
sS'right here'
p2208
S'swv'
p2209
sS'beauty and the beast'
p2210
S'celine dion and peabo bryson'
p2211
sS'water runs dry'
p2212
S'boyz ii men'
p2213
sS'espn presents the jock jam'
p2214
S'various artists'
p2215
sS'love is on the way'
p2216
S'saigon kick'
p2217
sS'if you go away'
p2218
S'nkotb'
p2219
sS'wait for you'
p2220
S'bonham'
p2221
sS'move this'
p2222
S'technotronic featuring ya kid k'
p2223
sS'i wanna love like that'
p2224
S'tony thompson'
p2225
sS"i'll be missing you"
p2226
S'puff daddy & faith evans featuring 112'
p2227
sS'i ll think of a reason later'
p2228
S'lee ann womack'
p2229
sS"say you'll stay"
p2230
S'kai'
p2231
sS'tide is high'
p2232
S'angelina'
p2233
sS"i always feel like (somebody's watching me)"
p2234
S'tru featuring ice cream man (master p)'
p2235
sS'baby hold on to me'
p2236
S'gerald levert (duet with eddie levert)'
p2237
sS'now that we found love'
p2238
S'heavy d'
p2239
sS'don t turn around'
p2240
S'ace of base'
p2241
sS'i never knew love'
p2242
S'doug stone'
p2243
sS'push it'
p2244
S'garbage'
p2245
sS'5 miles to empty'
p2246
S'brownstone'
p2247
sS'the message'
p2248
S'sofia shinas'
p2249
sS'shake'
p2250
S'andrew ridgeley'
p2251
sS'commitment of the heart'
p2252
S'clive griffin'
p2253
sS'woo-hah!! got you all in check/everything remains raw'
p2254
S'busta rhymes'
p2255
sS'step to this'
p2256
S'master p featuring d.i.g.'
p2257
sS'i can make it better'
p2258
S'luther vandross'
p2259
sS'the ballad of jayne'
p2260
S'l.a. guns'
p2261
sS'hip hop ride'
p2262
S'da youngsta s'
p2263
sS'say a prayer'
p2264
S'breathe'
p2265
sS'torn'
p2266
S'natalie imbruglia'
p2267
sS'give me one reason'
p2268
S'tracy chapman'
p2269
sS'a little bit of ecstasy'
p2270
S'jocelyn enriquez'
p2271
sS'c.r.e.a.m. (cash rules everything around me)'
p2272
S'wu-tang clan'
p2273
sS'party ain t a party'
p2274
S'queen pen featuring teddy riley, nutta butta, markell'
p2275
sS'l.a. song'
p2276
S'beth hart'
p2277
sS'i still believe'
p2278
S'mariah carey'
p2279
sS'on and on'
p2280
S'shyheim'
p2281
sS'the bomb! (these sounds fall into my mind)'
p2282
S'the bucketheads'
p2283
sS'killer'
p2284
S'seal'
p2285
sS'insomnia'
p2286
S'faithless'
p2287
sS'money can t buy you love (from "mo  money")'
p2288
S'ralph tresvant'
p2289
sS'hippychick'
p2290
S'soho'
p2291
sS'don t hold back your love'
p2292
S'daryl hall  john oates'
p2293
sS'rock and roll is dead'
p2294
S'lenny kravitz'
p2295
sS'back to life'
p2296
S'soul ii soul'
p2297
sS'cantaloop (flip fantasia)'
p2298
S'us 3'
p2299
sS'she thinks my tractor s sexy'
p2300
S'kenny chesney'
p2301
sS'name'
p2302
S'goo goo dolls'
p2303
sS'captain save a hoe'
p2304
S'e-40'
p2305
sS"diggin' on you"
p2306
S'tlc'
p2307
sS'bomdigi'
p2308
S'erick sermon'
p2309
sS'turn it up'
p2310
S'oaktown s 3.5.7'
p2311
sS'kissing the wind'
p2312
S'nia peeples'
p2313
sS'living in sin'
p2314
S'bon jovi'
p2315
sS'she ain t pretty'
p2316
S'the northern pikes'
p2317
sS'vogue'
p2318
S'madonna'
p2319
sS'back that thang up'
p2320
S"juvenile featuring mannie fresh & lil' wayne"
p2321
sS'you think you know her'
p2322
S'cause'
p2323
sS'sex me (parts i & ii)'
p2324
S'r. kelly'
p2325
sS'1-4-all-4-1'
p2326
S'east coast family'
p2327
sS'don t stop movin '
p2328
S'livin  joy'
p2329
sS'i don t ever want to see you again'
p2330
S'uncle sam'
p2331
sS"can't let go"
p2332
S'laurnea'
p2333
sS'mourn you til i join you'
p2334
S'naughty by nature'
p2335
sS'nothin  my love can t fix'
p2336
S'joey lawrence'
p2337
sS'don t let it go to your head'
p2338
S'brand nubian'
p2339
sS'fall at your feet'
p2340
S'crowded house'
p2341
sS'(i could only) whisper your name'
p2342
S'harry connick, jr.'
p2343
sS'something to talk about'
p2344
S'bonnie raitt'
p2345
sS'i ve been waiting for you'
p2346
S'guys next door'
p2347
sS'the animal song'
p2348
S'savage garden'
p2349
sS'just the way it is, baby'
p2350
S'the rembrandts'
p2351
sS'all that she wants'
p2352
S'ace of base'
p2353
sS'loving arms'
p2354
S'darden smith'
p2355
sS'place in this world'
p2356
S'michael w. smith'
p2357
sS"she thinks my tractor's sexy"
p2358
S'kenny chesney'
p2359
sS'i can do that'
p2360
S'montell jordan'
p2361
sS'ballad of youth'
p2362
S'richie sambora'
p2363
sS'if i had no loot'
p2364
S'tony toni tone'
p2365
sS'dreamlover'
p2366
S'mariah carey'
p2367
sS'down with the king'
p2368
S'run-d.m.c.'
p2369
sS'tres delinquentes'
p2370
S'delinquent habits'
p2371
sS'monster'
p2372
S'fred schneider'
p2373
sS'just tah let u know'
p2374
S'eazy-e'
p2375
sS'the sign'
p2376
S'ace of base'
p2377
sS'make it happen'
p2378
S'mariah carey'
p2379
sS'can you stop the rain'
p2380
S'peabo bryson'
p2381
sS'higher than hope'
p2382
S'daryl braithwaite'
p2383
sS'will you be there (from "free willy")'
p2384
S'michael jackson'
p2385
sS'mr. personality'
p2386
S'gillette'
p2387
sS'award tour'
p2388
S'a tribe called quest'
p2389
sS'let it snow'
p2390
S'boyz ii men'
p2391
sS'inside that i cried'
p2392
S'cece peniston'
p2393
sS'woof woof'
p2394
S'69 boyz'
p2395
sS'man on the moon'
p2396
S'r.e.m.'
p2397
sS'dear mama/old school'
p2398
S'2pac'
p2399
sS'guerrilla radio'
p2400
S'rage against the machine'
p2401
sS'pop goes the weasel'
p2402
S'3rd bass'
p2403
sS"just clownin'"
p2404
S'wc from westside connection'
p2405
sS'carnival'
p2406
S'natalie merchant'
p2407
sS'who do u love'
p2408
S'deborah cox'
p2409
sS'i ve been thinking about you'
p2410
S'jocelyn enriquez'
p2411
sS"when love starts talkin'"
p2412
S'wynonna'
p2413
sS'things we do for love'
p2414
S'horace brown'
p2415
sS"devil's haircut"
p2416
S'beck'
p2417
sS'(lay your head on my) pillow'
p2418
S'tony toni tone'
p2419
sS'when i look into your eyes'
p2420
S'firehouse'
p2421
sS'father of mine'
p2422
S'everclear'
p2423
sS'save some love'
p2424
S'keedy'
p2425
sS'show me love'
p2426
S'robyn'
p2427
sS'life is a highway'
p2428
S'tom cochrane'
p2429
sS'waiting for wednesday'
p2430
S'lisa loeb & nine stories'
p2431
sS'hooch'
p2432
S'everything'
p2433
sS'9th wonder (slicker this year)'
p2434
S'digable planets'
p2435
sS'think'
p2436
S'information society'
p2437
sS'lean on me'
p2438
S'kirk franklin feat. mary j. blige, bono, r. kelly, crystal lewis'
p2439
sS'everything falls apart/small wonders'
p2440
S"dog's eye view"
p2441
sS'time, love and tenderness'
p2442
S'michael bolton'
p2443
sS'please forgive me'
p2444
S'bryan adams'
p2445
sS'big big world'
p2446
S'emilia'
p2447
sS'one'
p2448
S'creed'
p2449
sS'500 miles'
p2450
S'hooters'
p2451
sS'can u feel it'
p2452
S'3rd party'
p2453
sS'90 s girl'
p2454
S'blackgirl'
p2455
sS'legend of a cowgirl'
p2456
S'imani coppola'
p2457
sS'what do you say to that'
p2458
S'george strait'
p2459
sS"if i can't have you"
p2460
S'l.f.o. (lyte funky ones) (featuring kayo)'
p2461
sS'could ve been me'
p2462
S'billy ray cyrus'
p2463
sS'ain t no future in yo  fronting'
p2464
S'm.c. breed'
p2465
sS"movin' on"
p2466
S'mya featuring silkk the shocker'
p2467
sS'feel so high'
p2468
S"des'ree"
p2469
sS'pretty girl'
p2470
S'jon b'
p2471
sS'jigga what...'
p2472
S'jay-z featuring big jaz'
p2473
sS'since i don t have you'
p2474
S'guns n  roses'
p2475
sS'someone to love'
p2476
S'jon b. featuring babyface'
p2477
sS'lifestyles of the rich and shameless'
p2478
S'lost boyz'
p2479
sS"mc's act like they don't know"
p2480
S'krs-one'
p2481
sS'the last song'
p2482
S'elton john'
p2483
sS'make you sweat'
p2484
S'keith sweat'
p2485
sS'house of love'
p2486
S'amy grant with vince gill'
p2487
sS'will 2k'
p2488
S'will smith featuring k-ci'
p2489
sS'let me know'
p2490
S'cam ron'
p2491
sS'foreplay'
p2492
S'raab'
p2493
sS'on '
p2494
S'erykah badu'
p2495
sS'one more try'
p2496
S'divine'
p2497
sS'jesus he knows me'
p2498
S'genesis'
p2499
sS'whoomp! (there it is)'
p2500
S'tag team'
p2501
sS'it s not a love thing'
p2502
S'geoffrey williams'
p2503
sS"i don't want to/i love me some him"
p2504
S'toni braxton'
p2505
sS'unpretty'
p2506
S'tlc'
p2507
sS'never stop'
p2508
S'the brand new heavies feat. n dea davenport'
p2509
sS'last kiss'
p2510
S'pearl jam'
p2511
sS'again tonight'
p2512
S'john mellencamp'
p2513
sS"somebody's crying"
p2514
S'chris isaak'
p2515
sS'they like it slow'
p2516
S'h-town'
p2517
sS'shamrocks and shenanigans (boom shalock lock boom)'
p2518
S'house of pain'
p2519
sS'baby baby'
p2520
S'corona'
p2521
sS'that s why'
p2522
S'the party'
p2523
sS'shiny happy people'
p2524
S'r.e.m.'
p2525
sS'dare to fall in love'
p2526
S'brent bourgeois'
p2527
sS'never been kissed'
p2528
S'sherrie austin'
p2529
sS'macarena christmas'
p2530
S'los del rio'
p2531
sS'sin so well'
p2532
S'rebekah'
p2533
sS'who dat'
p2534
S'jt money featuring sole'
p2535
sS'you can do it'
p2536
S'ice cube featuring mack 10 & ms. toi'
p2537
sS'every road leads back to you'
p2538
S'bette midler'
p2539
sS'killer/papa was a rollin  stone'
p2540
S'george michael'
p2541
sS'angel'
p2542
S'sarah mclachlan'
p2543
sS'am i wrong'
p2544
S'love spit love'
p2545
sS'house of fire'
p2546
S'alice cooper'
p2547
sS'crossover'
p2548
S'epmd'
p2549
sS'mr. loverman (from "deep cover")'
p2550
S'shabba ranks'
p2551
sS'oochie coochie'
p2552
S'm.c. brains'
p2553
sS'slam'
p2554
S'onyx'
p2555
sS"life ain't easy"
p2556
S'cleopatra'
p2557
sS'i like it (i wanna be where you are)'
p2558
S'grand puba'
p2559
sS'i m from the country'
p2560
S'tracy byrd'
p2561
sS'new jack hustler (nino s theme) (from "new jack city")'
p2562
S'ice-t'
p2563
sS'insatiable'
p2564
S'prince and the n.p.g.'
p2565
sS'wildside'
p2566
S'marky mark'
p2567
sS'the rush'
p2568
S'luther vandross'
p2569
sS'all shook up (from "honeymoon in vegas")'
p2570
S'billy joel'
p2571
sS'liquid swords'
p2572
S'genius/gza'
p2573
sS'any man of mine/whose bed have your boots been under?'
p2574
S'shania twain'
p2575
sS'gin and juice'
p2576
S'snoop doggy dogg'
p2577
sS"it's all about me"
p2578
S'mya & sisqo'
p2579
sS'baby-baby-baby'
p2580
S'tlc'
p2581
sS'electric boogie'
p2582
S'marcia griffiths'
p2583
sS'wonder'
p2584
S'natalie merchant'
p2585
sS'everything about you'
p2586
S'ugly kid joe'
p2587
sS'things ll never change/rapper s ball'
p2588
S'e-40 featuring bo-rock'
p2589
sS"player's anthem"
p2590
S'junior m.a.f.i.a.'
p2591
sS'james brown is dead'
p2592
S'l.a. style'
p2593
sS'i saw it cummin '
p2594
S'pmd'
p2595
sS"make em' say uhh!"
p2596
S'master p feat. fiend, silkk the shocker, mia x & mystikal'
p2597
sS'love me for life'
p2598
S'stevie b'
p2599
sS'freak like me'
p2600
S'adina howard'
p2601
sS'feenin '
p2602
S'jodeci'
p2603
sS'intergalactic'
p2604
S'beastie boys'
p2605
sS'nice '
p2606
S'usher'
p2607
sS'face the music'
p2608
S'rtz'
p2609
sS'who is it'
p2610
S'michael jackson'
p2611
sS'then the morning comes'
p2612
S'smash mouth'
p2613
sS'i m the only one'
p2614
S'melissa etheridge'
p2615
sS'can t get you out of my mind'
p2616
S'lil suzy'
p2617
sS'papa z song'
p2618
S'2pac duet with mopreme'
p2619
sS'drink, swear, steal '
p2620
S'michael peterson'
p2621
sS'start the car'
p2622
S'jude cole'
p2623
sS'holding my heart'
p2624
S'bang'
p2625
sS'drive'
p2626
S'r.e.m.'
p2627
sS'rescue me'
p2628
S'madonna'
p2629
sS"she's all i ever had"
p2630
S'ricky martin'
p2631
sS'there s your trouble'
p2632
S'dixie chicks'
p2633
sS'la la love'
p2634
S'bobby ross avila'
p2635
sS'what s my age again?'
p2636
S'blink-182'
p2637
sS'never find someone like you'
p2638
S'keith martin'
p2639
sS'even a fool can see'
p2640
S'peter cetera'
p2641
sS'empty beach'
p2642
S'tricia leigh fisher'
p2643
sS'i don t wanna see you'
p2644
S'michael morales'
p2645
sS'pick it up'
p2646
S'home team'
p2647
sS'bedtime story'
p2648
S'madonna'
p2649
sS'love is a wonderful thing'
p2650
S'michael bolton'
p2651
sS'wish you were here'
p2652
S'mark wills'
p2653
sS'(meet) the flintstones (from "the flintstones")'
p2654
S'the b.c. 52 s'
p2655
sS"do g's get to go to heaven?"
p2656
S'richie rich'
p2657
sS'a little love'
p2658
S'corey hart'
p2659
sS'love me forever or love me not'
p2660
S'trilogy'
p2661
sS'guilty (from "seven")'
p2662
S'gravity kills'
p2663
sS'peaches'
p2664
S'the presidents of the united states of america'
p2665
sS'it must have been love (from "pretty woman")'
p2666
S'roxette'
p2667
sS'highwire'
p2668
S'the rolling stones'
p2669
sS'never a time'
p2670
S'genesis'
p2671
sS'what about us'
p2672
S'total'
p2673
sS'the riddler (from "batman forever")'
p2674
S'method man'
p2675
sS'step by step (from "the preacher\'s wife")'
p2676
S'whitney houston'
p2677
sS'the theme (it s party time)'
p2678
S'tracey lee'
p2679
sS'how do u want it/california love'
p2680
S'2pac featuring kc and jojo'
p2681
sS'surrender'
p2682
S'trixter'
p2683
sS'boom! shake the room'
p2684
S'jazzy jeff & the fresh prince'
p2685
sS'shimmer'
p2686
S'fuel'
p2687
sS'silence is broken (from "nowhere to run")'
p2688
S'damn yankees'
p2689
sS'at the stars'
p2690
S'better than ezra'
p2691
sS'tears'
p2692
S'the isley brothers'
p2693
sS'n 2 gether now'
p2694
S'limp bizkit featuring method man'
p2695
sS'sometimes love just ain t enough'
p2696
S'patty smyth'
p2697
sS'the choice is yours'
p2698
S'black sheep'
p2699
sS'life ain t easy'
p2700
S'cleopatra'
p2701
sS'i got a thang 4 ya!'
p2702
S'lo-key?'
p2703
sS'things just ain t the same'
p2704
S'deborah cox'
p2705
sS'learning to fly'
p2706
S'tom petty and the heartbreakers'
p2707
sS'heaven knows'
p2708
S'luther vandross'
p2709
sS'hide and seek'
p2710
S'pajama party'
p2711
sS'sittin  in the lap of luxury'
p2712
S'louie louie'
p2713
sS'men of steel (from "steel")'
p2714
S"shaquille o'neal, ice cube, b real, peter gunz & krs-one"
p2715
sS"freek'n you"
p2716
S'jodeci'
p2717
sS'real real real'
p2718
S'jesus jones'
p2719
sS'get it on tonite'
p2720
S'montell jordan'
p2721
sS'friend of mine'
p2722
S'kelly price'
p2723
sS'electrolite'
p2724
S'r.e.m.'
p2725
sS'thieves in the temple'
p2726
S'prince'
p2727
sS'come back'
p2728
S'londonbeat'
p2729
sS'paper'
p2730
S'queen latifah featuring apache'
p2731
sS'get together'
p2732
S'big mountain'
p2733
sS'the way she loves me'
p2734
S'richard marx'
p2735
sS'just a girl'
p2736
S'no doubt'
p2737
sS'if you asked me to'
p2738
S'celine dion'
p2739
sS'love is alive'
p2740
S'3rd party'
p2741
sS'ready to go'
p2742
S'republica'
p2743
sS'heartspark dollarsign'
p2744
S'everclear'
p2745
sS'one on one'
p2746
S'to be continued...'
p2747
sS'you re the love of my life/the love i lost'
p2748
S'sybil'
p2749
sS'moan '
p2750
S'mark morrison'
p2751
sS'letitgo'
p2752
S'prince'
p2753
sS'if we fall in love tonight'
p2754
S'rod stewart'
p2755
sS'here & now'
p2756
S'letters to cleo'
p2757
sS'heavy'
p2758
S'collective soul'
p2759
sS'i believe in you and me (from "the preacher\'s wife")'
p2760
S'whitney houston'
p2761
sS'light in your eyes'
p2762
S'blessid union of souls'
p2763
sS'better than me'
p2764
S'terry dexter'
p2765
sS'summertime summertime'
p2766
S'corina'
p2767
sS'with every beat of my heart'
p2768
S'taylor dayne'
p2769
sS'i don t want to miss a thing'
p2770
S'mark chesnutt'
p2771
sS'figure of eight'
p2772
S'paul mccartney'
p2773
sS"stayin' alive"
p2774
S'n-trance'
p2775
sS'24/7'
p2776
S'kevon edmonds'
p2777
sS'come '
p2778
S'jodeci'
p2779
sS'fire escape'
p2780
S'fastball'
p2781
sS'hanky panky'
p2782
S'madonna'
p2783
sS'turtle power'
p2784
S'partners in kryme'
p2785
sS'i m outstanding'
p2786
S'shaquille o neal'
p2787
sS'take you there'
p2788
S'pete rock & c.l. smooth'
p2789
sS'i wanna love you (from "class act")'
p2790
S'jade'
p2791
sS'yesterday'
p2792
S'debelah morgan'
p2793
sS'4, 5, 6'
p2794
S'sole featuring jt money & kandi'
p2795
sS'whipped'
p2796
S'jon secada'
p2797
sS'jumper'
p2798
S'third eye blind'
p2799
sS'how did i get by without you?'
p2800
S'john waite'
p2801
sS'for your mind'
p2802
S'robbie nevil'
p2803
sS'it matters to me'
p2804
S'faith hill'
p2805
sS'few and far between'
p2806
S'10,000 maniacs'
p2807
sS'slow and sexy'
p2808
S'shabba ranks (featuring johnny gill)'
p2809
sS'little man'
p2810
S'alan jackson'
p2811
sS'big time sensuality'
p2812
S'bjork'
p2813
sS'new power generation'
p2814
S'prince'
p2815
sS'deeper and deeper'
p2816
S'madonna'
p2817
sS'happy with you'
p2818
S'samantha cole'
p2819
sS'by the time this night is over'
p2820
S'kenny g with peabo bryson'
p2821
sS'big bad mamma (from "def jam\'s how to be a player")'
p2822
S'foxy brown featuring dru hill'
p2823
sS'nobody s supposed to be here'
p2824
S'deborah cox'
p2825
sS'can we (from "booty call")'
p2826
S'swv'
p2827
sS'bring it all to me'
p2828
S'blaque'
p2829
sS'not on your love'
p2830
S'jeff carson'
p2831
sS'spark'
p2832
S'tori amos'
p2833
sS'now that i found you'
p2834
S'terri clark'
p2835
sS'gotta man'
p2836
S'eve'
p2837
sS'regret'
p2838
S'new order'
p2839
sS'tell me why'
p2840
S'wynonna'
p2841
sS'let me be the one'
p2842
S'blessid union of souls'
p2843
sS'giving him something he can feel'
p2844
S'en vogue'
p2845
sS'livin  la vida loca'
p2846
S'ricky martin'
p2847
sS'what s it gonna be'
p2848
S'jellybean featuring niki haris'
p2849
sS"betcha'll never find"
p2850
S'chantay savage'
p2851
sS'daysleeper'
p2852
S'r.e.m.'
p2853
sS'music sounds better with you'
p2854
S'stardust'
p2855
sS'tour'
p2856
S'capleton'
p2857
sS'no, no, no'
p2858
S'destiny s child'
p2859
sS'just the way you like it'
p2860
S'tasha holiday'
p2861
sS'expression'
p2862
S'salt-n-pepa'
p2863
sS'every little thing i do'
p2864
S'soul for real'
p2865
sS'if i ever lose my faith in you'
p2866
S'sting'
p2867
sS'be my baby tonight'
p2868
S'john michael montgomery'
p2869
sS'everybody s free (to feel good)'
p2870
S'rozalla'
p2871
sS"nothin' move but the money"
p2872
S'mic geronimo featuring dmx & black rob'
p2873
sS'pimp of the year'
p2874
S'dru down'
p2875
sS'true companion'
p2876
S'marc cohn'
p2877
sS'hungah'
p2878
S'karyn white'
p2879
sS'when you love a woman'
p2880
S'journey'
p2881
sS"gotta be...movin' on up"
p2882
S'prince be & ky-mani'
p2883
sS"ain't nuthin' but a she thing"
p2884
S'salt-n-pepa'
p2885
sS'sweet lullaby'
p2886
S'deep forest'
p2887
sS'can you feel me'
p2888
S'dru down'
p2889
sS'runaway'
p2890
S'janet jackson'
p2891
sS'meeting in my bedroom'
p2892
S'silk'
p2893
sS'can you feel the love tonight (from "the lion king")'
p2894
S'elton john'
p2895
sS'single white female'
p2896
S'chely wright'
p2897
sS'house of pain'
p2898
S'faster pussycat'
p2899
sS'you got me'
p2900
S'the roots featuring erykah badu'
p2901
sS'it s the things you do'
p2902
S'five'
p2903
sS'atliens'
p2904
S'outkast'
p2905
sS'if i ever fall in love'
p2906
S'shai'
p2907
sS'tears in heaven'
p2908
S'eric clapton'
p2909
sS'4 seasons of loneliness'
p2910
S'boyz ii men'
p2911
sS'have a heart'
p2912
S'bonnie raitt'
p2913
sS'money, power '
p2914
S'the lox [featuring dmx'
p2915
sS'this d.j.'
p2916
S'warren g'
p2917
sS'house full of reasons'
p2918
S'jude cole'
p2919
sS"we can't be friends"
p2920
S'deborah cox with r.l.'
p2921
sS'vivrant thing'
p2922
S'q-tip'
p2923
sS'throw ya gunz'
p2924
S'onyx'
p2925
sS'the power of good-bye'
p2926
S'madonna'
p2927
sS'for you'
p2928
S'kenny lattimore'
p2929
sS'it must be love'
p2930
S'ty herndon'
p2931
sS'typical reasons (swing my way)'
p2932
S'prince markie dee'
p2933
sS'love shoulda brought you home (from "boomerang")'
p2934
S'toni braxton'
p2935
sS'keep coming back'
p2936
S'richard marx'
p2937
sS'i d give anything'
p2938
S'gerald levert'
p2939
sS"things'll never change/rapper's ball"
p2940
S'e-40 featuring bo-rock'
p2941
sS'love of a lifetime'
p2942
S'firehouse'
p2943
sS'superstar'
p2944
S'charm farm'
p2945
sS'old to the new'
p2946
S'nice'
p2947
sS'i ll remember (from "with honors")'
p2948
S'madonna'
p2949
sS'try to find me'
p2950
S'gorky park'
p2951
sS'whateva man'
p2952
S'redman'
p2953
sS"love the one you're with/going in circles"
p2954
S'luther vandross'
p2955
sS'leave a light on'
p2956
S'belinda carlisle'
p2957
sS'mass appeal'
p2958
S'gang starr'
p2959
sS'still got the blues'
p2960
S'gary moore'
p2961
sS"say you'll be there"
p2962
S'spice girls'
p2963
sS'two steps behind (from "last action hero")'
p2964
S'def leppard'
p2965
sS'come inside'
p2966
S'intro'
p2967
sS'please don t go'
p2968
S'no mercy'
p2969
sS'electric barbarella'
p2970
S'duran duran'
p2971
sS'very special'
p2972
S'big daddy kane feat. spinderella, l. williams & k. anderson'
p2973
sS'landslide'
p2974
S'fleetwood mac'
p2975
sS'falling to pieces'
p2976
S'faith no more'
p2977
sS'been around the world'
p2978
S'puff daddy'
p2979
sS'have you seen her'
p2980
S'm.c. hammer'
p2981
sS'take me in your arms'
p2982
S'lil suzy'
p2983
sS"he's mine"
p2984
S'mokenstef'
p2985
sS'missing you now'
p2986
S'michael bolton'
p2987
sS"age ain't nothing but a number"
p2988
S'aaliyah'
p2989
sS"runnin'"
p2990
S'2pac, notorious b.i.g., radio, dramacydal & stretch'
p2991
sS'good'
p2992
S'better than ezra'
p2993
sS'runnin '
p2994
S'2pac, notorious b.i.g., radio, dramacydal'
p2995
sS'i ve got mine'
p2996
S'glenn frey'
p2997
sS'ironic'
p2998
S'alanis morissette'
p2999
sS'barely breathing'
p3000
S'duncan sheik'
p3001
sS'everyday'
p3002
S'phil collins'
p3003
sS'26 cents'
p3004
S'the wilkinsons'
p3005
sS'how i could just kill a man/the phuncky feel one'
p3006
S'cypress hill'
p3007
sS'have you ever really loved a woman?'
p3008
S'bryan adams'
p3009
sS'when i dream of you'
p3010
S'tommy page'
p3011
sS'monsters and angels'
p3012
S'voice of the beehive'
p3013
sS'you can make history (young again)'
p3014
S'elton john'
p3015
sS'layla'
p3016
S'eric clapton'
p3017
sS'this is how we do it'
p3018
S'montell jordan'
p3019
sS'moonlight on water'
p3020
S'laura branigan'
p3021
sS'do you like this'
p3022
S'rome'
p3023
sS'be my lover'
p3024
S'la bouche'
p3025
sS'one more time'
p3026
S'real mccoy'
p3027
sS'you don t have to go home tonight'
p3028
S'the triplets'
p3029
sS'shorty (you keep playin  with my mind)'
p3030
S'imajin featuring keith murray'
p3031
sS'all i do'
p3032
S'somethin  for the people'
p3033
sS'breakdown'
p3034
S'fu-schnickens'
p3035
sS'work to do'
p3036
S'vanessa williams'
p3037
sS"gettin' it"
p3038
S'too short feat. parliament funkadelic'
p3039
sS'love you down'
p3040
S'inoj/lathun'
p3041
sS'new age girl (from "dumb and dumber")'
p3042
S'deadeye dick'
p3043
sS'what a girl wants'
p3044
S'christina aguilera'
p3045
sS'sometimes (it s a bitch)'
p3046
S'stevie nicks'
p3047
sS'just the way (playas play)'
p3048
S'alfonzo hunter'
p3049
sS'as we lay'
p3050
S'dana'
p3051
sS'a bad goodbye'
p3052
S'clint black with wynonna'
p3053
sS'delicate'
p3054
S'terence trent d arby'
p3055
sS'breakadawn'
p3056
S'de la soul'
p3057
sS'up jumps da boogie'
p3058
S'magoo and timbaland'
p3059
sS'i don t want to/i love me some him'
p3060
S'toni braxton'
p3061
sS'don t treat me bad'
p3062
S'firehouse'
p3063
sS'forever'
p3064
S'kiss'
p3065
sS'back at one'
p3066
S'brian mcknight'
p3067
sS"that's the way it is"
p3068
S'celine dion'
p3069
sS'you only have to say you love me'
p3070
S'hannah jones'
p3071
sS'hands of a working man'
p3072
S'ty herndon'
p3073
sS'a night to remember'
p3074
S'joe diffie'
p3075
sS'i ll take you there (from "threesome")'
p3076
S'general public'
p3077
sS'a whole new world (aladdin s theme)'
p3078
S'peabo bryson'
p3079
sS'the rest of mine'
p3080
S'trace adkins'
p3081
sS'i wanna b with u'
p3082
S'fun factory'
p3083
sS'blood on the dance floor'
p3084
S'michael jackson'
p3085
sS'then what?'
p3086
S'clay walker'
p3087
sS'touch me'
p3088
S'solo'
p3089
sS'do you want it right now'
p3090
S'degrees of motion'
p3091
sS'amazed'
p3092
S'lonestar'
p3093
sS'all the small things'
p3094
S'blink-182'
p3095
sS'french kiss'
p3096
S'lil louis'
p3097
sS'how do i live (from "con air")'
p3098
S'trisha yearwood'
p3099
sS'every morning'
p3100
S'sugar ray'
p3101
sS'it s all good'
p3102
S'm.c. hammer'
p3103
sS'coming of age'
p3104
S'damn yankees'
p3105
sS'a little past little rock'
p3106
S'lee ann womack'
p3107
sS'can t truss it'
p3108
S'public enemy'
p3109
sS'the day the world went away'
p3110
S'nine inch nails'
p3111
sS'dub be good to me'
p3112
S'beats international'
p3113
sS'i m free'
p3114
S'jon secada'
p3115
sS'if i could change (from "i\'m bout it")'
p3116
S"master p featuring steady mobb'n, mia x, mo b. dick & o'dell"
p3117
sS"same ol' shit"
p3118
S'mc ren'
p3119
sS"it's so hard to say goodbye to yesterday"
p3120
S'boyz ii men'
p3121
sS'rush rush'
p3122
S'paula abdul'
p3123
sS'we will rock you/we are the champions'
p3124
S'queen'
p3125
sS'warm summer daze'
p3126
S'vybe'
p3127
sS'at night i pray'
p3128
S'wild orchid'
p3129
sS'gimme your good lovin '
p3130
S'diving for pearls'
p3131
sS'freedom (from "panther")'
p3132
S'various artists'
p3133
sS'bills, bills, bills'
p3134
S'destiny s child'
p3135
sS'the emperor s new clothes'
p3136
S'sinead o connor'
p3137
sS'real world'
p3138
S'matchbox 20'
p3139
sS'stop the world'
p3140
S'extreme'
p3141
sS'so help me girl'
p3142
S'gary barlow'
p3143
sS'ready or not'
p3144
S'after 7'
p3145
sS'they reminisce over you (t.r.o.y.)'
p3146
S'pete rock'
p3147
sS'this gift'
p3148
S'98 degrees'
p3149
sS'you better wait'
p3150
S'steve perry'
p3151
sS'whutcha want?'
p3152
S'nine'
p3153
sS'ask of you (from "higher learning")'
p3154
S'raphael saadiq'
p3155
sS'justify my love'
p3156
S'madonna'
p3157
sS'sweet surrender'
p3158
S'sarah mclachlan'
p3159
sS'lady'
p3160
S'mista'
p3161
sS'touch my light'
p3162
S'big mountain'
p3163
sS'downtown train'
p3164
S'rod stewart'
p3165
sS'moving on up'
p3166
S'm people'
p3167
sS'enjoy yourself'
p3168
S'a+'
p3169
sS'uncle tom s cabin'
p3170
S'warrant'
p3171
sS'feels so good (show me your love)'
p3172
S'lina santiago'
p3173
sS'over and over'
p3174
S'timmy t.'
p3175
sS"daydreamin'"
p3176
S'tatyana ali'
p3177
sS'romantic call'
p3178
S'patra featuring yo-yo'
p3179
sS'daydreamin '
p3180
S'tatyana ali'
p3181
sS'miracle'
p3182
S'whitney houston'
p3183
sS'mad izm'
p3184
S'channel live'
p3185
sS'always on my mind'
p3186
S'swv'
p3187
sS'it s alright, it s ok'
p3188
S'leah andreone'
p3189
sS'in a dream'
p3190
S'rockell'
p3191
sS'good stuff'
p3192
S'the b-52 s'
p3193
sS'i wonder why'
p3194
S'curtis stigers'
p3195
sS'dj girl'
p3196
S'katalina'
p3197
sS'ghetto love'
p3198
S'da brat featuring t-boz'
p3199
sS'now and forever'
p3200
S'richard marx'
p3201
sS'the motown song'
p3202
S'rod stewart'
p3203
sS'all my love'
p3204
S'queen pen featuring eric williams'
p3205
sS'do you see'
p3206
S'warren g'
p3207
sS'57 channels (and nothin  on)'
p3208
S'bruce springsteen'
p3209
sS'love desire'
p3210
S'sandee'
p3211
sS'and so it goes'
p3212
S'billy joel'
p3213
sS'all my life'
p3214
S'k-ci'
p3215
sS'gangsta\'s paradise (from "dangerous minds")'
p3216
S'coolio featuring l.v.'
p3217
sS'one night at a time'
p3218
S'george strait'
p3219
sS'too much'
p3220
S'spice girls'
p3221
sS'rhythm of my heart'
p3222
S'rod stewart'
p3223
sS'survival of the fittest'
p3224
S'mobb deep'
p3225
sS'meet virginia'
p3226
S'train'
p3227
sS'passionate kisses'
p3228
S'mary chapin carpenter'
p3229
sS'money ain t a thang'
p3230
S'jd featuring jay-z'
p3231
sS'hoop in yo face (from "sunset park")'
p3232
S"69 boyz featuring quad city dj's"
p3233
sS'keep the faith'
p3234
S'bon jovi'
p3235
sS'thinkin  bout it'
p3236
S'gerald levert'
p3237
sS'too close'
p3238
S'next'
p3239
sS'i love you'
p3240
S'martina mcbride'
p3241
sS'pull up to the bumper'
p3242
S'patra'
p3243
sS'o.p.p.'
p3244
S'naughty by nature'
p3245
sS'just want to hold you'
p3246
S'jasmine guy'
p3247
sS'people are still having sex'
p3248
S'latour'
p3249
sS'barbie girl'
p3250
S'aqua'
p3251
sS'insane in the brain'
p3252
S'cypress hill'
p3253
sS'rock steady'
p3254
S'bonnie raitt with bryan adams'
p3255
sS'dunkie butt (please please please)'
p3256
S'12 gauge'
p3257
sS'the crying game (from "the crying game")'
p3258
S'boy george'
p3259
sS'u will know (from "jason s lyric")'
p3260
S'b.m.u. (black men united)'
p3261
sS'circle of life (from "the lion king")'
p3262
S'elton john'
p3263
sS'all star'
p3264
S'smash mouth'
p3265
sS'the ways of the wind'
p3266
S'p.m. dawn'
p3267
sS'here i am (come and take me)'
p3268
S'ub40'
p3269
sS'scenario'
p3270
S'a tribe called quest'
p3271
sS'zunga zeng'
p3272
S'k7'
p3273
sS'when you believe'
p3274
S'whitney houston'
p3275
sS'never ever'
p3276
S'all saints'
p3277
sS'high and dry'
p3278
S'radiohead'
p3279
sS'let s chill'
p3280
S'guy'
p3281
sS'feelin  it'
p3282
S'jay-z'
p3283
sS'hey donna'
p3284
S'rhythm syndicate'
p3285
sS'stand'
p3286
S'poison'
p3287
sS"shake a lil' somethin'..."
p3288
S'the 2 live crew'
p3289
sS'go away'
p3290
S'lorrie morgan'
p3291
sS'my baby daddy'
p3292
S'b-rock & the bizz'
p3293
sS'everything you want'
p3294
S'ray j'
p3295
sS'mercy mercy me (the ecology)/i want you'
p3296
S'robert palmer'
p3297
sS'take a bow'
p3298
S'madonna'
p3299
sS'family affair (from "addams family values")'
p3300
S'shabba ranks'
p3301
sS'just roll'
p3302
S'fabu'
p3303
sS'cruising for bruising'
p3304
S'basia'
p3305
sS'you gotta believe'
p3306
S'marky mark'
p3307
sS'who s the man? (from "who s the man")'
p3308
S'house of pain'
p3309
sS'music makes me high'
p3310
S'lost boyz'
p3311
sS'whatever you want'
p3312
S'tony toni tone'
p3313
sS'sour times (nobody loves me)'
p3314
S'portishead'
p3315
sS'get up on it'
p3316
S'keith sweat (featuring kut klose)'
p3317
sS'fantasy'
p3318
S'mariah carey'
p3319
sS'brooklyn zoo'
p3320
S"ol' dirty bastard"
p3321
sS"(if you're not in it for love) i'm outta here!/the woman in me"
p3322
S'shania twain'
p3323
sS'check yo self'
p3324
S'ice cube featuring das efx'
p3325
sS'out of my bones'
p3326
S'randy travis'
p3327
sS'give it to you'
p3328
S'jordan knight'
p3329
sS'quit playing games (with my heart)'
p3330
S'backstreet boys'
p3331
sS'whatever you say'
p3332
S'martina mcbride'
p3333
sS"can't be really gone"
p3334
S'tim mcgraw'
p3335
sS"can't nobody hold me down"
p3336
S'puff daddy (featuring mase)'
p3337
sS'low'
p3338
S'cracker'
p3339
sS'stars'
p3340
S'simply red'
p3341
sS'till somebody loves you'
p3342
S'henry lee summer'
p3343
sS'i m gonna get you'
p3344
S'bizarre inc'
p3345
sS'out of sight (yo)'
p3346
S'rufus blaq'
p3347
sS'simon says'
p3348
S'pharoahe monch'
p3349
sS'quality time'
p3350
S'hi-five'
p3351
sS'love is a rock'
p3352
S'reo speedwagon'
p3353
sS'we re not making love no more'
p3354
S'dru hill'
p3355
sS'cocktales'
p3356
S'too short'
p3357
sS'fairweather friend'
p3358
S'johnny gill'
p3359
sS'froggy style'
p3360
S"nuttin' nyce"
p3361
sS'do me!'
p3362
S'bell biv devoe'
p3363
sS'dream boy/dream girl'
p3364
S'cynthia'
p3365
sS'i d die without you (from "boomerang")'
p3366
S'p.m. dawn'
p3367
sS"fa all y'all"
p3368
S'da brat'
p3369
sS'talk show shhh!'
p3370
S'shae jones'
p3371
sS'where do u want me to put it'
p3372
S'solo'
p3373
sS'informer'
p3374
S'snow'
p3375
sS'love me just for me'
p3376
S'special generation'
p3377
sS'rush'
p3378
S'big audio'
p3379
sS'what it s like'
p3380
S'everlast'
p3381
sS'romantic'
p3382
S'karyn white'
p3383
sS'last dayz'
p3384
S'onyx'
p3385
sS'word of mouth'
p3386
S'mike'
p3387
sS'stay (faraway, so close!)'
p3388
S'u2'
p3389
sS'i ll never break your heart'
p3390
S'backstreet boys'
p3391
sS'strawberry'
p3392
S'nicole renee'
p3393
sS'when love cries'
p3394
S'donna summer'
p3395
sS'flex'
p3396
S'mad cobra'
p3397
sS"the mummers' dance"
p3398
S'loreena mckennitt'
p3399
sS'99 worlds'
p3400
S'peter wolf'
p3401
sS'beautiful in my eyes'
p3402
S'joshua kadison'
p3403
sS'any time, any place/and on and on'
p3404
S'janet jackson'
p3405
sS'take a look'
p3406
S"j'son"
p3407
sS'livin  in the light'
p3408
S'caron wheeler'
p3409
sS'sweet lady'
p3410
S'tyrese'
p3411
sS'2 way street'
p3412
S'missjones'
p3413
sS'deja vu [uptown baby]'
p3414
S'lord tariq'
p3415
sS'kickstart my heart'
p3416
S'motley crue'
p3417
sS'imagination'
p3418
S'tamia'
p3419
sS'love can move mountains'
p3420
S'celine dion'
p3421
sS'fastlove'
p3422
S'george michael'
p3423
sS'break ups 2 make ups'
p3424
S'method man featuring d angelo'
p3425
sS'only women bleed'
p3426
S'favorite angel'
p3427
sS'cream'
p3428
S'prince and the n.p.g.'
p3429
sS'again'
p3430
S'janet jackson'
p3431
sS'what ya want'
p3432
S'eve'
p3433
sS'boom shak a-tack'
p3434
S'born jamericans'
p3435
sS'suavemente'
p3436
S'elvis crespo'
p3437
sS'swing my way'
p3438
S'k.p.'
p3439
sS'what time is love?'
p3440
S'the klf'
p3441
sS'step on'
p3442
S'happy mondays'
p3443
sS'free your mind'
p3444
S'en vogue'
p3445
sS'am i the same girl'
p3446
S'swing out sister'
p3447
sS'when you say nothing at all'
p3448
S'alison krauss & union station'
p3449
sS'get involved'
p3450
S'raphael saadiq'
p3451
sS'you'
p3452
S'jesse powell'
p3453
sS'not gon\' cry (from "waiting to exhale")'
p3454
S'mary j. blige'
p3455
sS'whatcha wanna do?'
p3456
S'mia x featuring charlie wilson'
p3457
sS'it s so hard to say goodbye to yesterday'
p3458
S'boyz ii men'
p3459
sS'ooh la la (i can t get over you)'
p3460
S'perfect gentlemen'
p3461
sS'i fell in love'
p3462
S'rockell'
p3463
sS'remember the time'
p3464
S'michael jackson'
p3465
sS'always and forever'
p3466
S'luther vandross'
p3467
sS'time'
p3468
S'hootie & the blowfish'
p3469
sS'i miss my homies'
p3470
S'master p featuring pimp c and the shocker'
p3471
sS'as long as i can dream'
p3472
S'expose'
p3473
sS'i can go deep (from "a low down dirty shame")'
p3474
S'silk'
p3475
sS"hard to say i'm sorry"
p3476
S'az yet featuring peter cetera'
p3477
sS'my favorite mistake'
p3478
S'sheryl crow'
p3479
sS'change the world (from "phenomenon")'
p3480
S'eric clapton'
p3481
sS'lookin  at me'
p3482
S'mase featuring puff daddy'
p3483
sS'break up to make up'
p3484
S'cynthia'
p3485
sS'leaving las vegas'
p3486
S'sheryl crow'
p3487
sS'do i have to say the words?'
p3488
S'bryan adams'
p3489
sS'the comfort zone'
p3490
S'vanessa williams'
p3491
sS'strike it up'
p3492
S'black box'
p3493
sS'slave to the habit'
p3494
S'shane minor'
p3495
sS'on the down low'
p3496
S'brian mcknight'
p3497
sS'gangsta bitch'
p3498
S'apache'
p3499
sS'what s on tonight'
p3500
S'montell jordan'
p3501
sS'whatta man'
p3502
S'salt-n-pepa featuring en vogue'
p3503
sS'another like my lover'
p3504
S'jasmine guy'
p3505
sS'feel the funk (from "dangerous minds")'
p3506
S'immature'
p3507
sS'use your heart'
p3508
S'swv'
p3509
sS'can i touch you...there?'
p3510
S'michael bolton'
p3511
sS'god'
p3512
S'tori amos'
p3513
sS'alright'
p3514
S'jamiroquai'
p3515
sS'with you'
p3516
S'lila mccann'
p3517
sS'walking to jerusalem'
p3518
S'tracy byrd'
p3519
sS"can't get you off my mind"
p3520
S'lenny kravitz'
p3521
sS'written all over your face'
p3522
S'the rude boys'
p3523
sS'love will lead you back'
p3524
S'taylor dayne'
p3525
sS'the greatest romance ever sold'
p3526
S'prince'
p3527
sS"whenever you're near me"
p3528
S'ace of base'
p3529
sS'old times  sake (from "above the rim")'
p3530
S'sweet sable'
p3531
sS'one of us'
p3532
S'joan osborne'
p3533
sS'much better'
p3534
S'club 69 featuring suzanne palmer'
p3535
sS'the truth'
p3536
S'tami show'
p3537
sS'a bitter end'
p3538
S'deryl dodd'
p3539
sS'higher'
p3540
S'creed'
p3541
sS'low rider (on the boulevard)'
p3542
S'latin alliance featuring war'
p3543
sS'children'
p3544
S'robert miles'
p3545
sS'the christmas song (chestnuts roasting on an open fire)'
p3546
S'christina aguilera'
p3547
sS'the one i gave my heart to'
p3548
S'aaliyah'
p3549
sS'jessie'
p3550
S'joshua kadison'
p3551
sS"sittin' on chrome"
p3552
S'masta ace incorporated'
p3553
sS'streiht up menace (from "menace ii society")'
p3554
S'mc eiht'
p3555
sS'someone to hold'
p3556
S'trey lorenz'
p3557
sS'house keeper'
p3558
S'men of vizion'
p3559
sS'when a woman s fed up'
p3560
S'r. kelly'
p3561
sS"i know where it's at"
p3562
S'all saints'
p3563
sS'everything you do (you re sexing me)'
p3564
S'fiona (duet with kip winger)'
p3565
sS'thank u'
p3566
S'alanis morissette'
p3567
sS'blaze of glory (from "young guns ii")'
p3568
S'jon bon jovi'
p3569
sS'money s just a touch away'
p3570
S'mack 10 featuring gerald levert'
p3571
sS'where do we go from here (from "eraser")'
p3572
S'vanessa williams'
p3573
sS'move any mountain'
p3574
S'the shamen'
p3575
sS'summer rain'
p3576
S'belinda carlisle'
p3577
sS'you make me feel (mighty real)'
p3578
S'jimmy somerville'
p3579
sS'i never seen a man cry (aka i seen a man die)'
p3580
S'scarface'
p3581
sS'love me good'
p3582
S'michael w. smith'
p3583
sS'4, 3, 2, 1'
p3584
S'll cool j featuring method man, redman, dmx, canibus and master p'
p3585
sS"last night's letter"
p3586
S'k-ci & jojo'
p3587
sS'7'
S'prince and the new power generation'
p3588
sS'stay forever'
p3589
S'joey lawrence'
p3590
sS'almost hear you sigh'
p3591
S'the rolling stones'
p3592
sS'the perfect drug (from "lost highway")'
p3593
S'nine inch nails'
p3594
sS'one more chance/stay with me'
p3595
S'the notorious b.i.g.'
p3596
sS'crash (have some fun)'
p3597
S'tka featuring michelle visage'
p3598
sS'when you talk about love'
p3599
S'patti labelle'
p3600
sS'there s no other way'
p3601
S'blur'
p3602
sS'chattahoochee'
p3603
S'alan jackson'
p3604
sS'a promise i make'
p3605
S'dakota moon'
p3606
sS'tell me what you want me to do'
p3607
S'tevin campbell'
p3608
sS'what do you say'
p3609
S'reba'
p3610
sS'my love'
p3611
S'little texas'
p3612
sS'natural one (from "kids")'
p3613
S'folk implosion'
p3614
sS'sentimental'
p3615
S'deborah cox'
p3616
sS'elevators (me & you)'
p3617
S'outkast'
p3618
sS'u send me swingin '
p3619
S'mint condition'
p3620
sS'owwww!'
p3621
S'chunky a'
p3622
sS'send me on my way'
p3623
S'rusted root'
p3624
sS'tuck me in'
p3625
S'kimberly scott'
p3626
sS'am i dreaming'
p3627
S'ol skool [featuring keith sweat'
p3628
sS'promises broken'
p3629
S'soul asylum'
p3630
sS'what are you doing with a fool like me'
p3631
S'joe cocker'
p3632
sS'just take my heart'
p3633
S'mr. big'
p3634
sS'so hard'
p3635
S'pet shop boys'
p3636
sS'baby you know'
p3637
S"the o'jays"
p3638
sS'what if'
p3639
S'reba mcentire'
p3640
sS'how high (from "the show")'
p3641
S'redman/method man'
p3642
sS'find a way'
p3643
S'a tribe called quest'
p3644
sS'you don t know how it feels'
p3645
S'tom petty'
p3646
sS'don t go away mad (just go away)'
p3647
S'motley crue'
p3648
sS'i wasn t with it'
p3649
S'jesse powell'
p3650
sS'sleeping with the lights on'
p3651
S'curtis stigers'
p3652
sS'baby, it s tonight'
p3653
S'jude cole'
p3654
sS'does anybody really fall in love anymore?'
p3655
S'kane roberts'
p3656
sS'what would happen'
p3657
S'meredith brooks'
p3658
sS'enter sandman'
p3659
S'metallica'
p3660
sS'this is ponderous'
p3661
S'2nu'
p3662
sS'renee (from "don\'t be a menace...")'
p3663
S'lost boyz'
p3664
sS'wherever i may roam'
p3665
S'metallica'
p3666
sS'boom boom boom'
p3667
S'the outhere brothers'
p3668
sS'bed of roses'
p3669
S'bon jovi'
p3670
sS'afternoons '
p3671
S'crash test dummies'
p3672
sS'nann'
p3673
S'trick daddy featuring trina'
p3674
sS'you said'
p3675
S'mona lisa'
p3676
sS'i m a player'
p3677
S'too short'
p3678
sS'right now'
p3679
S'al b. sure!'
p3680
sS'anniversary'
p3681
S'tony toni tone'
p3682
sS'emotions'
p3683
S'h-town'
p3684
sS'i wanna make love to you (from "innocent blood")'
p3685
S'rhythm syndicate'
p3686
sS'crush'
p3687
S'dave matthews band'
p3688
sS'butterfly kisses'
p3689
S'raybon bros.'
p3690
sS'sending all my love'
p3691
S'linear'
p3692
sS'you mean the world to me'
p3693
S'toni braxton'
p3694
sS'what kind of man would i be'
p3695
S'mint condition'
p3696
sS'when i said i do'
p3697
S'clint black'
p3698
sS'avenues'
p3699
S'refugee camp all stars featuring pras (with ky-mani)'
p3700
sS'what you won t do for love'
p3701
S'go west'
p3702
sS'how bad do you want it?'
p3703
S'don henley'
p3704
sS'i m looking for the one (to be with me)'
p3705
S'jazzy jeff'
p3706
sS'that s why i m here'
p3707
S'kenny chesney'
p3708
sS'worker man'
p3709
S'patra'
p3710
sS'no one else on earth'
p3711
S'wynonna'
p3712
sS'love for free'
p3713
S'rell (featuring jay-z)'
p3714
sS'return of the mack'
p3715
S'mark morrison'
p3716
sS'i want to come over'
p3717
S'melissa etheridge'
p3718
sS'hillbilly shoes'
p3719
S'montgomery gentry'
p3720
sS'i need your love'
p3721
S'boston'
p3722
sS'scary kisses'
p3723
S'voice of the beehive'
p3724
sS'nothing  bout me'
p3725
S'sting'
p3726
sS'machinehead (from "fear")'
p3727
S'bush'
p3728
sS'if tomorrow never comes'
p3729
S'joose'
p3730
sS'what i didn t know'
p3731
S'athenaeum'
p3732
sS'how do i say i m sorry'
p3733
S'tami davis'
p3734
sS'stop the gunfight'
p3735
S'trapp featuring 2pac, notorious b.i.g.'
p3736
sS'deep inside'
p3737
S'mary j. blige'
p3738
sS'one of these days'
p3739
S'tim mcgraw'
p3740
sS'save your love'
p3741
S'bad boys blue'
p3742
sS"step into a world (rapture's delight)"
p3743
S'krs-one'
p3744
sS'was it nothing at all'
p3745
S'michael damian'
p3746
sS'the obvious child'
p3747
S'paul simon'
p3748
sS'your love is so divine'
p3749
S'miranda'
p3750
sS'selling the drama'
p3751
S'live'
p3752
sS'wicked game'
p3753
S'chris isaak'
p3754
sS'masterpiece'
p3755
S'atlantic starr'
p3756
sS'ain t nobody like you'
p3757
S'miki howard'
p3758
sS'misery'
p3759
S'soul asylum'
p3760
sS'action'
p3761
S'terror fabulous featuring nadine sutherland'
p3762
sS'roxanne `97 - puff daddy remix'
p3763
S'sting & the police'
p3764
sS'cuts you up'
p3765
S'peter murphy'
p3766
sS'a girl like you'
p3767
S'the smithereens'
p3768
sS'running back to you'
p3769
S'vanessa williams'
p3770
sS'we got a love thang'
p3771
S'cece peniston'
p3772
sS'bug a boo'
p3773
S"destiny's child"
p3774
sS'learn to fly'
p3775
S'foo fighters'
p3776
sS'solitude'
p3777
S'edwin mccain'
p3778
sS'just kickin  it'
p3779
S'xscape'
p3780
sS'it s a shame (my sister)'
p3781
S'monie love'
p3782
sS'love don t love you'
p3783
S'en vogue'
p3784
sS'fade into you'
p3785
S'mazzy star'
p3786
sS'horse '
p3787
S'cam ron featuring mase'
p3788
sS'celebration/take your chance'
p3789
S'fun factory'
p3790
sS'in paradise'
p3791
S'laissez faire'
p3792
sS'no one but you (from "baps")'
p3793
S'veronica (featuring craig mack)'
p3794
sS'moneytalks'
p3795
S'ac/dc'
p3796
sS'caught out there'
p3797
S'kelis'
p3798
sS'busy man'
p3799
S'billy ray cyrus'
p3800
sS'you can t get away'
p3801
S'shana'
p3802
sS"i ain't havin' that"
p3803
S'heltah skeltah featuring starang wondah of o.g.c. & doc holiday'
p3804
sS'take my advice'
p3805
S'kym sims'
p3806
sS'nick of time'
p3807
S'bonnie raitt'
p3808
sS'whiney, whiney (from "dumb and dumber")'
p3809
S'willi one blood'
p3810
sS"can't wait"
p3811
S'redman'
p3812
sS'baby s coming back'
p3813
S'jellyfish'
p3814
sS'east 1999'
p3815
S'bone thugs-n-harmony'
p3816
sS'never gonna let you down'
p3817
S'surface'
p3818
sS'jeeps, lex coups, bimaz & benz'
p3819
S'lost boyz'
p3820
sS'far behind'
p3821
S'candlebox'
p3822
sS'kiss you back'
p3823
S'digital underground'
p3824
sS'my heart is calling (from "the preacher s wife")'
p3825
S'whitney houston'
p3826
sS'no time'
p3827
S"lil' kim featuring puff daddy"
p3828
sS'the cup of life (the official song of the world cup, france  98)'
p3829
S'ricky martin'
p3830
sS'stutter'
p3831
S'elastica'
p3832
sS'hey lover'
p3833
S'll cool j'
p3834
sS'weekend thang'
p3835
S'alfonzo hunter'
p3836
sS'yolanda'
p3837
S'reality'
p3838
sS'friday i m in love'
p3839
S'the cure'
p3840
sS'if i could'
p3841
S'regina belle'
p3842
sS'the 13th'
p3843
S'the cure'
p3844
sS'bring it on'
p3845
S'keith washington'
p3846
sS'my love is a fire'
p3847
S'donny osmond'
p3848
sS'giving you the benefit'
p3849
S'pebbles'
p3850
sS'i love the way you love me'
p3851
S'john michael montgomery'
p3852
sS'if it makes you happy'
p3853
S'sheryl crow'
p3854
sS'(you make me feel like) a natural woman (from "new york undercover")'
p3855
S'mary j. blige'
p3856
sS'i just want to dance with you'
p3857
S'george strait'
p3858
sS'club at the end of the street'
p3859
S'elton john'
p3860
sS'soon as i get home'
p3861
S'faith evans'
p3862
sS'tell me (from "eddie")'
p3863
S'dru hill'
p3864
sS'my, my, my'
p3865
S'johnny gill'
p3866
sS'rhythm of love'
p3867
S'dj company'
p3868
sS'things that make you go hmmmm...'
p3869
S'c+c music factory'
p3870
sS'right and hype'
p3871
S'abstrac'
p3872
sS'hit by love'
p3873
S'cece peniston'
p3874
sS'la familia'
p3875
S'frost'
p3876
sS'i like the way (the kissing game)'
p3877
S'hi-five'
p3878
sS'this is the way we roll'
p3879
S'm.c. hammer'
p3880
sS'i will remember you'
p3881
S'amy grant'
p3882
sS'caught a lite sneeze'
p3883
S'tori amos'
p3884
sS'down so long'
p3885
S'jewel'
p3886
sS'for the love of you'
p3887
S'jordan hill'
p3888
sS'here we come'
p3889
S'timbaland featuring missy "misdemeanor" elliott'
p3890
sS'pony'
p3891
S'ginuwine'
p3892
sS'cotton eye joe'
p3893
S'rednex'
p3894
sS'the memory remains'
p3895
S'metallica'
p3896
sS'louder than love'
p3897
S'tka'
p3898
sS'it s alright (from "south central")'
p3899
S'classic example'
p3900
sS'gone crazy'
p3901
S'alan jackson'
p3902
sS'come baby come'
p3903
S'k7'
p3904
sS'beautiful stranger'
p3905
S'madonna'
p3906
sS'steamy windows'
p3907
S'tina turner'
p3908
sS'gonna catch you (from "cool as ice")'
p3909
S'lonnie gordon'
p3910
sS'u don t know me (like u used to)'
p3911
S'brandy'
p3912
sS'mambo no. 5 (a little bit of...)'
p3913
S'lou bega'
p3914
sS'that s what love can do'
p3915
S'boy krazy'
p3916
sS'off the books'
p3917
S'the beatnuts featuring big punisher & cuban link'
p3918
sS'revolution (from "malcolm x")'
p3919
S'arrested development'
p3920
sS'faded pictures'
p3921
S'case'
p3922
sS'automatic lover (call for love)'
p3923
S'real mccoy'
p3924
sS'i don t know anybody else'
p3925
S'black box'
p3926
sS'love and understanding'
p3927
S'cher'
p3928
sS'i m already taken'
p3929
S'steve wariner'
p3930
sS'a man ain t made of stone'
p3931
S'randy travis'
p3932
sS'i luv u baby'
p3933
S'the original'
p3934
sS'hooked on a feeling (ooga-chaka)'
p3935
S'baby talk'
p3936
sS'my maria'
p3937
S'brooks & dunn'
p3938
sS'if i could change (from "i m bout it")'
p3939
S'master p featuring steady mobb n, mia x, mo b. dick'
p3940
sS'strange currencies'
p3941
S'r.e.m.'
p3942
sS'i do'
p3943
S'lisa loeb'
p3944
sS'power of love/love power'
p3945
S'luther vandross'
p3946
sS'crooklyn (from "crooklyn")'
p3947
S'the crooklyn dodgers'
p3948
sS'never should ve let you go (from "sister act 2")'
p3949
S'hi-five'
p3950
sS'bounce back'
p3951
S'alisha'
p3952
sS"dj keep playin' (get your music on)"
p3953
S'yvette michele'
p3954
sS'these are days'
p3955
S'10,000 maniacs'
p3956
sS"can't get you out of my mind"
p3957
S'lil suzy'
p3958
sS'runaway love'
p3959
S'johnny o'
p3960
sS'up all night'
p3961
S'slaughter'
p3962
sS'live for loving you'
p3963
S'gloria estefan'
p3964
sS'black velvet'
p3965
S'alannah myles'
p3966
sS'iesha'
p3967
S'another bad creation'
p3968
sS'dreaming of you'
p3969
S'selena'
p3970
sS'throw your set in the air'
p3971
S'cypress hill'
p3972
sS'backyard'
p3973
S'pebbles (with salt-n-pepa)'
p3974
sS'stranger in moscow'
p3975
S'michael jackson'
p3976
sS'i believe i can fly (from "space jam")'
p3977
S'r. kelly'
p3978
sS'pumps and a bump'
p3979
S'm.c. hammer'
p3980
sS"he can't love u"
p3981
S'jagged edge'
p3982
sS'stay (i missed you) (from "reality bites")'
p3983
S'lisa loeb'
p3984
sS'it s all about me'
p3985
S'mya'
p3986
sS'anytime'
p3987
S'mcauley schenker group'
p3988
sS'u.n.i.t.y.'
p3989
S'queen latifah'
p3990
sS'return of the crooklyn dodgers (from "clockers")'
p3991
S"crooklyn dodgers '95"
p3992
sS'part of me, part of you'
p3993
S'glenn frey'
p3994
sS'pleasure'
p3995
S'the soup dragons'
p3996
sS'dream'
p3997
S'forest for the trees'
p3998
sS'serenade'
p3999
S'shades'
p4000
sS'nuttin  but love'
p4001
S'heavy d'
p4002
sS'because i love you (the postman song)'
p4003
S'stevie b'
p4004
sS'better days (and the bottom drops out)'
p4005
S'citizen king'
p4006
sS'how do i live'
p4007
S'leann rimes'
p4008
sS'back up off me!'
p4009
S'doctor dre'
p4010
sS'still d.r.e.'
p4011
S'dr. dre featuring snoop dogg'
p4012
sS'signs'
p4013
S'tesla'
p4014
sS'you re the story of my life'
p4015
S'desmond child'
p4016
sS'hot boyz'
p4017
S'missy "misdemeanor" elliott featuring nas, eve & q-tip'
p4018
sS'nicety'
p4019
S'michel le'
p4020
sS'don t you come cryin '
p4021
S'linear'
p4022
sS'it s alright'
p4023
S'memphis bleek ('
p4024
sS'pray'
p4025
S'm.c. hammer'
p4026
sS'that s what love is for'
p4027
S'amy grant'
p4028
sS'it ain t hard to tell'
p4029
S'nas'
p4030
sS'drop dead gorgeous'
p4031
S'republica'
p4032
sS'harmless'
p4033
S'mulberry lane'
p4034
sS'wherever would i be'
p4035
S'cheap trick'
p4036
sS'you learn/you oughta know'
p4037
S'alanis morissette'
p4038
sS'the moment'
p4039
S'kenny g'
p4040
sS'l.a. woman'
p4041
S'billy idol'
p4042
sS'throw your hands up'
p4043
S'l.v.'
p4044
sS'did you ever think'
p4045
S'r. kelly'
p4046
sS'i ll go crazy'
p4047
S'andy griggs'
p4048
sS'someone'
p4049
S'swv (featuring puff daddy)'
p4050
sS'hurting kind (i ve got my eyes on you)'
p4051
S'robert plant'
p4052
sS'gonna love you right (from "sugar hill")'
p4053
S'after 7'
p4054
sS'you are the one'
p4055
S'chris cuevas'
p4056
sS'fly away'
p4057
S'lenny kravitz'
p4058
sS'unconditional love (from "menace ii society")'
p4059
S'hi-five'
p4060
sS'insensitive (from "bed of roses")'
p4061
S'jann arden'
p4062
sS'come with me'
p4063
S'puff daddy featuring jimmy page'
p4064
sS'what d you come here for?'
p4065
S'trina'
p4066
sS'i can see clearly now (from "cool runnings")'
p4067
S'jimmy cliff'
p4068
sS'you re in love'
p4069
S'wilson phillips'
p4070
sS'one more day'
p4071
S'new edition'
p4072
sS'mary jane s last dance'
p4073
S'tom petty and the heartbreakers'
p4074
sS'georgy porgy'
p4075
S'eric benet featuring faith evans'
p4076
sS"i don't want to wait"
p4077
S'paula cole'
p4078
sS"heaven's what i feel"
p4079
S'gloria estefan'
p4080
sS'always'
p4081
S'bon jovi'
p4082
sS"i'd do anything for love (but i won't do that)"
p4083
S'meat loaf'
p4084
sS'nothin  but the cavi hit (from "rhyme '
p4085
S'mack 10'
p4086
sS'the downeaster "alexa"'
p4087
S'billy joel'
p4088
sS'got to get'
p4089
S'leila k with rob  n  raz'
p4090
sS'no rain'
p4091
S'blind melon'
p4092
sS'da  dip'
p4093
S'freak nasty'
p4094
sS'take this heart'
p4095
S'richard marx'
p4096
sS'come and get with me'
p4097
S'keith sweat featuring snoop dogg'
p4098
sS'six feet deep'
p4099
S'geto boys'
p4100
sS'a smile like yours (from "a smile like yours")'
p4101
S'natalie cole'
p4102
sS'something in my heart'
p4103
S'michel le'
p4104
sS'energy'
p4105
S'devone'
p4106
sS'does she love that man?'
p4107
S'breathe featuring david glasper'
p4108
sS'nights like this (from "the five heartbeats")'
p4109
S'after 7'
p4110
sS'tonite'
p4111
S'dj quik'
p4112
sS'ain t that just the way'
p4113
S'lutricia mcneal'
p4114
sS'we want the funk'
p4115
S'gerardo'
p4116
sS'let me roll'
p4117
S'scarface'
p4118
sS'deck the halls'
p4119
S'shedaisy'
p4120
sS'swing the mood'
p4121
S'jive bunny'
p4122
sS'you suck'
p4123
S'the murmurs'
p4124
sS"i don't wanna be alone"
p4125
S'shai'
p4126
sS'never should\'ve let you go (from "sister act 2")'
p4127
S'hi-five'
p4128
sS'gotham city'
p4129
S'r. kelly'
p4130
sS'run away'
p4131
S'real mccoy'
p4132
sS'left & right'
p4133
S"d'angelo featuring method man and redman"
p4134
sS'sitting home'
p4135
S'total'
p4136
sS'the old apartment'
p4137
S'barenaked ladies'
p4138
sS'roll wit tha flava'
p4139
S'the flavor unit mc s'
p4140
sS'it s gonna be a lovely day'
p4141
S'the s.o.u.l. s.y.s.t.e.m.'
p4142
sS'the right kind of love (from "beverly hills, 90210")'
p4143
S'jeremy jordan'
p4144
sS'mr. wendal'
p4145
S'arrested development'
p4146
sS'the hardest thing'
p4147
S'98 degrees'
p4148
sS'into your arms'
p4149
S'the lemonheads'
p4150
sS'to the moon and back'
p4151
S'savage garden'
p4152
sS'i d do anything for love (but i won t do that)'
p4153
S'meat loaf'
p4154
sS"biological didn't bother"
p4155
S"shaquille o'neal"
p4156
sS'let it go (from "set it off")'
p4157
S'ray j'
p4158
sS'powerful thing'
p4159
S'trisha yearwood'
p4160
sS'we didn t start the fire'
p4161
S'billy joel'
p4162
sS"don't keep wasting my time"
p4163
S'teddy pendergrass'
p4164
sS'it s in your eyes'
p4165
S'phil collins'
p4166
sS'free fallin '
p4167
S'tom petty'
p4168
sS'bitter tears'
p4169
S'inxs'
p4170
sS'biological didn t bother'
p4171
S'shaquille o neal'
p4172
sS'old man & me (when i get to heaven)'
p4173
S'hootie & the blowfish'
p4174
sS'more than words can say'
p4175
S'alias'
p4176
sS'step into a world (rapture s delight)'
p4177
S'krs-one'
p4178
sS'have a little mercy'
p4179
S'4.0'
p4180
sS'the secret garden'
p4181
S'quincy jones'
p4182
sS'6 minutes of pleasure'
p4183
S'll cool j'
p4184
sS'more than ever'
p4185
S'nelson'
p4186
sS'keepin  up'
p4187
S'alabama'
p4188
sS'neon moonlight'
p4189
S'rosco martinez'
p4190
sS'definition'
p4191
S'mos def'
p4192
sS"floatin' on your love"
p4193
S'the isley brothers featuring angela winbush'
p4194
sS'come on'
p4195
S'billy lawrence featuring mc lyte'
p4196
sS'so close'
p4197
S'dina carroll'
p4198
sS'smokin  me out'
p4199
S'warren g featuring ronald isley'
p4200
sS"cleopatra's theme"
p4201
S'cleopatra'
p4202
sS'heartbeat'
p4203
S'seduction'
p4204
sS'the angel song'
p4205
S'great white'
p4206
sS"lookin' at me"
p4207
S'mase featuring puff daddy'
p4208
sS'girls  best friend'
p4209
S'jay-z'
p4210
sS'this is your night'
p4211
S'amber'
p4212
sS'come in out of the rain'
p4213
S'wendy moten'
p4214
sS'my name is prince'
p4215
S'prince and the new power generation'
p4216
sS'valentine'
p4217
S'martina mcbride with jim brickman'
p4218
sS'hooked on you'
p4219
S'silk'
p4220
sS'i touch myself'
p4221
S'divinyls'
p4222
sS'all around the world'
p4223
S'lisa stansfield'
p4224
sS'she talks to angels'
p4225
S'the black crowes'
p4226
sS'sick of myself'
p4227
S'matthew sweet'
p4228
sS'fire'
p4229
S'subway'
p4230
sS'big deal'
p4231
S'leann rimes'
p4232
sS'paper doll'
p4233
S'p.m. dawn'
p4234
sS'building a mystery'
p4235
S'sarah mclachlan'
p4236
sS'love at first sight'
p4237
S'styx'
p4238
sS'funkdafied'
p4239
S'da brat'
p4240
sS'freak me baby'
p4241
S"dis `n' dat feat. 95 south,69 boyz & k-nock"
p4242
sS'feels so good'
p4243
S'xscape'
p4244
sS'i m not satisfied'
p4245
S'fine young cannibals'
p4246
sS'we must be in love'
p4247
S'pure soul'
p4248
sS'going back to cali'
p4249
S'the notorious b.i.g.'
p4250
sS'wonderful'
p4251
S'adam ant'
p4252
sS'that s what i like'
p4253
S'jive bunny'
p4254
sS'temptations'
p4255
S'2pac'
p4256
sS't.l.c.'
p4257
S'linear'
p4258
sS'personal jesus'
p4259
S'depeche mode'
p4260
sS'give him a love he can feel'
p4261
S'tene williams'
p4262
sS'give you what you want (fa sure)'
p4263
S'chico debarge'
p4264
sS"what's it to you"
p4265
S'clay walker'
p4266
sS'count on me (from "waiting to exhale")'
p4267
S'whitney houston & cece winans'
p4268
sS'i got 5 on it'
p4269
S'luniz'
p4270
sS'doubleback (from "back to the future part iii")'
p4271
S'zz top'
p4272
sS'where have all the cowboys gone?'
p4273
S'paula cole'
p4274
sS'hit me off'
p4275
S'new edition'
p4276
sS'do it to me'
p4277
S'lionel richie'
p4278
sS'sun s gonna rise'
p4279
S'sass jordan'
p4280
sS'believe'
p4281
S'cher'
p4282
sS'jump'
p4283
S'kris kross'
p4284
sS'get lifted'
p4285
S'keith murray'
p4286
sS'walking in memphis'
p4287
S'marc cohn'
p4288
sS'mo money mo problems'
p4289
S'the notorious b.i.g. featuring puff daddy & mase'
p4290
sS'total eclipse of the heart'
p4291
S'nicki french'
p4292
sS'drowning in your eyes'
p4293
S'ephraim lewis'
p4294
sS'gett off'
p4295
S'prince and the n.p.g.'
p4296
sS'get it together'
p4297
S'702'
p4298
sS'gold diggin  girls'
p4299
S'mc nas-d'
p4300
sS'have you ever needed someone so bad'
p4301
S'def leppard'
p4302
sS"i can't tell you why"
p4303
S'brownstone'
p4304
sS'hate me now'
p4305
S'nas featuring puff daddy'
p4306
sS'never gonna let you go'
p4307
S'faith evans'
p4308
sS'on the way up'
p4309
S'elisa fiorillo'
p4310
sS'better than you'
p4311
S'lisa keith'
p4312
sS'third rock from the sun'
p4313
S'joe diffie'
p4314
sS'twilight zone'
p4315
S'2 unlimited'
p4316
sS'bad reputation'
p4317
S'freedy johnston'
p4318
sS'baby be there'
p4319
S'nu flavor'
p4320
sS'you don t know nothin '
p4321
S'for real'
p4322
sS'i m leaving'
p4323
S'aaron tippin'
p4324
sS'mind playing tricks on me'
p4325
S'geto boys'
p4326
sS'un-break my heart'
p4327
S'toni braxton'
p4328
sS'i have nothing (from "the bodyguard")'
p4329
S'whitney houston'
p4330
sS'street of dreams'
p4331
S'nia peeples'
p4332
sS'cumbersome'
p4333
S'seven mary three'
p4334
sS'shy guy (from "bad boys")'
p4335
S'diana king'
p4336
sS'this old heart of mine'
p4337
S'rod stewart with ronald isley'
p4338
sS'hopelessly'
p4339
S'rick astley'
p4340
sS"baby it's you"
p4341
S'the beatles'
p4342
sS'you know my steez'
p4343
S'gang starr'
p4344
sS'faces of love'
p4345
S'nia peeples'
p4346
sS'lily was here'
p4347
S'david a. stewart introducing candy dulfer'
p4348
sS'send my love/send one your love'
p4349
S'born jamericans'
p4350
sS'drag my bad name down'
p4351
S'the 4 of us'
p4352
sS'1st of tha month'
p4353
S'bone thugs-n-harmony'
p4354
sS"you don't know how it feels"
p4355
S'tom petty'
p4356
sS'anytime you need a friend'
p4357
S'mariah carey'
p4358
sS'give it to me good'
p4359
S'trixter'
p4360
sS'no guns, no murder'
p4361
S'rayvon'
p4362
sS'never leave me alone'
p4363
S'nate dogg featuring snoop doggy dogg'
p4364
sS'for your love'
p4365
S'stevie wonder'
p4366
sS'hanginaround'
p4367
S'counting crows'
p4368
sS'down for yours'
p4369
S'nastyboy klick featuring roger troutman'
p4370
sS'reach'
p4371
S'gloria estefan'
p4372
sS'how am i supposed to live without you'
p4373
S'michael bolton'
p4374
sS'seal our fate'
p4375
S'gloria estefan'
p4376
sS'staring at the sun'
p4377
S'u2'
p4378
sS'gettin  jiggy wit it'
p4379
S'will smith'
p4380
sS'sending my love'
p4381
S'zhane'
p4382
sS'rhythm is a dancer'
p4383
S'snap'
p4384
sS'i m your angel'
p4385
S'r. kelly'
p4386
sS'too gone, too long'
p4387
S'en vogue'
p4388
sS'still not a player'
p4389
S'big punisher featuring joe'
p4390
sS'passin  me by'
p4391
S'the pharcyde'
p4392
sS'more than this'
p4393
S'10,000 maniacs'
p4394
sS"dancin'"
p4395
S'guy'
p4396
sS'achy breaky heart'
p4397
S'billy ray cyrus'
p4398
sS'satisfy you'
p4399
S'puff daddy featuring r. kelly'
p4400
sS'bohemian rhapsody'
p4401
S'queen'
p4402
sS'sometimes'
p4403
S'britney spears'
p4404
sS"don't look back in anger"
p4405
S'oasis'
p4406
sS'whoot, there it is'
p4407
S'95 south'
p4408
sS'horse & carriage'
p4409
S"cam'ron featuring mase"
p4410
sS'got to get it'
p4411
S'sisqo featuring make it hot'
p4412
sS'leavin '
p4413
S'the tony rich project'
p4414
sS'where do you go'
p4415
S'no mercy'
p4416
sS'all i need is you'
p4417
S'blue train'
p4418
sS'l-l-lies'
p4419
S'diana king'
p4420
sS'afro puffs'
p4421
S'the lady of rage'
p4422
sS'short dick man'
p4423
S'20 fingers featuring gillette'
p4424
sS'i like it, i love it'
p4425
S'tim mcgraw'
p4426
sS'here s your sign (get the picture)'
p4427
S'bill engvall with special guest travis tritt'
p4428
sS'wide open spaces'
p4429
S'dixie chicks'
p4430
sS'soul food'
p4431
S'goodie mob.'
p4432
sS'soul to squeeze (from "coneheads")'
p4433
S'red hot chili peppers'
p4434
sS'play that funky music'
p4435
S'vanilla ice'
p4436
sS"money ain't a thang"
p4437
S'jd featuring jay-z'
p4438
sS'at the beginning'
p4439
S'richard marx & donna lewis'
p4440
sS'phenomenon'
p4441
S'll cool j'
p4442
sS'gold'
p4443
S'prince'
p4444
sS'that thing you do! (from "that thing you do!")'
p4445
S'the wonders'
p4446
sS'what s so different'
p4447
S'ginuwine'
p4448
sS'keeper of the flame'
p4449
S'martin page'
p4450
sS'is it good to you'
p4451
S'heavy d'
p4452
sS'addams groove'
p4453
S'm.c. hammer'
p4454
sS'can i get a...'
p4455
S'jay-z featuring amil (of major coinz)'
p4456
sS'juicy/unbelievable'
p4457
S'the notorious b.i.g.'
p4458
sS'look into my eyes (from "batman & robin")'
p4459
S'bone thugs-n-harmony'
p4460
sS"leavin'"
p4461
S'the tony rich project'
p4462
sS'safe + sound'
p4463
S'dj quik'
p4464
sS'somebody s out there watching'
p4465
S'the kinleys'
p4466
sS'when the night comes'
p4467
S'joe cocker'
p4468
sS'bad bad boys'
p4469
S'midi maxi'
p4470
sS'strawberry wine'
p4471
S'deana carter'
p4472
sS'they don t know'
p4473
S'jon b.'
p4474
sS'world (the price of love)'
p4475
S'new order'
p4476
sS'gotta have you (from "jungle fever")'
p4477
S'stevie wonder'
p4478
sS'silly ho'
p4479
S'tlc'
p4480
sS'you remind me (from "strictly business")'
p4481
S'mary j. blige'
p4482
sS'all i see'
p4483
S'a+'
p4484
sS'microphone master'
p4485
S'das efx (featuring mobb deep)'
p4486
sS'all that glitters isn t gold'
p4487
S'the cover girls'
p4488
sS'the note'
p4489
S'daryle singletary'
p4490
sS'tell the truth'
p4491
S'jude cole'
p4492
sS'come to my window'
p4493
S'melissa etheridge'
p4494
sS'true love'
p4495
S'elton john'
p4496
sS'rainy days'
p4497
S'general public'
p4498
sS'meanwhile'
p4499
S'george strait'
p4500
sS'where my girls at?'
p4501
S'702'
p4502
sS'hey stoopid'
p4503
S'alice cooper'
p4504
sS'sweet thing'
p4505
S'mary j. blige'
p4506
sS'fu-gee-la'
p4507
S'fugees'
p4508
sS'first true love'
p4509
S'tiana'
p4510
sS'remedy'
p4511
S'the black crowes'
p4512
sS'walk on the ocean'
p4513
S'toad the wet sprocket'
p4514
sS'pretending'
p4515
S'eric clapton'
p4516
sS'funkorama'
p4517
S'redman'
p4518
sS'games people play'
p4519
S'inner circle'
p4520
sS'too late to say goodbye'
p4521
S'richard marx'
p4522
sS'love shack'
p4523
S'the b-52 s'
p4524
sS'each and every time'
p4525
S'sweet sensation'
p4526
sS'come clean'
p4527
S'jeru the damaja'
p4528
sS'i got a man'
p4529
S'positive k'
p4530
sS'angel baby'
p4531
S'angelica'
p4532
sS'that s not her style'
p4533
S'billy joel'
p4534
sS"if you think you're lonely now"
p4535
S'k-ci hailey'
p4536
sS'esa nena linda'
p4537
S'artie the 1 man party'
p4538
sS'the i.n.c. ride'
p4539
S'masta ace incorporated'
p4540
sS'body '
p4541
S'anita baker'
p4542
sS'no matter what'
p4543
S'george lamond (duet with brenda k. starr)'
p4544
sS'absence of the heart'
p4545
S'deana carter'
p4546
sS'ring my bell'
p4547
S'd.j. jazzy jeff'
p4548
sS'do you want me'
p4549
S'salt-n-pepa'
p4550
sS'summertime in the lbc (from "the show")'
p4551
S'the dove shack'
p4552
sS'blackberry molasses'
p4553
S'mista'
p4554
sS'right beside you'
p4555
S'sophie b. hawkins'
p4556
sS'walk on by'
p4557
S'sybil'
p4558
sS'wild women do (from "pretty woman")'
p4559
S'natalie cole'
p4560
sS'foe tha love of $'
p4561
S'bone thugs-n-harmony featuring eazy-e'
p4562
sS"don't rush"
p4563
S'silk'
p4564
sS'chante s got a man'
p4565
S'chante moore'
p4566
sS'speed'
p4567
S'alpha team'
p4568
sS'the arms of the one who loves you'
p4569
S'xscape'
p4570
sS'please'
p4571
S'the kinleys'
p4572
sS'hot spot'
p4573
S'foxy brown'
p4574
sS'the chemicals between us'
p4575
S'bush'
p4576
sS'humpin  around'
p4577
S'bobby brown'
p4578
sS'something good'
p4579
S'utah saints'
p4580
sS'because of love'
p4581
S'janet jackson'
p4582
sS'only time will tell'
p4583
S'nelson'
p4584
sS'mental picture'
p4585
S'jon secada'
p4586
sS'right on the money'
p4587
S'alan jackson'
p4588
sS'oooh this i need'
p4589
S'elisa fiorillo'
p4590
sS'gone till november'
p4591
S'wyclef jean'
p4592
sS'bad of the heart'
p4593
S'george lamond'
p4594
sS'let the beat hit  em'
p4595
S'lisa lisa'
p4596
sS"gettin' jiggy wit it"
p4597
S'will smith'
p4598
sS'too blind to see it'
p4599
S'kym sims'
p4600
sS'missing'
p4601
S'everything but the girl'
p4602
sS'get money'
p4603
S'junior m.a.f.i.a. featuring the notorious b.i.g.'
p4604
sS'the last worthless evening'
p4605
S'don henley'
p4606
sS'i remember you'
p4607
S'skid row'
p4608
sS'all i wanna do'
p4609
S'sheryl crow'
p4610
sS'hang in long enough'
p4611
S'phil collins'
p4612
sS'auld lang syne'
p4613
S'kenny g'
p4614
sS'the mummers  dance'
p4615
S'loreena mckennitt'
p4616
sS'girl u for me/lose control'
p4617
S'silk'
p4618
sS'beautiful girl'
p4619
S'inxs'
p4620
sS'right here (human nature)/downtown'
p4621
S'swv'
p4622
sS'my body'
p4623
S'lsg'
p4624
sS'last night on earth'
p4625
S'u2'
p4626
sS'you lied to me'
p4627
S'cathy dennis'
p4628
sS'he didn t have to be'
p4629
S'brad paisley'
p4630
sS'keep it comin  (dance till you can t dance no more!)'
p4631
S'c+c music factory'
p4632
sS'crimson and clover'
p4633
S'sf spanish fly'
p4634
sS'straight to your heart'
p4635
S'bad english'
p4636
sS'divine thing'
p4637
S'the soup dragons'
p4638
sS'one sweet day'
p4639
S'mariah carey & boyz ii men'
p4640
sS'bailamos'
p4641
S'enrique iglesias'
p4642
sS"'til you do me right"
p4643
S'after 7'
p4644
sS'that s the way it is'
p4645
S'celine dion'
p4646
sS'steelo'
p4647
S'702'
p4648
sS'she s playing hard to get'
p4649
S'hi-five'
p4650
sS'man behind the music'
p4651
S'queen pen featuring teddy riley'
p4652
sS'you know how we do it'
p4653
S'ice cube'
p4654
sS'say it'
p4655
S'voices of theory'
p4656
sS'whatever'
p4657
S'en vogue'
p4658
sS'shut up and kiss me'
p4659
S'mary chapin carpenter'
p4660
sS'tennessee'
p4661
S'arrested development'
p4662
sS'i got cha opin'
p4663
S'black moon'
p4664
sS'to be with you'
p4665
S'mr. big'
p4666
sS'ava adore'
p4667
S'the smashing pumpkins'
p4668
sS'what kind of man would i be?'
p4669
S'chicago'
p4670
sS'close to me'
p4671
S'the cure'
p4672
sS'360 degrees (what goes around)'
p4673
S'grand puba'
p4674
sS'secret'
p4675
S'madonna'
p4676
sS"love don't live here anymore"
p4677
S'madonna'
p4678
sS'sadeness part 1'
p4679
S'enigma'
p4680
sS'there will never be another tonight'
p4681
S'bryan adams'
p4682
sS'sexual (li da di)'
p4683
S'amber'
p4684
sS"i'll never stop loving you"
p4685
S"j'son"
p4686
sS'home to you'
p4687
S'john michael montgomery'
p4688
sS'angeline is coming home'
p4689
S'the badlees'
p4690
sS'what mattered most'
p4691
S'ty herndon'
p4692
sS'could this be love'
p4693
S'seduction'
p4694
sS'more than words'
p4695
S'extreme'
p4696
sS'the rhythm of the night'
p4697
S'corona'
p4698
sS"let's play house"
p4699
S"tha dogg pound featuring michel'le"
p4700
sS'what if i said'
p4701
S'anita cochran (duet with steve wariner)'
p4702
sS'the city is mine'
p4703
S'jay-z  featuring blackstreet'
p4704
sS'awake'
p4705
S'letters to cleo'
p4706
sS'nastradamus'
p4707
S'nas'
p4708
sS'be happy'
p4709
S'mary j. blige'
p4710
sS'do you everynite'
p4711
S'joe public'
p4712
sS'all the things (your man won\'t do) (from "don\'t be a menace...")'
p4713
S'joe'
p4714
sS'what will i do'
p4715
S'timmy t'
p4716
sS'get on up'
p4717
S'jodeci'
p4718
sS'the promise of a new day'
p4719
S'paula abdul'
p4720
sS'black cat'
p4721
S'janet jackson'
p4722
sS'blind man'
p4723
S'aerosmith'
p4724
sS'so many ways (from "high school high")'
p4725
S'the braxtons'
p4726
sS'frozen'
p4727
S'madonna'
p4728
sS'bill'
p4729
S'peggy scott-adams'
p4730
sS"let's get it on"
p4731
S'shabba ranks'
p4732
sS'don t close your eyes'
p4733
S'kix'
p4734
sS'fly to the angels'
p4735
S'slaughter'
p4736
sS'no more lies'
p4737
S'michel le'
p4738
sS'like a woman'
p4739
S'the tony rich project'
p4740
sS'blue sky mine'
p4741
S'midnight oil'
p4742
sS'i m not giving you up'
p4743
S'gloria estefan'
p4744
sS'you showed me'
p4745
S'salt-n-pepa'
p4746
sS"money's just a touch away"
p4747
S'mack 10 featuring gerald levert'
p4748
sS'little miss can t be wrong'
p4749
S'spin doctors'
p4750
sS"i wasn't with it"
p4751
S'jesse powell'
p4752
sS'i m still in love with you'
p4753
S'new edition'
p4754
sS'rockin  over the beat'
p4755
S'technotronic'
p4756
sS'genie in a bottle'
p4757
S'christina aguilera'
p4758
sS'more and more'
p4759
S'captain hollywood project'
p4760
sS'to love somebody'
p4761
S'michael bolton'
p4762
sS'kiss the rain'
p4763
S'billie myers'
p4764
sS'cry for you'
p4765
S'jodeci'
p4766
sS'can t forget you'
p4767
S'gloria estefan'
p4768
sS'vow'
p4769
S'garbage'
p4770
sS'macarena'
p4771
S'los del rio'
p4772
sS'the way that you love'
p4773
S'vanessa williams'
p4774
sS'glycerine'
p4775
S'bush'
p4776
sS'temple of love'
p4777
S'harriet'
p4778
sS'i will come to you'
p4779
S'hanson'
p4780
sS"don't say you love me"
p4781
S'm2m'
p4782
sS'i m so into you'
p4783
S'swv'
p4784
sS'this time make it funky'
p4785
S'tracie spencer'
p4786
sS'you got it (from "boys on the side")'
p4787
S'bonnie raitt'
p4788
sS'leflaur leflah eshkushka'
p4789
S'heltah skeltah and o.g.c. as the fab 5'
p4790
sS'i ll still love you more'
p4791
S'trisha yearwood'
p4792
sS'hole in my soul'
p4793
S'aerosmith'
p4794
sS"happenin' all over again"
p4795
S'lonnie gordon'
p4796
sS'lick u up'
p4797
S'h-town'
p4798
sS'my first night with you'
p4799
S'mya'
p4800
sS'you could be mine'
p4801
S'guns n  roses'
p4802
sS'come and get your love'
p4803
S'real mccoy'
p4804
sS'borrowed love'
p4805
S'bingo boys'
p4806
sS'best friend'
p4807
S'brandy'
p4808
sS'knocks me off my feet'
p4809
S'donell jones'
p4810
sS'friends'
p4811
S'john michael montgomery'
p4812
sS'do you wanna get funky'
p4813
S'c+c music factory'
p4814
sS'93  til infinity'
p4815
S'souls of mischief'
p4816
sS'money in the ghetto'
p4817
S'too short'
p4818
sS'livin  on the edge'
p4819
S'aerosmith'
p4820
sS"they don't know"
p4821
S'jon b'
p4822
sS'in my dreams'
p4823
S'the party'
p4824
sS'everything s gonna be alright'
p4825
S'sweetbox'
p4826
sS'this is how we party'
p4827
S's.o.a.p.'
p4828
sS'waterfalls'
p4829
S'tlc'
p4830
sS'stroke you up'
p4831
S'changing faces'
p4832
sS'remember me this way (from "casper")'
p4833
S'jordan hill'
p4834
sS'no son of mine'
p4835
S'genesis'
p4836
sS'the world tonight (from "fathers  day")'
p4837
S'paul mccartney'
p4838
sS'all for you'
p4839
S'sister hazel'
p4840
sS'whispers'
p4841
S'corina'
p4842
sS"something's always wrong"
p4843
S'toad the wet sprocket'
p4844
sS'boot scootin  boogie'
p4845
S'brooks'
p4846
sS'from a distance'
p4847
S'bette midler'
p4848
sS'i hate u'
p4849
S'prince'
p4850
sS'scar tissue'
p4851
S'red hot chili peppers'
p4852
sS"1, 2, 3, 4 (sumpin' new)"
p4853
S'coolio'
p4854
sS'only when i lose myself'
p4855
S'depeche mode'
p4856
sS'i saw you dancing'
p4857
S'yaki-da'
p4858
sS'something happened on the way to heaven'
p4859
S'phil collins'
p4860
sS'out of my head'
p4861
S'fastball'
p4862
sS'when love & hate collide'
p4863
S'def leppard'
p4864
sS"that's how it is (it's like that)"
p4865
S'redman featuring k-solo'
p4866
sS'strawberry letter 23'
p4867
S'tevin campbell'
p4868
sS'i don t know'
p4869
S'michael morales'
p4870
sS'a song for mama'
p4871
S'boyz ii men'
p4872
sS'my best friend'
p4873
S'tim mcgraw'
p4874
sS'i didn t want to need you'
p4875
S'heart'
p4876
sS'good heart'
p4877
S'starship'
p4878
sS'i wanna get back with you'
p4879
S'louie louie'
p4880
sS'one honest heart'
p4881
S'reba'
p4882
sS'i m every woman (from "the bodyguard")'
p4883
S'whitney houston'
p4884
sS'taking everything'
p4885
S'gerald levert'
p4886
sS'100% pure love'
p4887
S'crystal waters'
p4888
sS"don't wanna lose you"
p4889
S'lionel richie'
p4890
sS'so much in love'
p4891
S'all-4-one'
p4892
sS'molly (sixteen candles)'
p4893
S'sponge'
p4894
sS'everybody move'
p4895
S'cathy dennis'
p4896
sS'don t be afraid'
p4897
S'aaron hall'
p4898
sS'love and emotion'
p4899
S'stevie b'
p4900
sS'who s got your love'
p4901
S'nyasia'
p4902
sS'the shoop shoop song (it s in his kiss)'
p4903
S'cher'
p4904
sS'purple medley'
p4905
S'prince'
p4906
sS'show me the meaning of being lonely'
p4907
S'backstreet boys'
p4908
sS'keep it together'
p4909
S'madonna'
p4910
sS'love is a killer'
p4911
S'vixen'
p4912
sS'i can t dance'
p4913
S'genesis'
p4914
sS'my heart belongs to you'
p4915
S'russ irwin'
p4916
sS'tomorrow (a better you, better me)'
p4917
S'quincy jones with tevin campbell'
p4918
sS'homies'
p4919
S'lighter shade of brown'
p4920
sS'fly like an eagle (from "space jam")'
p4921
S'seal'
p4922
sS'another night'
p4923
S'real mccoy'
p4924
sS'can we talk'
p4925
S'tevin campbell'
p4926
sS"just kickin' it"
p4927
S'xscape'
p4928
sS"ain't no future in yo' fronting"
p4929
S'm.c. breed & d.f.c.'
p4930
sS'serious kinda girl'
p4931
S'christopher max'
p4932
sS'little bitty'
p4933
S'alan jackson'
p4934
sS'maria'
p4935
S'blondie'
p4936
sS'make em  say uhh!'
p4937
S'master p feat. fiend, silkk the shocker, mia x'
p4938
sS'don t talk just kiss'
p4939
S'right said fred'
p4940
sS'my fallen angel'
p4941
S'coro'
p4942
sS'lost in love'
p4943
S'nastyboy klick'
p4944
sS'(you drive me) crazy'
p4945
S'britney spears'
p4946
sS'redneck stomp'
p4947
S'jeff foxworthy'
p4948
sS'anything at all'
p4949
S'mitch malloy'
p4950
sS'what s love got to do with it (from "supercop")'
p4951
S'warren g featuring adina howard'
p4952
sS'brian wilson'
p4953
S'barenaked ladies'
p4954
sS"the theme (it's party time)"
p4955
S'tracey lee'
p4956
sS'say you ll be there'
p4957
S'spice girls'
p4958
sS"release yo' delf"
p4959
S'method man'
p4960
sS'scent of attraction'
p4961
S'patra duet with aaron hall'
p4962
sS'come undone'
p4963
S'duran duran'
p4964
sS'don\'t let go (love) (from "set it off")'
p4965
S'en vogue'
p4966
sS'on point'
p4967
S'house of pain'
p4968
sS'sleeping in my car'
p4969
S'roxette'
p4970
sS'wiggle it'
p4971
S'2 in a room'
p4972
sS'chorus'
p4973
S'erasure'
p4974
sS'cryin '
p4975
S'aerosmith'
p4976
sS'candle in the wind 1997/something about the way you look tonight'
p4977
S'elton john'
p4978
sS"cryin'"
p4979
S'aerosmith'
p4980
sS'tell me what you dream'
p4981
S'restless heart featuring warren hill'
p4982
sS'it s not right but it s okay'
p4983
S'whitney houston'
p4984
sS'hey now (girls just want to have fun)'
p4985
S'cyndi lauper'
p4986
sS'king of wishful thinking (from "pretty woman")'
p4987
S'go west'
p4988
sS'back to the bullet'
p4989
S'saraya'
p4990
sS'i ll take her'
p4991
S'ill al skratch featuring brian mcknight'
p4992
sS'if i could teach the world'
p4993
S'bone thugs-n-harmony'
p4994
sS'take it back'
p4995
S'pink floyd'
p4996
sS'if you (lovin  me)'
p4997
S'silk'
p4998
sS'bullet with butterfly wings'
p4999
S'the smashing pumpkins'
p5000
sS"i'm so happy i can't stop crying"
p5001
S'toby keith with sting'
p5002
sS'just another girlfriend'
p5003
S'hi-five'
p5004
sS'let s get rocked'
p5005
S'def leppard'
p5006
sS'no sunshine'
p5007
S'kid frost'
p5008
sS'candy'
p5009
S'mandy moore'
p5010
sS'jump!'
p5011
S'the movement'
p5012
sS'sex and candy'
p5013
S'marcy playground'
p5014
sS'trippin '
p5015
S'total featuring missy elliott'
p5016
sS'jigga my n****'
p5017
S'jay-z'
p5018
sS"trippin'"
p5019
S'total featuring missy elliott'
p5020
sS'you ve got a way'
p5021
S'shania twain'
p5022
sS'irresistible'
p5023
S'cathy dennis'
p5024
sS'scream/childhood (from "free willy 2")'
p5025
S'michael jackson & janet jackson'
p5026
sS'never keeping secrets'
p5027
S'babyface'
p5028
sS"don't say goodbye girl"
p5029
S'tevin campbell'
p5030
sS'larger than life'
p5031
S'backstreet boys'
p5032
sS'free as a bird'
p5033
S'the beatles'
p5034
sS'we can t go wrong'
p5035
S'the cover girls'
p5036
sS'g.h.e.t.t.o.u.t.'
p5037
S'changing faces'
p5038
sS'for you i will'
p5039
S'aaron tippin'
p5040
sS'cry no more'
p5041
S'ii d extreme'
p5042
sS'floatin  on your love'
p5043
S'the isley brothers featuring angela winbush'
p5044
sS'cover you in kisses'
p5045
S'john michael montgomery'
p5046
sS'i live my life for you'
p5047
S'firehouse'
p5048
sS'3 a.m. eternal'
p5049
S'the klf'
p5050
sS'i love music (from "carlito s way")'
p5051
S'rozalla'
p5052
sS'bump n  grind'
p5053
S'r. kelly'
p5054
sS'where the streets have no name'
p5055
S'pet shop boys'
p5056
sS'epic'
p5057
S'faith no more'
p5058
sS'the swalk'
p5059
S'notorious'
p5060
sS'get over it'
p5061
S'eagles'
p5062
sS'i belong to you (every time i see your face)'
p5063
S'rome'
p5064
sS"don't stop the music"
p5065
S'playa'
p5066
sS'all true man'
p5067
S'alexander o neal'
p5068
sS'run'
p5069
S'collective soul'
p5070
sS'what about your friends'
p5071
S'tlc'
p5072
sS'the way you do the things you do'
p5073
S'ub40'
p5074
sS'tap the bottle'
p5075
S'young black teenagers'
p5076
sS'life goes on'
p5077
S'poison'
p5078
sS'i know where it s at'
p5079
S'all saints'
p5080
sS'roll to me'
p5081
S'del amitri'
p5082
sS'bust a move'
p5083
S'young mc'
p5084
sS'touch it'
p5085
S'monifah'
p5086
sS'love u 4 life'
p5087
S'jodeci'
p5088
sS'i wanna know'
p5089
S'joe'
p5090
sS'mishale'
p5091
S'andru donalds'
p5092
sS'shine'
p5093
S'collective soul'
p5094
sS'sho nuff'
p5095
S'tela featuring eightball & mjg'
p5096
sS'spin spin sugar'
p5097
S'sneaker pimps'
p5098
sS'anything'
p5099
S'3t'
p5100
sS'bohemian rhapsody (from "high school high")'
p5101
S'the braids'
p5102
sS'foolish games/you were meant for me'
p5103
S'jewel'
p5104
sS'you won t forget me'
p5105
S'la bouche'
p5106
sS'gonna make you sweat'
p5107
S'c+c music factory'
p5108
sS'sittin\' up in my room (from "waiting to exhale")'
p5109
S'brandy'
p5110
sS'shelter me'
p5111
S'cinderella'
p5112
sS"he didn't have to be"
p5113
S'brad paisley'
p5114
sS'housecall'
p5115
S'shabba ranks/maxi priest'
p5116
sS'slam dunk'
p5117
S'five'
p5118
sS'i m not over you'
p5119
S'cece peniston'
p5120
sS'are you that somebody?'
p5121
S'aaliyah'
p5122
sS'there s a party going on'
p5123
S'yvonne'
p5124
sS'know what you mean'
p5125
S'sister 7'
p5126
sS'what s stopping you'
p5127
S'the o jays'
p5128
sS'this one s for the children'
p5129
S'new kids on the block'
p5130
sS'knockin  boots'
p5131
S'candyman'
p5132
sS'the right kinda lover'
p5133
S'patti labelle'
p5134
sS'before you walk out of my life/like this and like that'
p5135
S'monica'
p5136
sS'the freshmen'
p5137
S'the verve pipe'
p5138
sS'all 4 love'
p5139
S'color me badd'
p5140
sS"the dolphin's cry"
p5141
S'live'
p5142
sS'black coffee'
p5143
S'heavy d & the boyz'
p5144
sS'you walked in'
p5145
S'lonestar'
p5146
sS'gotta be...movin  on up'
p5147
S'prince be'
p5148
sS'get up! (before the night is over)'
p5149
S'technotronic'
p5150
sS'sound of da police'
p5151
S'krs-one'
p5152
sS'look into my eyes'
p5153
S'george lamond'
p5154
sS'have fun, go mad'
p5155
S'blair'
p5156
sS'show me'
p5157
S'howard hewett'
p5158
sS'black or white'
p5159
S'michael jackson'
p5160
sS'the keeper of the stars'
p5161
S'tracy byrd'
p5162
sS'my boo'
p5163
S'ghost town dj s'
p5164
sS'right here, right now'
p5165
S'jesus jones'
p5166
sS'all nite'
p5167
S'entouch featuring keith sweat'
p5168
sS'don t lose the magic'
p5169
S'shawn christopher'
p5170
sS'let s ride'
p5171
S'montell jordan feat. master p'
p5172
sS'dream lover'
p5173
S'the rebel pebbles'
p5174
sS'summertime'
p5175
S'd.j. jazzy jeff'
p5176
sS'drive me wild'
p5177
S'sawyer brown'
p5178
sS'shifftee'
p5179
S'onyx'
p5180
sS'when i close my eyes'
p5181
S'shanice'
p5182
sS'that s the way of the world'
p5183
S'd-mob with cathy dennis'
p5184
sS'march of the pigs'
p5185
S'nine inch nails'
p5186
sS'all night long'
p5187
S'faith evans featuring puff daddy'
p5188
sS'lost soul'
p5189
S'bruce hornsby'
p5190
sS'stand up'
p5191
S'love tribe'
p5192
sS'cold rock a party'
p5193
S'mc lyte'
p5194
sS'the most beautifullest thing in this world'
p5195
S'keith murray'
p5196
sS'brokenhearted'
p5197
S'brandy'
p5198
sS'love of my life'
p5199
S'sammy kershaw'
p5200
sS'do you feel like i feel?'
p5201
S'belinda carlisle'
p5202
sS'take me there'
p5203
S'blackstreet'
p5204
sS'i m in love'
p5205
S'lisa keith'
p5206
sS'one heart at a time'
p5207
S'various artists'
p5208
sS'hey d.j. (from "mi vida loca")'
p5209
S'lighter shade of brown'
p5210
sS'georgia on my mind'
p5211
S'michael bolton'
p5212
sS'it s your thing'
p5213
S'mercedes featuring master p'
p5214
sS'girl, you\'ll be a woman soon (from "pulp fiction")'
p5215
S'urge overkill'
p5216
sS'big poppa/warning'
p5217
S'the notorious b.i.g.'
p5218
sS'tell me where it hurts'
p5219
S'kathy troccoli'
p5220
sS'girl, you ll be a woman soon (from "pulp fiction")'
p5221
S'urge overkill'
p5222
sS'show me the way'
p5223
S'styx'
p5224
sS'the dream is still alive'
p5225
S'wilson phillips'
p5226
sS'no more tears'
p5227
S'ozzy osbourne'
p5228
sS'love sneakin  up on you'
p5229
S'bonnie raitt'
p5230
sS'come as you are'
p5231
S'nirvana'
p5232
sS"it's the things you do"
p5233
S'five'
p5234
sS'downtown venus'
p5235
S'p.m. dawn'
p5236
sS'gangstas make the world go round'
p5237
S'westside connection'
p5238
sS'i m not your puppet'
p5239
S'hi-c'
p5240
sS'you are not alone'
p5241
S'michael jackson'
p5242
sS'thuggish ruggish bone'
p5243
S'bone thugs-n-harmony'
p5244
sS'wanna dance'
p5245
S'yasmin'
p5246
sS'chief rocka'
p5247
S'lords of the underground'
p5248
sS'i don t wanna go on'
p5249
S'innerlude'
p5250
sS'i can love you better'
p5251
S'dixie chicks'
p5252
sS'black ice (sky high)'
p5253
S'goodie mob featuring outkast'
p5254
sS'jamboree'
p5255
S'naughty by nature featuring zhane'
p5256
sS'feel me flow'
p5257
S'naughty by nature'
p5258
sS'big gun (from "last action hero")'
p5259
S'ac/dc'
p5260
sS'superman s song'
p5261
S'crash test dummies'
p5262
sS'i didn t mean to stay all night'
p5263
S'starship'
p5264
sS'no scrubs'
p5265
S'tlc'
p5266
sS'follow my heartbeat'
p5267
S'a me lorain'
p5268
sS'good times'
p5269
S'edie brickell'
p5270
sS'somethin  to ride to (fonky expedition)'
p5271
S'the conscious daughters'
p5272
sS'stop being greedy'
p5273
S'dmx'
p5274
sS'when the lights go out'
p5275
S'five'
p5276
sS'cat s in the cradle'
p5277
S'ugly kid joe'
p5278
sS'bizarre love triangle'
p5279
S'new order'
p5280
sS'i m never gonna give you up'
p5281
S'the brat pack'
p5282
sS'your love'
p5283
S'keith sweat'
p5284
sS'"b" girls'
p5285
S'young and restless'
p5286
sS'off the hook'
p5287
S'jody watley'
p5288
sS'can t get enough'
p5289
S'patty loveless'
p5290
sS'all or nothing'
p5291
S'milli vanilli'
p5292
sS'together again'
p5293
S'janet'
p5294
sS'right down to it'
p5295
S'damian dame'
p5296
sS'woman in chains'
p5297
S'tears for fears'
p5298
sS'so anxious'
p5299
S'ginuwine'
p5300
sS'you re easy on the eyes'
p5301
S'terri clark'
p5302
sS'cover girl'
p5303
S'new kids on the block'
p5304
sS'tell me it s real'
p5305
S'k-ci'
p5306
sS'understand this groove'
p5307
S'sound factory'
p5308
sS'keep their heads ringin\' (from "friday")'
p5309
S'dr. dre'
p5310
sS'found out about you'
p5311
S'gin blossoms'
p5312
sS'one and only man'
p5313
S'steve winwood'
p5314
sS'groovy train'
p5315
S'the farm'
p5316
sS"i'm goin' down"
p5317
S'mary j. blige'
p5318
sS'if you leave me now'
p5319
S'jaya'
p5320
sS'back '
p5321
S'aaliyah'
p5322
sS'who can i run to'
p5323
S'xscape'
p5324
sS'spice up your life'
p5325
S'spice girls'
p5326
sS'bucktown'
p5327
S'smif-n-wessun'
p5328
sS'you must love me (from "evita")'
p5329
S'madonna'
p5330
sS'freakit'
p5331
S'das efx'
p5332
sS'time for letting go'
p5333
S'jude cole'
p5334
sS"in harm's way"
p5335
S'bebe winans'
p5336
sS'infatuation'
p5337
S'jamie foxx'
p5338
sS"it's all about u"
p5339
S'swv'
p5340
sS'god bless the child'
p5341
S'shania twain'
p5342
sS'hello l.o.v.e.'
p5343
S'john michael montgomery'
p5344
sS'the power'
p5345
S'snap'
p5346
sS'foe life'
p5347
S'mack 10'
p5348
sS'wherever you go'
p5349
S'voices of theory'
p5350
sS'exhale (shoop shoop) (from "waiting to exhale")'
p5351
S'whitney houston'
p5352
sS'get at me dog'
p5353
S'dmx featuring sheek of the lox'
p5354
sS'i swear'
p5355
S'all-4-one'
p5356
sS'end of the road (from "boomerang")'
p5357
S'boyz ii men'
p5358
sS'one woman'
p5359
S'jade'
p5360
sS'vibeology'
p5361
S'paula abdul'
p5362
sS'something in your eyes'
p5363
S'bell biv devoe'
p5364
sS'santa claus boogie'
p5365
S'the tractors'
p5366
sS'millennium'
p5367
S'robbie williams'
p5368
sS'but it s alright'
p5369
S'huey lewis'
p5370
sS'whatever it takes (to make you stay)'
p5371
S'troop'
p5372
sS'take it easy'
p5373
S'mad lion'
p5374
sS'for you i will (from "space jam")'
p5375
S'monica'
p5376
sS'ooh la la'
p5377
S'rod stewart'
p5378
sS"don't want to be a fool"
p5379
S'luther vandross'
p5380
sS'no mistakes'
p5381
S'patty smyth'
p5382
sS'the grand tour'
p5383
S'aaron neville'
p5384
sS'it s no good'
p5385
S'depeche mode'
p5386
sS'give peace a chance'
p5387
S'the peace choir'
p5388
sS'i m in a philly mood'
p5389
S'daryl hall'
p5390
sS'prayer for the dying'
p5391
S'seal'
p5392
sS'sometimes she cries'
p5393
S'warrant'
p5394
sS'ordinary world'
p5395
S'duran duran'
p5396
sS'i ll be your shelter'
p5397
S'taylor dayne'
p5398
sS'spin that wheel'
p5399
S'hi tek 3 featuring ya kid k'
p5400
sS'i love you came too late'
p5401
S'joey mcintyre'
p5402
sS'love is strong'
p5403
S'the rolling stones'
p5404
sS'what is love'
p5405
S'haddaway'
p5406
sS'i wanna be there'
p5407
S'blessid union of souls'
p5408
sS'where do we go from here'
p5409
S'deborah cox'
p5410
sS"don't let the sun go down on me"
p5411
S'george michael/elton john'
p5412
sS'second chance'
p5413
S'tyler collins'
p5414
sS'i ll sleep when i m dead'
p5415
S'bon jovi'
p5416
sS'run-around'
p5417
S'blues traveler'
p5418
sS'at your best (you are love)'
p5419
S'aaliyah'
p5420
sS'silent prayer'
p5421
S'shanice'
p5422
sS'joey'
p5423
S'concrete blonde'
p5424
sS'someday'
p5425
S'sugar ray'
p5426
sS'send me a lover'
p5427
S'taylor dayne'
p5428
sS"let's get the mood right"
p5429
S'johnny gill'
p5430
sS'all she wrote'
p5431
S'firehouse'
p5432
sS'get it wet'
p5433
S'twista'
p5434
sS'celebrity skin'
p5435
S'hole'
p5436
sS'let her cry'
p5437
S'hootie & the blowfish'
p5438
sS'heat of the moment'
p5439
S'after 7'
p5440
sS'real muthaphuckkin g s'
p5441
S'eazy-e'
p5442
sS'remember my name'
p5443
S'house of lords'
p5444
sS'god must have spent a little more time on you'
p5445
S'alabama featuring  n sync'
p5446
sS'higher ground'
p5447
S'ub40'
p5448
sS'i shot the sheriff'
p5449
S'warren g'
p5450
sS'why don t you get a job?'
p5451
S'the offspring'
p5452
sS'i don t wanna cry'
p5453
S'mariah carey'
p5454
sS'the first time'
p5455
S'surface'
p5456
sS'two teardrops'
p5457
S'steve wariner'
p5458
sS'get down'
p5459
S'craig mack'
p5460
sS'love crazy'
p5461
S'atlantic starr'
p5462
sS'promise me'
p5463
S'lil suzy'
p5464
sS'i like'
p5465
S'kut klose'
p5466
sS'jump around'
p5467
S'house of pain'
p5468
sS"i can't make you love me"
p5469
S'bonnie raitt'
p5470
sS'better days'
p5471
S'wc featuring jon b.'
p5472
sS'indo smoke (from "poetic justice")'
p5473
S'mista grimm'
p5474
sS'got to have your love'
p5475
S'mantronix featuring wondress'
p5476
sS'only love can break your heart'
p5477
S'st. etienne'
p5478
sS'forever amo r'
p5479
S'd zyre'
p5480
sS'justified and ancient'
p5481
S'the klf featuring tammy wynette'
p5482
sS'i can t wait another minute'
p5483
S'hi-five'
p5484
sS'chain of fools'
p5485
S'little caesar'
p5486
sS'all by myself'
p5487
S'celine dion'
p5488
sS'secret garden'
p5489
S'bruce springsteen'
p5490
sS'music of my heart'
p5491
S"'n sync & gloria estefan"
p5492
sS'6 underground'
p5493
S'sneaker pimps'
p5494
sS'closer to me'
p5495
S'the outfield'
p5496
sS'hold my hand'
p5497
S'hootie & the blowfish'
p5498
sS'keep on, keepin\' on (from "sunset park")'
p5499
S'mc lyte featuring xscape'
p5500
sS'bow down'
p5501
S'westside connection'
p5502
sS"u know what's up"
p5503
S'donell jones'
p5504
sS'head over heels'
p5505
S'allure featuring nas'
p5506
sS'go for it! (heart and fire)'
p5507
S'joey b. ellis'
p5508
sS'weekend love'
p5509
S'queen latifah'
p5510
sS'(can t live without your) love and affection'
p5511
S'nelson'
p5512
sS'not tonight'
p5513
S"lil' kim feat. da brat, left eye, missy elliott & angie mar"
p5514
sS"nothing 'bout me"
p5515
S'sting'
p5516
sS'just a touch of love'
p5517
S'c+c music factory presents zelma davis'
p5518
sS'peace in our time'
p5519
S'eddie money'
p5520
sS'rico suave'
p5521
S'gerardo'
p5522
sS'if your girl only knew'
p5523
S'aaliyah'
p5524
sS'beautiful life'
p5525
S'ace of base'
p5526
sS'what goes around comes around'
p5527
S'giggles'
p5528
sS'whenever you come around'
p5529
S'vince gill'
p5530
sS'danger'
p5531
S'blahzay blahzay'
p5532
sS'understanding'
p5533
S'xscape'
p5534
sS'crazy'
p5535
S'aerosmith'
p5536
sS'in my nature'
p5537
S'nuttin  nyce'
p5538
sS'u don t hear me tho '
p5539
S'rodney o'
p5540
sS'b-please'
p5541
S'snoop dogg featuring xzibit'
p5542
sS'everybody hurts'
p5543
S'r.e.m.'
p5544
sS'martika s kitchen'
p5545
S'martika'
p5546
sS'paying the price of love'
p5547
S'bee gees'
p5548
sS'all i wanna do is make love to you'
p5549
S'heart'
p5550
sS'losing my religion'
p5551
S'r.e.m.'
p5552
sS'ordinary life'
p5553
S'chad brock'
p5554
sS'miracle (from "young guns ii")'
p5555
S'jon bon jovi'
p5556
sS'honey love'
p5557
S'r. kelly'
p5558
sS'primal scream'
p5559
S'motley crue'
p5560
sS'silver thunderbird'
p5561
S'marc cohn'
p5562
sS'something that we do'
p5563
S'clint black'
p5564
sS'possession'
p5565
S'sarah mclachlan'
p5566
sS'wrap my body tight'
p5567
S'johnny gill'
p5568
sS'practice what you preach'
p5569
S'barry white'
p5570
sS'no fool no more'
p5571
S'en vogue'
p5572
sS"baby i'm yours"
p5573
S'shai'
p5574
sS'funk dat/why is it?'
p5575
S'sagat'
p5576
sS'backyard boogie'
p5577
S'mack 10'
p5578
sS'no one else'
p5579
S'total'
p5580
sS'save me'
p5581
S'lisa fischer'
p5582
sS'do for love'
p5583
S'2pac featuring eric williams'
p5584
sS'love on my mind'
p5585
S'xscape'
p5586
sS'only love (the ballad of sleeping beauty)'
p5587
S'sophie b. hawkins'
p5588
sS'after the rain'
p5589
S'nelson'
p5590
sS'i ll give all my love to you'
p5591
S'keith sweat'
p5592
sS'baby'
p5593
S'brandy'
p5594
sS'take time'
p5595
S'chris walker'
p5596
sS'no doubt about it'
p5597
S'neal mccoy'
p5598
sS'splackavellie'
p5599
S'pressha'
p5600
sS'unsent'
p5601
S'alanis morissette'
p5602
sS"can't stop lovin' you"
p5603
S'van halen'
p5604
sS'heartbreak hotel'
p5605
S'whitney houston feat. faith evans'
p5606
sS'jesus to a child'
p5607
S'george michael'
p5608
sS'miss you much'
p5609
S'janet jackson'
p5610
sS'anywhere'
p5611
S'112 featuring lil z'
p5612
sS'all i have to give'
p5613
S'backstreet boys'
p5614
sS'sweet dreams'
p5615
S'la bouche'
p5616
sS'nuthin  but a "g" thang'
p5617
S'dr. dre'
p5618
sS'street dreams'
p5619
S'nas'
p5620
sS'you let your heart go too fast'
p5621
S'spin doctors'
p5622
sS"i don't need your love"
p5623
S'angelina'
p5624
sS'don t laugh at me'
p5625
S'mark wills'
p5626
sS"i'll make love to you"
p5627
S'boyz ii men'
p5628
sS'ding-a-ling'
p5629
S'hi-town djs'
p5630
sS'i will always love you (from "the bodyguard")'
p5631
S'whitney houston'
p5632
sS'in the still of the nite (from "the jacksons")'
p5633
S'boyz ii men'
p5634
sS'warrior s drum'
p5635
S'king just'
p5636
sS'beware of my crew (from "a thin line between love and hate")'
p5637
S'l.b.c. crew feat. tray d & south sentrell'
p5638
sS'7 seconds'
p5639
S'youssou n dour'
p5640
sS'you had me from hello'
p5641
S'kenny chesney'
p5642
sS'high'
p5643
S'the cure'
p5644
sS'steal my sunshine'
p5645
S'len'
p5646
sS'sugar hill'
p5647
S'az'
p5648
sS'there you have it'
p5649
S'blackhawk'
p5650
sS'have i told you lately'
p5651
S'rod stewart'
p5652
sS'the hearts filthy lesson'
p5653
S'david bowie'
p5654
sS'wonderwall'
p5655
S'oasis'
p5656
sS'i miss you'
p5657
S'n ii u'
p5658
sS'all you ve got'
p5659
S'rtz'
p5660
sS'u can t touch this'
p5661
S'm.c. hammer'
p5662
sS'1-2-3'
p5663
S'the chimes'
p5664
sS'it s over now'
p5665
S'deborah cox'
p5666
sS'anything (from "above the rim")'
p5667
S'swv'
p5668
sS'fortunate'
p5669
S'maxwell'
p5670
sS'in walked love'
p5671
S'expose'
p5672
sS'no more games'
p5673
S"skin deep featuring li'l kim of junior m.a.f.i.a."
p5674
sS'double good everything'
p5675
S'smokey robinson'
p5676
sS'nobody else'
p5677
S'tyrese'
p5678
sS'my sharona (from "reality bites")'
p5679
S'the knack'
p5680
sS'looking through your eyes'
p5681
S'leann rimes'
p5682
sS'mentirosa'
p5683
S'mellow man ace'
p5684
sS'holla holla'
p5685
S'ja rule'
p5686
sS'the only thing that looks good on me is you'
p5687
S'bryan adams'
p5688
sS'come on over'
p5689
S'shania twain'
p5690
sS'groove thang'
p5691
S'zhane'
p5692
sS'roam'
p5693
S'the b-52 s'
p5694
sS'hazard'
p5695
S'richard marx'
p5696
sS'impulsive'
p5697
S'wilson phillips'
p5698
sS'when i see you smile'
p5699
S'bad english'
p5700
sS'my baby mama'
p5701
S'qt'
p5702
sS'player s ball'
p5703
S'outkast'
p5704
sS'the sweetest days'
p5705
S'vanessa williams'
p5706
sS'set the night to music'
p5707
S'roberta flack with maxi priest'
p5708
sS'funny how time flies'
p5709
S'intro'
p5710
sS'alibis'
p5711
S'tracy lawrence'
p5712
sS'sleeping satellite'
p5713
S'tasmin archer'
p5714
sS'i honestly love you'
p5715
S'olivia newton-john'
p5716
sS'on bended knee'
p5717
S'boyz ii men'
p5718
sS'me and my crazy world'
p5719
S'lost boyz'
p5720
sS"c'mon n' ride it (the train)"
p5721
S"quad city dj's"
p5722
sS"ain't gonna hurt nobody"
p5723
S"kid 'n play"
p5724
sS'american woman'
p5725
S'lenny kravitz'
p5726
sS'you re the voice'
p5727
S'john farnham'
p5728
sS'can t we try'
p5729
S'rockell [duet with collage]'
p5730
sS'slow love'
p5731
S'doc box'
p5732
sS'blinded by love'
p5733
S'rhythm syndicate'
p5734
sS'scatman (ski-ba-bop-ba-dop-bop)'
p5735
S'scatman john'
p5736
sS'all alone on christmas (from "home alone 2")'
p5737
S'darlene love'
p5738
sS'it s all about you (not about me)'
p5739
S'tracie spencer'
p5740
sS'there she goes'
p5741
S'sixpence none the richer'
p5742
sS'nothing really matters'
p5743
S'madonna'
p5744
sS"it's up to you"
p5745
S'the tuesdays'
p5746
sS'there goes my baby'
p5747
S'trisha yearwood'
p5748
sS'i get lonely'
p5749
S'janet featuring blackstreet'
p5750
sS'you have the right to remain silent'
p5751
S'perfect stranger'
p5752
sS'let s talk about sex'
p5753
S'salt-n-pepa'
p5754
sS'get ready for this'
p5755
S'2 unlimited'
p5756
sS'without your love'
p5757
S'angelina'
p5758
sS'back in the day'
p5759
S'ahmad'
p5760
sS'1-luv'
p5761
S'e-40 (featuring leviti)'
p5762
sS'cleopatra s cat'
p5763
S'spin doctors'
p5764
sS'lucky one'
p5765
S'amy grant'
p5766
sS'you re still the one'
p5767
S'shania twain'
p5768
sS'perfect'
p5769
S'the smashing pumpkins'
p5770
sS'crazy little thing called love'
p5771
S'dwight yoakam'
p5772
sS'precious love'
p5773
S'jody watley'
p5774
sS'...baby one more time'
p5775
S'britney spears'
p5776
sS'say... if you feel alright'
p5777
S'crystal waters'
p5778
sS'kiss them for me'
p5779
S'siouxsie'
p5780
sS'rump shaker'
p5781
S'wreckx-n-effect'
p5782
sS'how do you like it?'
p5783
S'keith sweat'
p5784
sS'happy days'
p5785
S'silk'
p5786
sS'scarred (from "eddie")'
p5787
S'luke'
p5788
sS'living in danger'
p5789
S'ace of base'
p5790
sS'everybody everybody'
p5791
S'black box'
p5792
sS'criminal'
p5793
S'fiona apple'
p5794
sS'murder she wrote'
p5795
S'chaka demus'
p5796
sS"what's my name?"
p5797
S'snoop dogg'
p5798
sS'picture postcards from l.a.'
p5799
S'joshua kadison'
p5800
sS'kisses in the night'
p5801
S'brandon'
p5802
sS'come again'
p5803
S'damn yankees'
p5804
sS'freak me'
p5805
S'silk'
p5806
sS"ain't nobody"
p5807
S'diana king'
p5808
sS"i'm real"
p5809
S'kris kross'
p5810
sS"smokin' me out"
p5811
S'warren g featuring ronald isley'
p5812
sS'blessed'
p5813
S'elton john'
p5814
sS'born 2 b.r.e.e.d.'
p5815
S'monie love'
p5816
sS'spend my life'
p5817
S'slaughter'
p5818
sS"you should be mine (don't waste your time)"
p5819
S'brian mcknight featuring mase'
p5820
sS'i can love you like that'
p5821
S'all-4-one'
p5822
sS'talk to myself'
p5823
S'christopher williams'
p5824
sS'saving forever for you (from "beverly hills, 90210")'
p5825
S'shanice'
p5826
sS'she s not cryin  anymore'
p5827
S'billy ray cyrus'
p5828
sS'get gone'
p5829
S'ideal'
p5830
sS'deadly zone'
p5831
S'bounty killer featuring mobb deep'
p5832
sS'feel the groove'
p5833
S'cartouche'
p5834
sS'take a picture'
p5835
S'filter'
p5836
sS'invasion of the flat booty b*****s'
p5837
S'too short'
p5838
sS'if i ruled the world'
p5839
S'nas'
p5840
sS'players holiday'
p5841
S't.w.d.y. featuring too short'
p5842
sS'slide'
p5843
S'goo goo dolls'
p5844
sS'do you know (what it takes)'
p5845
S'robyn'
p5846
sS'call it poison'
p5847
S'the escape club'
p5848
sS'all that i can say'
p5849
S'mary j. blige'
p5850
sS'sweet sexy thing'
p5851
S'nu flavor featuring roger'
p5852
sS'not enough time'
p5853
S'inxs'
p5854
sS'the blues'
p5855
S'tony toni tone'
p5856
sS'you don t have to hurt no more'
p5857
S'mint condition'
p5858
sS'bop gun (one nation)'
p5859
S'ice cube featuring george clinton'
p5860
sS'mysterious ways'
p5861
S'u2'
p5862
sS'i will survive'
p5863
S'chantay savage'
p5864
sS'going through the motions'
p5865
S'aftershock'
p5866
sS'wishing on the same star'
p5867
S'keedy'
p5868
sS'let s make a night to remember'
p5869
S'bryan adams'
p5870
sS'to make you feel my love'
p5871
S'billy joel'
p5872
sS'black balloon'
p5873
S'goo goo dolls'
p5874
sS"i don't ever want to see you again"
p5875
S'uncle sam'
p5876
sS'never too busy'
p5877
S'kenny lattimore'
p5878
sS'i ll make love to you'
p5879
S'boyz ii men'
p5880
sS'you won t ever be lonely'
p5881
S'andy griggs'
p5882
sS'human nature'
p5883
S'madonna'
p5884
sS'the street mix'
p5885
S'mag 7'
p5886
sS'let\'s lay together (from "don\'t be a menace...")'
p5887
S'the isley brothers'
p5888
sS'i still love you'
p5889
S'next'
p5890
sS'people everyday'
p5891
S'arrested development'
p5892
sS'sexual'
p5893
S'goddess'
p5894
sS'don t cry for me argentina (from "evita")'
p5895
S'madonna'
p5896
sS'special'
p5897
S'garbage'
p5898
sS'sometimes i rhyme slow'
p5899
S'nice'
p5900
sS'lie to me/something for the pain'
p5901
S'bon jovi'
p5902
sS'it s up to you'
p5903
S'the tuesdays'
p5904
sS'i don t love you anymore'
p5905
S'the london quireboys'
p5906
sS'my favorite girl'
p5907
S'dave hollister'
p5908
sS'the power of love'
p5909
S'celine dion'
p5910
sS"everybody [backstreet's back]"
p5911
S'backstreet boys'
p5912
sS'dirty dawg'
p5913
S'nkotb'
p5914
sS'all about you'
p5915
S'pretty in pink'
p5916
sS'playground'
p5917
S'another bad creation'
p5918
sS'i ll see you in my dreams'
p5919
S'giant'
p5920
sS'lightning does the work'
p5921
S'chad brock'
p5922
sS'i ll remember you'
p5923
S'atlantic starr'
p5924
sS'sacrifice'
p5925
S'elton john'
p5926
sS'push the feeling on'
p5927
S'nightcrawlers'
p5928
sS'breaking all the rules'
p5929
S'she moves'
p5930
sS'wild world'
p5931
S'mr. big'
p5932
sS'hip-hopera'
p5933
S'bounty killa featuring the fugees'
p5934
sS'don t wanna be a player (from "booty call")'
p5935
S'joe'
p5936
sS'u will know (from "jason\'s lyric")'
p5937
S'b.m.u. (black men united)'
p5938
sS'in your arms'
p5939
S'little caesar'
p5940
sS'get up (move boy move)'
p5941
S'ab logic'
p5942
sS'because the night'
p5943
S'10,000 maniacs'
p5944
sS'so in love with you'
p5945
S'u.n.v.'
p5946
sS'hey man nice shot'
p5947
S'filter'
p5948
sS'completely'
p5949
S'michael bolton'
p5950
sS'forever my lady'
p5951
S'jodeci'
p5952
sS'good enough'
p5953
S'sarah mclachlan'
p5954
sS'wannabe'
p5955
S'spice girls'
p5956
sS'my lovin  (you re never gonna get it)'
p5957
S'en vogue'
p5958
sS'i don t have the heart'
p5959
S'james ingram'
p5960
sS'dream about you/funky melody'
p5961
S'stevie b'
p5962
sS'getto jam'
p5963
S'domino'
p5964
sS'heart like a wheel'
p5965
S'the human league'
p5966
sS'tubthumping'
p5967
S'chumbawamba'
p5968
sS'so alone'
p5969
S'men at large'
p5970
sS'walk through fire'
p5971
S'bad company'
p5972
sS'hey jealousy'
p5973
S'gin blossoms'
p5974
sS'a girl like you (from "empire records")'
p5975
S'edwyn collins'
p5976
sS"you're the inspiration"
p5977
S'peter cetera featuring az yet'
p5978
sS'smells like nirvana'
p5979
S'weird al yankovic'
p5980
sS'hold on (tighter to love)'
p5981
S'clubland'
p5982
sS'warm it up'
p5983
S'kris kross'
p5984
sS'a face in the crowd'
p5985
S'tom petty'
p5986
sS'cool as ice (everybody get loose)'
p5987
S'vanilla ice'
p5988
sS'you re amazing'
p5989
S'robert palmer'
p5990
sS'set adrift on memory bliss'
p5991
S'p.m. dawn'
p5992
sS'watermelon crawl'
p5993
S'tracy byrd'
p5994
sS'man! i feel like a woman!'
p5995
S'shania twain'
p5996
sS'cannonball'
p5997
S'the breeders'
p5998
sS'simple life'
p5999
S'elton john'
p6000
sS'release me'
p6001
S'angelina'
p6002
sS'somebody to love'
p6003
S'george michael'
p6004
sS"'round we go"
p6005
S'big sister'
p6006
sS'till you love me'
p6007
S'reba mcentire'
p6008
sS'living in oblivion'
p6009
S'anything box'
p6010
sS'bitch'
p6011
S'meredith brooks'
p6012
sS'night and day'
p6013
S'bette midler'
p6014
sS'love is all around'
p6015
S'wet wet wet'
p6016
sS"i'm in luv"
p6017
S'joe'
p6018
sS'i wanna get with u'
p6019
S'guy'
p6020
sS'tha crossroads'
p6021
S'bone thugs-n-harmony'
p6022
sS'i ll be loving you'
p6023
S'collage'
p6024
sS'all lips n  hips'
p6025
S'electric boys'
p6026
sS'cuts both ways'
p6027
S'gloria estefan'
p6028
sS'it s all coming back to me now'
p6029
S'celine dion'
p6030
sS'jazzy belle'
p6031
S'outkast'
p6032
sS'i m the one you need'
p6033
S'jody watley'
p6034
sS'malibu'
p6035
S'hole'
p6036
sS'dur dur d etre bebe! (it s tough to be a baby)'
p6037
S'jordy'
p6038
sS'craziest'
p6039
S'naughty by nature'
p6040
sS'saint of me'
p6041
S'the rolling stones'
p6042
sS'tic tic tac'
p6043
S'fruit de la passion'
p6044
sS'gangsta lean'
p6045
S'drs'
p6046
sS'the right time (from "four weddings and a funeral")'
p6047
S'i to i'
p6048
sS'sympathy for the devil ("interview with the vampire")'
p6049
S"guns n' roses"
p6050
sS'wishlist'
p6051
S'pearl jam'
p6052
sS'all cried out'
p6053
S'allure featuring 112'
p6054
sS"mind blowin'"
p6055
S'smooth'
p6056
sS'tender kisses'
p6057
S'tracie spencer'
p6058
sS'we re all in the same gang'
p6059
S'the west coast rap all-stars'
p6060
sS'baby i m yours'
p6061
S'shai'
p6062
sS'give it up, turn it loose'
p6063
S'en vogue'
p6064
sS'your secret love'
p6065
S'luther vandross'
p6066
sS'truly madly deeply'
p6067
S'savage garden'
p6068
sS'if you think i m jiggy'
p6069
S'the lox'
p6070
sS'it s your love'
p6071
S'she moves'
p6072
sS'remember when'
p6073
S'color me badd'
p6074
sS'maybe love will change your mind'
p6075
S'stevie nicks'
p6076
sS'baby i love your way (from "reality bites")'
p6077
S'big mountain'
p6078
sS'sock it 2 me'
p6079
S'missy "misdemeanor" elliott featuring da brat'
p6080
sS"why i love you so much/ain't nobody"
p6081
S'monica'
p6082
sS'rollercoaster'
p6083
S'b*witched'
p6084
sS'west up!'
p6085
S'wc & the maad circle'
p6086
sS'loser'
p6087
S'beck'
p6088
sS"that's what love is for"
p6089
S'amy grant'
p6090
sS'love song'
p6091
S'tesla'
p6092
sS'sugar cane'
p6093
S'space monkeys'
p6094
sS'easy come, easy go'
p6095
S'george strait'
p6096
sS'take it to the streets'
p6097
S'rampage featuring billy lawrence'
p6098
sS'on a sunday afternoon'
p6099
S'lighter shade of brown'
p6100
sS'i ll be your everything'
p6101
S'youngstown'
p6102
sS'why does it hurt so bad (from "waiting to exhale")'
p6103
S'whitney houston'
p6104
sS'power windows'
p6105
S'billy falcon'
p6106
sS'janie s got a gun'
p6107
S'aerosmith'
p6108
sS'everyday & everynight'
p6109
S'yvette michele'
p6110
sS'tonight'
p6111
S'def leppard'
p6112
sS'gentle'
p6113
S'dino'
p6114
sS'wings of the morning'
p6115
S'capleton'
p6116
sS'visions of a sunset (from "mr. holland\'s opus")'
p6117
S'shawn stockman'
p6118
sS'can t stop'
p6119
S'after 7'
p6120
sS'just ask me to (from "boyz n the hood")'
p6121
S'tevin campbell'
p6122
sS'love me the right way'
p6123
S'rapination'
p6124
sS'stand beside me'
p6125
S'jo dee messina'
p6126
sS'wannagirl'
p6127
S'jeremy jordan'
p6128
sS'i always feel like (somebody s watching me)'
p6129
S'tru featuring ice cream man (master p)'
p6130
sS'who you are'
p6131
S'pearl jam'
p6132
sS'this house'
p6133
S'tracie spencer'
p6134
sS"let's make a night to remember"
p6135
S'bryan adams'
p6136
sS'don t go breaking my heart'
p6137
S'elton john'
p6138
sS'magic carpet ride'
p6139
S'the mighty dub katz'
p6140
sS"can't stop this thing we started"
p6141
S'bryan adams'
p6142
sS'i will remember you (live)'
p6143
S'sarah mclachlan'
p6144
sS'just a little bit longer'
p6145
S'maxi priest'
p6146
sS'nowhere to go'
p6147
S'melissa etheridge'
p6148
sS'pop a top'
p6149
S'alan jackson'
p6150
sS'can t help falling in love (from "sliver")'
p6151
S'ub40'
p6152
sS"feelin' it"
p6153
S'jay-z'
p6154
sS'it never rains (in southern california)'
p6155
S'tony toni tone'
p6156
sS'life in mono'
p6157
S'mono'
p6158
sS'can t nobody hold me down'
p6159
S'puff daddy (featuring mase)'
p6160
sS"what i didn't know"
p6161
S'athenaeum'
p6162
sS'i ll get by'
p6163
S'eddie money'
p6164
sS'alone with you'
p6165
S'tevin campbell'
p6166
sS'slow dance (hey mr. dj)'
p6167
S'r. kelly'
p6168
sS'all the places (i will kiss you)'
p6169
S'aaron hall'
p6170
sS'connected'
p6171
S'stereo mc s'
p6172
sS'all the way'
p6173
S'calloway'
p6174
sS'thought i d died and gone to heaven'
p6175
S'bryan adams'
p6176
sS'it s on'
p6177
S'naughty by nature'
p6178
sS'this is the right time'
p6179
S'lisa stansfield'
p6180
sS'why'
p6181
S'annie lennox'
p6182
sS'so many tears'
p6183
S'2pac'
p6184
sS'i ll do 4 u'
p6185
S'father m.c.'
p6186
sS'tell me when'
p6187
S'the human league'
p6188
sS'little bird'
p6189
S'annie lennox'
p6190
sS'never satisfied'
p6191
S'good 2 go'
p6192
sS'undeniable'
p6193
S'ms. adventures'
p6194
sS'stranded'
p6195
S'heart'
p6196
sS'ain\'t nobody (from "beavis and butt-head do america")'
p6197
S'll cool j'
p6198
sS'say my name'
p6199
S"destiny's child"
p6200
sS'strawberries'
p6201
S'smooth'
p6202
sS'snapshot'
p6203
S'rupaul'
p6204
sS'the world is a ghetto'
p6205
S'geto boys featuring flaj'
p6206
sS'have i never'
p6207
S'a few good men'
p6208
sS'how i m comin '
p6209
S'll cool j'
p6210
sS'ride the wind'
p6211
S'poison'
p6212
sS'east side rendezvous'
p6213
S'frost'
p6214
sS'sittin  on top of the world'
p6215
S'da brat'
p6216
sS'teddy bear'
p6217
S'g-wiz'
p6218
sS'boom bye yae'
p6219
S'reiss featuring special guest michie mee'
p6220
sS'back to the world'
p6221
S'tevin campbell'
p6222
sS'lollipop (candyman)'
p6223
S'aqua'
p6224
sS'never enough'
p6225
S'the cure'
p6226
sS'i need money'
p6227
S'marky mark'
p6228
sS'unbelievable'
p6229
S'diamond rio'
p6230
sS'doo wop (that thing)'
p6231
S'lauryn hill'
p6232
sS'if i never stop loving you'
p6233
S'david kersh'
p6234
sS'miss you in a heartbeat'
p6235
S'def leppard'
p6236
sS'how s it goin  down'
p6237
S'dmx featuring faith evans'
p6238
sS'jerk out'
p6239
S'the time'
p6240
sS'round & round'
p6241
S'twinz'
p6242
sS'kissing you'
p6243
S'keith washington'
p6244
sS'i love music (from "carlito\'s way")'
p6245
S'rozalla'
p6246
sS'wind of change'
p6247
S'scorpions'
p6248
sS'slow and easy'
p6249
S'zapp'
p6250
sS'nas is like'
p6251
S'nas'
p6252
sS'little miracles (happen every day)'
p6253
S'luther vandross'
p6254
sS"i don't want to miss a thing"
p6255
S'aerosmith'
p6256
sS'reminisce'
p6257
S'mary j. blige'
p6258
sS'jam'
p6259
S'michael jackson'
p6260
sS'let your soul be your pilot'
p6261
S'sting'
p6262
sS'strong enough'
p6263
S'cher'
p6264
sS"let's ride"
p6265
S'montell jordan feat. master p & silkk the shocker'
p6266
sS'drink, swear, steal & lie'
p6267
S'michael peterson'
p6268
sS'same old look'
p6269
S'jimmy ryser'
p6270
sS"how do i say i'm sorry"
p6271
S'tami davis'
p6272
sS'i m not ready'
p6273
S'keith sweat'
p6274
sS'don t say you love me'
p6275
S'm2m'
p6276
sS"let's talk about sex"
p6277
S'salt-n-pepa'
p6278
sS'don t cry'
p6279
S'guns n  roses'
p6280
sS'home sweet home'
p6281
S'motley crue'
p6282
sS'in the closet'
p6283
S'michael jackson'
p6284
sS'up & down'
p6285
S'billy lawrence'
p6286
sS'move it to the rhythm'
p6287
S'technotronic featuring ya kid k'
p6288
sS'i ain t havin  that'
p6289
S'heltah skeltah featuring starang wondah of o.g.c.'
p6290
sS'hard to say i m sorry'
p6291
S'az yet featuring peter cetera'
p6292
sS'i need love'
p6293
S'olivia newton-john'
p6294
sS'when she cries'
p6295
S'restless heart'
p6296
sS'cowboy take me away'
p6297
S'dixie chicks'
p6298
sS'i wish the phone would ring'
p6299
S'expose'
p6300
sS'far from yours'
p6301
S'o.c. featuring yvette michele'
p6302
sS'hold on'
p6303
S'jamie walters'
p6304
sS'after 12, before 6'
p6305
S'sam salter'
p6306
sS'heaven s what i feel'
p6307
S'gloria estefan'
p6308
sS'objects in the rear view mirror may appear closer than...'
p6309
S'meat loaf'
p6310
sS'no more "i love you\'s"'
p6311
S'annie lennox'
p6312
sS'here comes the hammer'
p6313
S'm.c. hammer'
p6314
sS'set u free'
p6315
S'planet soul'
p6316
sS'i ll be good to you'
p6317
S'quincy jones featuring ray charles'
p6318
sS'price of love'
p6319
S'bad english'
p6320
sS'everytime i cry'
p6321
S'terri clark'
p6322
sS'second round k.o.'
p6323
S'canibus'
p6324
sS'sure lookin '
p6325
S'donny osmond'
p6326
sS"things just ain't the same"
p6327
S'deborah cox'
p6328
sS'dream on dreamer'
p6329
S'the brand new heavies'
p6330
sS'one boy, one girl'
p6331
S'collin raye'
p6332
sS'where the green grass grows'
p6333
S'tim mcgraw'
p6334
sS'tha block is hot'
p6335
S"lil' wayne featuring juvenile & b.g."
p6336
sS'here we go again'
p6337
S'aretha franklin'
p6338
sS'strobelite honey'
p6339
S'black sheep'
p6340
sS'into the great wide open'
p6341
S'tom petty and the heartbreakers'
p6342
sS'sugar honey ice tea'
p6343
S'goodfellaz'
p6344
sS'don t take away my heaven'
p6345
S'aaron neville'
p6346
sS'cleopatra s theme'
p6347
S'cleopatra'
p6348
sS'together forever'
p6349
S'lisette melendez'
p6350
sS'timeless love (from "shocker")'
p6351
S'saraya'
p6352
sS'come back to me'
p6353
S'janet jackson'
p6354
sS'say you ll stay'
p6355
S'kai'
p6356
sS'regular thang'
p6357
S'ovis'
p6358
sS'she s got that vibe'
p6359
S'r. kelly'
p6360
sS'the things that you do'
p6361
S'gina thompson'
p6362
sS'one and one'
p6363
S'robert miles featuring maria nayler'
p6364
sS"the cup of life (the official song of the world cup, france '98)"
p6365
S'ricky martin'
p6366
sS'closer'
p6367
S'nine inch nails'
p6368
sS'house of broken love'
p6369
S'great white'
p6370
sS'call me (from "booty call")'
p6371
S"too short & lil' kim"
p6372
sS'superhero'
p6373
S'daze'
p6374
sS'destiny'
p6375
S'myron'
p6376
sS'bad girl'
p6377
S'madonna'
p6378
sS'here comes the hotstepper (from "ready to wear")'
p6379
S'ini kamoze'
p6380
sS'it s all been done'
p6381
S'barenaked ladies'
p6382
sS'funky child'
p6383
S'lords of the underground'
p6384
sS'world in my eyes'
p6385
S'depeche mode'
p6386
sS'i ll never let you go'
p6387
S'steelheart'
p6388
sS'supernatural'
p6389
S'wild orchid'
p6390
sS'i wanna be rich'
p6391
S'calloway'
p6392
sS'fast life'
p6393
S'kool g rap'
p6394
sS'don t make me over'
p6395
S'sybil'
p6396
sS"get ready, here it comes (it's the choo-choo)"
p6397
S'southsyde b.o.i.z.'
p6398
sS'you can t play with my yo-yo'
p6399
S'yo-yo featuring ice cube'
p6400
sS'butta love'
p6401
S'next'
p6402
sS'then came you'
p6403
S't.p.e.'
p6404
sS'i m in the mood'
p6405
S'cece peniston'
p6406
sS'colors of the wind (from "pocahontas")'
p6407
S'vanessa williams'
p6408
sS'waiting for that day'
p6409
S'george michael'
p6410
sS'joy'
p6411
S'blackstreet'
p6412
sS'supernova'
p6413
S'liz phair'
p6414
sS'make it hot'
p6415
S'nicole featuring missy "misdemeanor" elliott'
p6416
sS'save up all your tears'
p6417
S'cher'
p6418
sS'dirty deeds'
p6419
S'joan jett'
p6420
sS'it hit me like a hammer'
p6421
S'huey lewis'
p6422
sS'one in a million'
p6423
S'trixter'
p6424
sS'have you ever?'
p6425
S'brandy'
p6426
sS'just another day'
p6427
S'john mellencamp'
p6428
sS'in my bed'
p6429
S'dru hill'
p6430
sS'so into you'
p6431
S'tamia'
p6432
sS"ain't no playa"
p6433
S"rappin' 4-tay"
p6434
sS'po pimp'
p6435
S'do or die (featuring twista)'
p6436
sS"i'm still in love with you"
p6437
S'new edition'
p6438
sS'heart of stone'
p6439
S'taylor dayne'
p6440
sS'she s all i ever had'
p6441
S'ricky martin'
p6442
sS'i m your baby tonight'
p6443
S'whitney houston'
p6444
sS'you re beginning to get to me'
p6445
S'clay walker'
p6446
sS'i m too sexy'
p6447
S'right said fred'
p6448
sS"it's your love"
p6449
S'she moves'
p6450
sS'can\'t be wasting my time (from "don\'t be a menace...")'
p6451
S'mona lisa featuring lost boyz'
p6452
sS'the bonnie and clyde theme'
p6453
S'yo yo'
p6454
sS'don t let this moment end'
p6455
S'gloria estefan'
p6456
sS"i'm afraid of americans"
p6457
S'david bowie'
p6458
sS'the new pollution'
p6459
S'beck'
p6460
sS"vibin'"
p6461
S'boyz ii men'
p6462
sS'what s up'
p6463
S'dj miko'
p6464
sS'i ll be by your side'
p6465
S'stevie b'
p6466
sS'nice & slow'
p6467
S'usher'
p6468
sS'you don t have to worry'
p6469
S'mary j. blige'
p6470
sS'crazy cool'
p6471
S'paula abdul'
p6472
sS'deeper shade of soul'
p6473
S'urban dance squad'
p6474
sS'the heart of the matter'
p6475
S'don henley'
p6476
sS'clock strikes'
p6477
S'timbaland'
p6478
sS'i m not feeling you'
p6479
S'yvette michele'
p6480
sS'everybody be somebody'
p6481
S'ruffneck featuring yavahn'
p6482
sS'i ve got a lot to learn about love'
p6483
S'the storm'
p6484
sS"this lil' game we play"
p6485
S'subway (featuring 702)'
p6486
sS'slowly'
p6487
S'stacy earl'
p6488
sS'they want efx'
p6489
S'das efx'
p6490
sS'walking in my shoes'
p6491
S'depeche mode'
p6492
sS'knock-n-boots'
p6493
S'wreckx-n-effect'
p6494
sS"tonite's tha night"
p6495
S'kris kross'
p6496
sS'recover your soul'
p6497
S'elton john'
p6498
sS"breakfast at tiffany's"
p6499
S'deep blue something'
p6500
sS'every time i close my eyes'
p6501
S'babyface'
p6502
sS'when something is wrong with my baby'
p6503
S'linda ronstadt/aaron neville'
p6504
sS'when boy meets girl'
p6505
S'total'
p6506
sS'every heartbeat'
p6507
S'amy grant'
p6508
sS'backwater'
p6509
S'meat puppets'
p6510
sS'in the meantime'
p6511
S'spacehog'
p6512
sS'semi-charmed life'
p6513
S'third eye blind'
p6514
sS'where you goin  now'
p6515
S'damn yankees'
p6516
sS'slow motion'
p6517
S'color me badd'
p6518
sS'all of my days'
p6519
S'changing faces (featuring jay-z)'
p6520
sS"foolin' around"
p6521
S'changing faces'
p6522
sS'need your love'
p6523
S'big bub featuring queen latifah & heavy d'
p6524
sS'don t take the girl'
p6525
S'tim mcgraw'
p6526
sS'run to you (from "the bodyguard")'
p6527
S'whitney houston'
p6528
sS'keep ya head up'
p6529
S'2pac'
p6530
sS'it s your song'
p6531
S'garth brooks'
p6532
sS'the boy is mine'
p6533
S'brandy'
p6534
sS'(do you) wanna ride'
p6535
S'reel tight'
p6536
sS'the lion sleeps tonight (wimoweh)'
p6537
S'the tokens'
p6538
sS'we danced anyway'
p6539
S'deana carter'
p6540
sS'why can t you come home'
p6541
S'ex-girlfriend'
p6542
sS'love child'
p6543
S'sweet sensation'
p6544
sS'rock and roll dreams come through'
p6545
S'meat loaf'
p6546
sS'ooh child'
p6547
S'dino'
p6548
sS'streets of philadelphia (from "philadelphia")'
p6549
S'bruce springsteen'
p6550
sS'love ii love'
p6551
S'damage'
p6552
sS"don't say"
p6553
S'jon b'
p6554
sS"people don't believe"
p6555
S'scarface feat. ice cube'
p6556
sS'in the house of stone and light'
p6557
S'martin page'
p6558
sS'don t you wanna be mine'
p6559
S'denise lopez'
p6560
sS'tremor christ/spin the black circle'
p6561
S'pearl jam'
p6562
sS'all i want'
p6563
S'susanna hoffs'
p6564
sS'wasted time'
p6565
S'skid row'
p6566
sS'cry for help'
p6567
S'rick astley'
p6568
sS'girl, i ve been hurt'
p6569
S'snow'
p6570
sS'restless heart'
p6571
S'peter cetera'
p6572
sS'connection'
p6573
S'elastica'
p6574
sS'i ll be'
p6575
S'edwin mccain'
p6576
sS'no myth'
p6577
S'michael penn'
p6578
sS'my love is for real'
p6579
S'paula abdul'
p6580
sS'games'
p6581
S'chuckii booker'
p6582
sS'full term love (from "class act")'
p6583
S'monie love'
p6584
sS'crazy love (from "jason\'s lyric")'
p6585
S'brian mcknight'
p6586
sS'oh carolina'
p6587
S'shaggy'
p6588
sS'who you wit (from "sprung")'
p6589
S'jay-z'
p6590
sS'it s your body'
p6591
S'johnny gill featuring roger troutman'
p6592
sS"it's no good"
p6593
S'depeche mode'
p6594
sS'human touch/better days'
p6595
S'bruce springsteen'
p6596
sS'it s my life'
p6597
S'dr. alban'
p6598
sS"i don't mind"
p6599
S'immature'
p6600
sS'couple days off'
p6601
S'huey lewis'
p6602
sS'iou'
p6603
S'arthur baker featuring nikeeta'
p6604
sS'what becomes of the brokenhearted'
p6605
S'paul young'
p6606
sS'romeo'
p6607
S'dolly parton'
p6608
sS'too funky'
p6609
S'george michael'
p6610
sS'i found love'
p6611
S'the party'
p6612
sS'human wheels'
p6613
S'john mellencamp'
p6614
sS'pop that coochie'
p6615
S'the 2 live crew'
p6616
sS'thinking of you'
p6617
S'tony toni tone'
p6618
sS'love makes things happen'
p6619
S'pebbles'
p6620
sS'wanna be a baller'
p6621
S'lil  troy featuring yungsta, fat pat, lil  will, hawk, big t'
p6622
sS'you still touch me'
p6623
S'sting'
p6624
sS'ghetto cowboy'
p6625
S'mo thugs family featuring bone thugs-n-harmony'
p6626
sS'thinkin  back'
p6627
S'color me badd'
p6628
sS"i'm alright"
p6629
S'jo dee messina'
p6630
sS'let s get the mood right'
p6631
S'johnny gill'
p6632
sS'that girl'
p6633
S'maxi priest featuring shaggy'
p6634
sS'something s always wrong'
p6635
S'toad the wet sprocket'
p6636
sS'still waters (run deep)'
p6637
S'bee gees'
p6638
sS'top of the world'
p6639
S'van halen'
p6640
sS'really into you'
p6641
S'around the way'
p6642
sS'girl i am searching for you'
p6643
S'stevie b'
p6644
sS'get up'
p6645
S'lost boyz'
p6646
sS'goodbye to my homies'
p6647
S'master p featuring silkk the shocker, sons of funk and mo b. dick'
p6648
sS'good ol  days'
p6649
S'levert'
p6650
sS'the song remembers when'
p6651
S'trisha yearwood'
p6652
sS'do anything'
p6653
S'natural selection'
p6654
sS'hands'
p6655
S'jewel'
p6656
sS'because of you'
p6657
S'98 degrees'
p6658
sS'yesterdays'
p6659
S'guns n  roses'
p6660
sS'can t get enuff'
p6661
S'winger'
p6662
sS'save tonight'
p6663
S'eagle-eye cherry'
p6664
sS"she's so high"
p6665
S'tal bachman'
p6666
sS'32 flavors'
p6667
S'alana davis'
p6668
sS"don't go"
p6669
S'le click featuring kayo'
p6670
sS'pickup man'
p6671
S'joe diffie'
p6672
sS'you can t deny it'
p6673
S'lisa stansfield'
p6674
sS'baby, i believe in you'
p6675
S'george lamond'
p6676
sS'happiness'
p6677
S'billy lawrence'
p6678
sS'my heart will go on'
p6679
S'celine dion'
p6680
sS'around the world'
p6681
S'daft punk'
p6682
sS'why me baby?'
p6683
S'keith sweat'
p6684
sS'i ll be there'
p6685
S'mariah carey'
p6686
sS'the other side'
p6687
S'aerosmith'
p6688
sS'it was a good day'
p6689
S'ice cube'
p6690
sS'you re makin  me high/let it flow'
p6691
S'toni braxton'
p6692
sS'heaven help/spinning around over you'
p6693
S'lenny kravitz'
p6694
sS'foolish heart'
p6695
S'sharon bryant'
p6696
sS'poor georgie'
p6697
S'mc lyte'
p6698
sS'uhh ahh'
p6699
S'boyz ii men'
p6700
sS'i wanna get next to you'
p6701
S'christion'
p6702
sS'symphony of destruction'
p6703
S'megadeth'
p6704
sS'look into my eyes (from "batman '
p6705
S'bone thugs-n-harmony'
p6706
sS'what comes naturally'
p6707
S'sheena easton'
p6708
sS'if you ever have forever in mind'
p6709
S'vince gill'
p6710
sS'love me all up'
p6711
S'stacy earl'
p6712
sS'the best things in life are free'
p6713
S'luther vandross and janet jackson'
p6714
sS're-arranged'
p6715
S'limp bizkit'
p6716
sS'hard to handle'
p6717
S'the black crowes'
p6718
sS'i love your smile'
p6719
S'shanice'
p6720
sS"it's in your eyes"
p6721
S'phil collins'
p6722
sS'i see it now'
p6723
S'tracy lawrence'
p6724
sS'just a friend'
p6725
S'biz markie'
p6726
sS'tearin  up my heart'
p6727
S'n sync'
p6728
sS'walk in the sun'
p6729
S'bruce hornsby'
p6730
sS'ready to run'
p6731
S'dixie chicks'
p6732
sS'yeah, yeah, yeah!'
p6733
S'voices'
p6734
sS'me-u=blue'
p6735
S'glenn medeiros (featuring the stylistics)'
p6736
sS'miami'
p6737
S'will smith'
p6738
sS'innocent child'
p6739
S'colourhaus'
p6740
sS'reason to believe'
p6741
S'rod stewart'
p6742
sS'another way'
p6743
S'tevin campbell'
p6744
sS"they don't care about us"
p6745
S'michael jackson'
p6746
sS'can t stop falling into love'
p6747
S'cheap trick'
p6748
sS'save the best for last'
p6749
S'vanessa williams'
p6750
sS'treat  em right'
p6751
S'chubb rock'
p6752
sS'close to you'
p6753
S'fun factory'
p6754
sS'counting the days'
p6755
S'joey kid'
p6756
sS'drop'
p6757
S'the pharcyde'
p6758
sS'ain t 2 proud 2 beg'
p6759
S'tlc'
p6760
sS'out of tears'
p6761
S'the rolling stones'
p6762
sS'all along'
p6763
S'blessid union of souls'
p6764
sS"you're not alone"
p6765
S'olive'
p6766
sS'kickin  it'
p6767
S'after 7'
p6768
sS'love. . .thy will be done'
p6769
S'martika'
p6770
sS'what they do'
p6771
S'the roots'
p6772
sS'wrong again'
p6773
S'martina mcbride'
p6774
sS'5-4-3-2 (yo! time is up)'
p6775
S'jade'
p6776
sS'home'
p6777
S'depeche mode'
p6778
sS'hold on to me'
p6779
S'john michael montgomery'
p6780
sS'mother'
p6781
S'danzig'
p6782
sS'slow jams'
p6783
S'quincy jones feat. babyface & tamia with portrai'
p6784
sS'forever in love'
p6785
S'kenny g'
p6786
sS'jackie s strength'
p6787
S'tori amos'
p6788
sS'hurricane'
p6789
S'the click'
p6790
sS'sukiyaki'
p6791
S'4pm'
p6792
sS'silent all these years'
p6793
S'tori amos'
p6794
sS'passion'
p6795
S'k5'
p6796
sS"doin' time"
p6797
S'sublime'
p6798
sS'jellyhead'
p6799
S'crush'
p6800
sS'chains'
p6801
S'tina arena'
p6802
sS'got to tell me something'
p6803
S'ana'
p6804
sS'don t let go (love) (from "set it off")'
p6805
S'en vogue'
p6806
sS'we will rock you'
p6807
S'warrant'
p6808
sS'blue (da ba dee)'
p6809
S'eiffel 65'
p6810
sS'the day that she left tulsa (in a chevy)'
p6811
S'wade hayes'
p6812
sS'another day in paradise'
p6813
S'phil collins'
p6814
sS'la raza'
p6815
S'kid frost'
p6816
sS'b.b.d. (i thought it was me)?'
p6817
S'bell biv devoe'
p6818
sS'got a love for you'
p6819
S'jomanda'
p6820
sS'if you love me'
p6821
S'mint condition'
p6822
sS'i d rather go blind'
p6823
S'sydney youngblood'
p6824
sS'step by step (from "the preacher s wife")'
p6825
S'whitney houston'
p6826
sS'iris'
p6827
S'goo goo dolls'
p6828
sS'hard knock life (ghetto anthem)'
p6829
S'jay-z'
p6830
sS'linger'
p6831
S'the cranberries'
p6832
sS'freedom'
p6833
S'george michael'
p6834
sS'get a life'
p6835
S'soul ii soul'
p6836
sS'hip hop hooray'
p6837
S'naughty by nature'
p6838
sS'i love you always forever'
p6839
S'donna lewis'
p6840
sS'rodeo'
p6841
S'95 south'
p6842
sS'kiss from a rose (from "batman forever")'
p6843
S'seal'
p6844
sS'stand by my woman'
p6845
S'lenny kravitz'
p6846
sS'constant craving'
p6847
S'k.d. lang'
p6848
sS'because you loved me (from "up close & personal")'
p6849
S'celine dion'
p6850
sS'the more you ignore me, the closer i get'
p6851
S'morrissey'
p6852
sS'i should be laughing'
p6853
S'patty smyth'
p6854
sS'love will never do (without you)'
p6855
S'janet jackson'
p6856
sS'dazzey duks'
p6857
S'duice'
p6858
sS'i drive myself crazy'
p6859
S'n sync'
p6860
sS'losing you'
p6861
S'mocca soul'
p6862
sS'hearts in trouble (from "days of thunder")'
p6863
S'chicago'
p6864
sS'break it down again'
p6865
S'tears for fears'
p6866
sS"sittin' on top of the world"
p6867
S'da brat'
p6868
sS'good for me'
p6869
S'amy grant'
p6870
sS'c est la vie'
p6871
S'b*witched'
p6872
sS'one by one'
p6873
S'cher'
p6874
sS'notice me'
p6875
S'nikki'
p6876
sS"i'll be loving you"
p6877
S'collage'
p6878
sS'who said i would'
p6879
S'phil collins'
p6880
sS'good time'
p6881
S'ziggy marley'
p6882
sS'i will get there'
p6883
S'boyz ii men'
p6884
sS'bring the pain'
p6885
S'method man'
p6886
sS"pushin' weight"
p6887
S'ice cube featuring mr. short khop'
p6888
sS'nu nu'
p6889
S'lidell townsell'
p6890
sS'i miss you (come back home) (from "new york undercover")'
p6891
S'monifah'
p6892
sS'havana'
p6893
S'kenny g'
p6894
sS'what the world needs now is love'
p6895
S'dionne warwick and the hip-hop nation united'
p6896
sS'can t cry hard enough'
p6897
S'the williams brothers'
p6898
sS'last night (from "the nutty professor")'
p6899
S'az yet'
p6900
sS'the girl i used to know'
p6901
S'brother beyond'
p6902
sS'latin active'
p6903
S'lighter shade of brown featuring teardrop'
p6904
sS'just the two of us'
p6905
S'will smith'
p6906
sS'piece of my heart'
p6907
S'shaggy (featuring marsha)'
p6908
sS'can t stop this thing we started'
p6909
S'bryan adams'
p6910
sS'love is'
p6911
S'alannah myles'
p6912
sS'always in my heart'
p6913
S'tevin campbell'
p6914
sS'dance naked'
p6915
S'john mellencamp'
p6916
sS'kiss of life'
p6917
S'sade'
p6918
sS'this is for the lover in you'
p6919
S'babyface feat. ll cool j, howard hewett, jody watley & jef'
p6920
sS'one last cry'
p6921
S'brian mcknight'
p6922
sS'sweet honesty'
p6923
S'm:g'
p6924
sS'constantly'
p6925
S'immature'
p6926
sS'don t shut me out'
p6927
S'kevin paige'
p6928
sS"shorty (you keep playin' with my mind)"
p6929
S'imajin featuring keith murray'
p6930
sS'only if...'
p6931
S'enya'
p6932
sS"you're makin' me high/let it flow"
p6933
S'toni braxton'
p6934
sS'let s try it again'
p6935
S'new kids on the block'
p6936
sS'room at the top'
p6937
S'adam ant'
p6938
sS'your love is a...'
p6939
S'whitehead bros.'
p6940
sS'nobody does it better'
p6941
S'nate dogg featuring warren g'
p6942
sS'blue monday'
p6943
S'orgy'
p6944
sS'biscuit s in the house'
p6945
S'biscuit'
p6946
sS'come see me'
p6947
S'112'
p6948
sS'ha'
p6949
S'juvenile'
p6950
sS'what s up doc? (can we rock)'
p6951
S'fu-schnickens w/ shaquille o neal'
p6952
sS'someone you used to know'
p6953
S'collin raye'
p6954
sS'this '
p6955
S'michael penn'
p6956
sS'bad boys (theme from "cops")'
p6957
S'inner circle'
p6958
sS"there's your trouble"
p6959
S'dixie chicks'
p6960
sS'new york minute'
p6961
S'don henley'
p6962
sS'little good-byes'
p6963
S'shedaisy'
p6964
sS'you are everything'
p6965
S'dru hill'
p6966
sS'dangerous'
p6967
S'busta rhymes'
p6968
sS'how do you talk to an angel'
p6969
S'the heights'
p6970
sS'smooth'
p6971
S'santana featuring rob thomas'
p6972
sS'ain t nobody (from "beavis and butt-head do america")'
p6973
S'll cool j'
p6974
sS'nightgown'
p6975
S'candyman'
p6976
sS'should ve been a cowboy'
p6977
S'toby keith'
p6978
sS"i'm looking for the one (to be with me)"
p6979
S'jazzy jeff & the fresh prince'
p6980
sS'rock and a hard place'
p6981
S'the rolling stones'
p6982
sS'you re all that matters to me'
p6983
S'curtis stigers'
p6984
sS"it's alright"
p6985
S'memphis bleek (& jay-z)'
p6986
sS'fulton st.'
p6987
S'leschea'
p6988
sS'space jam (from "space jam")'
p6989
S"quad city dj's"
p6990
sS'if i can t have you'
p6991
S'l.f.o. (lyte funky ones) (featuring kayo)'
p6992
sS'fly high michelle'
p6993
S'enuff z nuff'
p6994
sS"i'll be there for you/you're all i need to get by"
p6995
S'method man featuring mary j. blige'
p6996
sS'stranger to love'
p6997
S'st. paul'
p6998
sS'deadbeat club'
p6999
S'the b-52 s'
p7000
sS'groovin  in the midnight'
p7001
S'maxi priest'
p7002
sS'rock wit cha'
p7003
S'bobby brown'
p7004
sS'sweetest thing'
p7005
S'u2'
p7006
sS'don\'t wanna be a player (from "booty call")'
p7007
S'joe'
p7008
sS'i ll never get over you (getting over me)'
p7009
S'expose'
p7010
sS'(god must have spent) a little more time on you'
p7011
S'n sync'
p7012
sS'doin it'
p7013
S'll cool j'
p7014
sS'pretty fly (for a white guy)'
p7015
S'the offspring'
p7016
sS'e-bow the letter'
p7017
S'r.e.m.'
p7018
sS'nookie'
p7019
S'limp bizkit'
p7020
sS'tootsee roll'
p7021
S'69 boyz'
p7022
sS'doin  the do'
p7023
S'betty boo'
p7024
sS'deeper'
p7025
S'boss'
p7026
sS"can't we try"
p7027
S'rockell [duet with collage]'
p7028
sS'you want this/70 s love groove'
p7029
S'janet jackson'
p7030
sS'lately'
p7031
S'tyrese'
p7032
sS'live and learn'
p7033
S'joe public'
p7034
sS"when you're gone/free to decide"
p7035
S'the cranberries'
p7036
sS'get it up (from "poetic justice")'
p7037
S'tlc'
p7038
sS'we getz busy'
p7039
S'illegal'
p7040
sS'my name is not susan'
p7041
S'whitney houston'
p7042
sS'sweet potatoe pie'
p7043
S'domino'
p7044
sS'all woman'
p7045
S'lisa stansfield'
p7046
sS'loungin'
p7047
S'll cool j'
p7048
sS'around the way girl'
p7049
S'll cool j'
p7050
sS'15 minutes'
p7051
S'marc nelson'
p7052
sS'mmmbop'
p7053
S'hanson'
p7054
sS'stay'
p7055
S'eternal'
p7056
sS"i'll be"
p7057
S'edwin mccain'
p7058
sS"thinkin' bout it"
p7059
S'gerald levert'
p7060
sS'give it 2 you'
p7061
S'da brat'
p7062
sS'part time lover/i m still in love with you'
p7063
S'h-town/al b. sure!'
p7064
sS'your loving arms'
p7065
S'billie ray martin'
p7066
sS'i want it that way'
p7067
S'backstreet boys'
p7068
sS'give u my heart (from "boomerang")'
p7069
S'babyface (featuring toni braxton)'
p7070
sS'falling in love (is hard on the knees)'
p7071
S'aerosmith'
p7072
sS'here and now'
p7073
S'luther vandross'
p7074
sS'love for love'
p7075
S'robin s.'
p7076
sS'sweet on u'
p7077
S'lo-key?'
p7078
sS"ascension (don't ever wonder)"
p7079
S'maxwell'
p7080
sS'lonely and gone'
p7081
S'montgomery gentry'
p7082
sS'suicide blonde'
p7083
S'inxs'
p7084
sS'ice ice baby'
p7085
S'vanilla ice'
p7086
sS'don t want to be a fool'
p7087
S'luther vandross'
p7088
sS"hearts don't think (they feel)"
p7089
S'natural selection'
p7090
sS'he can t love u'
p7091
S'jagged edge'
p7092
sS'romeo '
p7093
S'stacy earl (featuring the wild pair)'
p7094
sS'forever tonight'
p7095
S'peter cetera & crystal bernard'
p7096
sS'where ever you are'
p7097
S'terry ellis'
p7098
sS'no ordinary love'
p7099
S'sade'
p7100
s.