(dp1
S'Bitter Sweet Symphony'
p2
S'The Verve'
p3
sS'New Age Girl (From "Dumb And Dumber")'
p4
S'Deadeye Dick'
p5
sS"We Can't Be Friends"
p6
S'Deborah Cox With R.L.'
p7
sS'No Mistakes'
p8
S'Patty Smyth'
p9
sS"Feelin' It"
p10
S'Jay-Z'
p11
sS'Misery'
p12
S'Soul Asylum'
p13
sS'Tonight Is The Night'
p14
S'Le Click'
p15
sS'Please Remember Me'
p16
S'Tim McGraw'
p17
sS'No Time'
p18
S"Lil' Kim Featuring Puff Daddy"
p19
sS"Hearts Don't Think (They Feel)"
p20
S'Natural Selection'
p21
sS'Sugar Hill'
p22
S'AZ'
p23
sS'Tears In Heaven'
p24
S'Eric Clapton'
p25
sS'The Boomin  System'
p26
S'LL Cool J'
p27
sS'My All'
p28
S'Mariah Carey'
p29
sS'Safe + Sound'
p30
S'DJ Quik'
p31
sS"'Til You Do Me Right"
p32
S'After 7'
p33
sS'You Still Touch Me'
p34
S'Sting'
p35
sS'Wherever You Go'
p36
S'Voices Of Theory'
p37
sS'Touch Myself (From "Fled")'
p38
S'T-Boz'
p39
sS'The Right Time (From "Four Weddings And A Funeral")'
p40
S'I To I'
p41
sS'Addams Family (Whoomp!)'
p42
S'Tag Team'
p43
sS'One And Only Man'
p44
S'Steve Winwood'
p45
sS'6 Minutes Of Pleasure'
p46
S'LL Cool J'
p47
sS'Rock And Roll Dreams Come Through'
p48
S'Meat Loaf'
p49
sS'Chasin  The Wind'
p50
S'Chicago'
p51
sS'Down 4 Whateva (From "A Low Down Dirty Shame")'
p52
S"Nuttin' Nyce"
p53
sS'My Favorite Mistake'
p54
S'Sheryl Crow'
p55
sS'Shoop'
p56
S'Salt-N-Pepa'
p57
sS'My, My, My'
p58
S'Johnny Gill'
p59
sS'The Old Apartment'
p60
S'Barenaked Ladies'
p61
sS"Diggin' On You"
p62
S'TLC'
p63
sS'I Want It That Way'
p64
S'Backstreet Boys'
p65
sS'Jesus He Knows Me'
p66
S'Genesis'
p67
sS'Notice Me'
p68
S'Nikki'
p69
sS'Escapade'
p70
S'Janet Jackson'
p71
sS'Steam'
p72
S'Ty Herndon'
p73
sS'If I Had No Loot'
p74
S'Tony Toni Tone'
p75
sS'Two Teardrops'
p76
S'Steve Wariner'
p77
sS'Just Between You And Me'
p78
S'dc Talk'
p79
sS'That s The Way Love Goes'
p80
S'Janet Jackson'
p81
sS'The Grand Tour'
p82
S'Aaron Neville'
p83
sS'Lucas With The Lid Off'
p84
S'Lucas'
p85
sS'Sensitivity'
p86
S'Ralph Tresvant'
p87
sS'Bittersweet Me'
p88
S'R.E.M.'
p89
sS'What It s Like'
p90
S'Everlast'
p91
sS'I m Ready'
p92
S'Tevin Campbell'
p93
sS'This Is Ponderous'
p94
S'2nu'
p95
sS'I ll Be By Your Side'
p96
S'Stevie B'
p97
sS'Pop That Coochie'
p98
S'The 2 Live Crew'
p99
sS'I Go To Extremes'
p100
S'Billy Joel'
p101
sS'Human Nature'
p102
S'Madonna'
p103
sS'Can I Call You My Girl'
p104
S'PC Quest'
p105
sS'The Christmas Song (Chestnuts Roasting On An Open Fire)'
p106
S'Christina Aguilera'
p107
sS'New Power Generation'
p108
S'Prince'
p109
sS'Write This Down'
p110
S'George Strait'
p111
sS'Be My Baby Tonight'
p112
S'John Michael Montgomery'
p113
sS"Same Ol' Shit"
p114
S'MC Ren'
p115
sS'Right Here (Human Nature)/Downtown'
p116
S'SWV'
p117
sS'Where My Girls At?'
p118
S'702'
p119
sS'I m Not Giving You Up'
p120
S'Gloria Estefan'
p121
sS'Boom! I Got Your Boyfriend'
p122
S'MC Luscious'
p123
sS'Holla Holla'
p124
S'Ja Rule'
p125
sS'2 Way Street'
p126
S'Missjones'
p127
sS'You Got Me'
p128
S'The Roots Featuring Erykah Badu'
p129
sS'Coming Out Of The Dark'
p130
S'Gloria Estefan'
p131
sS'Good Time'
p132
S'Ziggy Marley'
p133
sS"'98 Thug Paradise"
p134
S'Tragedy, Capone, Infinite'
p135
sS'Just A Girl'
p136
S'No Doubt'
p137
sS'Blowing Kisses In The Wind'
p138
S'Paula Abdul'
p139
sS'The Right Combination'
p140
S'Seiko'
p141
sS'Foolish Heart'
p142
S'Sharon Bryant'
p143
sS'You Make Me Wanna...'
p144
S'Usher'
p145
sS"Movin' On"
p146
S'Mya Featuring Silkk The Shocker'
p147
sS'Do Da What'
p148
S'1 Of The Girls'
p149
sS'Ready Or Not'
p150
S'After 7'
p151
sS'American Woman'
p152
S'Lenny Kravitz'
p153
sS'Chains Around My Heart'
p154
S'Richard Marx'
p155
sS'Does She Love That Man?'
p156
S'Breathe Featuring David Glasper'
p157
sS'All Of My Days'
p158
S'Changing Faces (Featuring Jay-Z)'
p159
sS'Poor Georgie'
p160
S'MC Lyte'
p161
sS'Let Her Cry'
p162
S'Hootie & The Blowfish'
p163
sS'Wrong'
p164
S'Everything But The Girl'
p165
sS'Love Is Alive'
p166
S'3rd Party'
p167
sS'Love Child'
p168
S'Sweet Sensation'
p169
sS"Can't Wait"
p170
S'Redman'
p171
sS'One Night Stand'
p172
S'J-Shin Featuring LaTocha Scott'
p173
sS'Wind Of Change'
p174
S'Scorpions'
p175
sS'The Joint'
p176
S'EPMD'
p177
sS'Black Velvet'
p178
S'Alannah Myles'
p179
sS'Cry No More'
p180
S'II D Extreme'
p181
sS"The Dolphin's Cry"
p182
S'Live'
p183
sS'Gold Diggin  Girls'
p184
S'MC Nas-D'
p185
sS'Live And Learn'
p186
S'Joe Public'
p187
sS'Money In The Ghetto'
p188
S'Too Short'
p189
sS'The City Is Mine'
p190
S'Jay-Z  Featuring BLACKstreet'
p191
sS'Still D.R.E.'
p192
S'Dr. Dre Featuring Snoop Dogg'
p193
sS'100% Pure Love'
p194
S'Crystal Waters'
p195
sS'She Ain t Worth It'
p196
S'Glenn Medeiros Featuring Bobby Brown'
p197
sS'King Of Wishful Thinking (From "Pretty Woman")'
p198
S'Go West'
p199
sS'Stranger In My Mirror'
p200
S'Randy Travis'
p201
sS'I Drive Myself Crazy'
p202
S'N Sync'
p203
sS'Body & Soul'
p204
S'Anita Baker'
p205
sS'Now That We Found Love'
p206
S'Heavy D'
p207
sS'I Wanna Be There'
p208
S'Blessid Union Of Souls'
p209
sS'Jesus To A Child'
p210
S'George Michael'
p211
sS'As We Lay'
p212
S'Dana'
p213
sS'The Day The World Went Away'
p214
S'Nine Inch Nails'
p215
sS'Come Baby Come'
p216
S'K7'
p217
sS'Heal The World'
p218
S'Michael Jackson'
p219
sS'Because You Loved Me (From "Up Close & Personal")'
p220
S'Celine Dion'
p221
sS'Beautiful In My Eyes'
p222
S'Joshua Kadison'
p223
sS'Deep, Deep Trouble'
p224
S'The Simpsons Featuring Bart'
p225
sS'Stand'
p226
S'Poison'
p227
sS'Not A Dry Eye In The House'
p228
S'Meat Loaf'
p229
sS'Know What You Mean'
p230
S'Sister 7'
p231
sS'Scent Of Attraction'
p232
S'Patra Duet With Aaron Hall'
p233
sS'Little Good-Byes'
p234
S'SheDaisy'
p235
sS'Under The Water'
p236
S'Merril Bainbridge'
p237
sS'Gangstas Make The World Go Round'
p238
S'Westside Connection'
p239
sS'You Are Not Alone'
p240
S'Michael Jackson'
p241
sS'I Wonder Why'
p242
S'Curtis Stigers'
p243
sS'Living In Danger'
p244
S'Ace Of Base'
p245
sS'Epic'
p246
S'Faith No More'
p247
sS'Jumper'
p248
S'Third Eye Blind'
p249
sS'Deeper Shade Of Soul'
p250
S'Urban Dance Squad'
p251
sS"Body Bumpin' Yippie-Yi-Yo"
p252
S'Public Announcement'
p253
sS'Voice Of Freedom'
p254
S'Freedom Williams'
p255
sS'Comedown'
p256
S'Bush'
p257
sS'In Your Arms'
p258
S'Little Caesar'
p259
sS'The Power Of Good-Bye'
p260
S'Madonna'
p261
sS'Stay'
p262
S'Eternal'
p263
sS'No Scrubs'
p264
S'TLC'
p265
sS'Keep It Comin  (Dance Till You Can t Dance No More!)'
p266
S'C+C Music Factory'
p267
sS'I Do'
p268
S'Lisa Loeb'
p269
sS'One And One'
p270
S'Robert Miles Featuring Maria Nayler'
p271
sS'How Could You (From "Bulletproof")'
p272
S'K-Ci'
p273
sS'Your Love'
p274
S'Keith Sweat'
p275
sS'Deja Vu [Uptown Baby]'
p276
S'Lord Tariq'
p277
sS'Crash (Have Some Fun)'
p278
S'TKA Featuring Michelle Visage'
p279
sS'All 4 Love'
p280
S'Color Me Badd'
p281
sS'Like A Woman'
p282
S'The Tony Rich Project'
p283
sS'Typical Reasons (Swing My Way)'
p284
S'Prince Markie Dee'
p285
sS'Rhythm Nation'
p286
S'Janet Jackson'
p287
sS'There s No Other Way'
p288
S'Blur'
p289
sS"Just Clownin'"
p290
S'WC From Westside Connection'
p291
sS'How Do I Live'
p292
S'LeAnn Rimes'
p293
sS'I Wish It Would Rain Down'
p294
S'Phil Collins'
p295
sS'(You Make Me Feel Like) A Natural Woman (From "New York Undercover")'
p296
S'Mary J. Blige'
p297
sS'Crazy'
p298
S'Aerosmith'
p299
sS'Survival Of The Fittest'
p300
S'Mobb Deep'
p301
sS'Because I Love You (The Postman Song)'
p302
S'Stevie B'
p303
sS'Everybody Everybody'
p304
S'Black Box'
p305
sS'Love Shoulda Brought You Home (From "Boomerang")'
p306
S'Toni Braxton'
p307
sS'Baby I Love Your Way (From "Reality Bites")'
p308
S'Big Mountain'
p309
sS'Spend My Life'
p310
S'Slaughter'
p311
sS'Night And Day'
p312
S'Bette Midler'
p313
sS'Machinehead (From "Fear")'
p314
S'Bush'
p315
sS'So Hard'
p316
S'Pet Shop Boys'
p317
sS'Money, Power '
p318
S'The Lox [Featuring DMX'
p319
sS'Can\'t Be Wasting My Time (From "Don\'t Be A Menace...")'
p320
S'Mona Lisa Featuring Lost Boyz'
p321
sS'Scream/Childhood (From "Free Willy 2")'
p322
S'Michael Jackson & Janet Jackson'
p323
sS'We Getz Busy'
p324
S'Illegal'
p325
sS'That s What Love Is For'
p326
S'Amy Grant'
p327
sS"Make Em' Say Uhh!"
p328
S'Master P Feat. Fiend, Silkk The Shocker, Mia X & Mystikal'
p329
sS'Reality'
p330
S'Elusion'
p331
sS'It Must Be Love'
p332
S'Ty Herndon'
p333
sS'Leaving Las Vegas'
p334
S'Sheryl Crow'
p335
sS'Blackberry Molasses'
p336
S'Mista'
p337
sS'Find A Way'
p338
S'A Tribe Called Quest'
p339
sS'Let\'s Lay Together (From "Don\'t Be A Menace...")'
p340
S'The Isley Brothers'
p341
sS'I Can See Clearly Now (From "Cool Runnings")'
p342
S'Jimmy Cliff'
p343
sS'Whatever It Takes (To Make You Stay)'
p344
S'Troop'
p345
sS'Tell Me Something'
p346
S'Indecent Obsession'
p347
sS'The Hearts Filthy Lesson'
p348
S'David Bowie'
p349
sS'Mentirosa'
p350
S'Mellow Man Ace'
p351
sS'There You Are'
p352
S'Sam Salter'
p353
sS'I Had No Right'
p354
S'P.M. Dawn'
p355
sS'A Smile Like Yours (From "A Smile Like Yours")'
p356
S'Natalie Cole'
p357
sS'Just Kickin  It'
p358
S'Xscape'
p359
sS'House Of Fire'
p360
S'Alice Cooper'
p361
sS'Pretending'
p362
S'Eric Clapton'
p363
sS'C.R.E.A.M. (Cash Rules Everything Around Me)'
p364
S'Wu-Tang Clan'
p365
sS'You re In Love'
p366
S'Wilson Phillips'
p367
sS"I'm The Only One"
p368
S'Melissa Etheridge'
p369
sS'All Cried Out'
p370
S'Allure Featuring 112'
p371
sS'Take A Picture'
p372
S'Filter'
p373
sS'I Saw You Dancing'
p374
S'Yaki-Da'
p375
sS'Leflaur Leflah Eshkushka'
p376
S'Heltah Skeltah And O.G.C. As The Fab 5'
p377
sS'Bullet With Butterfly Wings'
p378
S'The Smashing Pumpkins'
p379
sS'Blood On The Dance Floor'
p380
S'Michael Jackson'
p381
sS"Let's Get It On"
p382
S'Shabba Ranks'
p383
sS'You Light Up My Life'
p384
S'LeAnn Rimes'
p385
sS'Hit By Love'
p386
S'CeCe Peniston'
p387
sS'Praying For Time'
p388
S'George Michael'
p389
sS'Pumps And A Bump'
p390
S'M.C. Hammer'
p391
sS'The Ballad Of Jayne'
p392
S'L.A. Guns'
p393
sS'The Dolphin s Cry'
p394
S'Live'
p395
sS'As Long As It Matters'
p396
S'Gin Blossoms'
p397
sS'Baby Baby'
p398
S'Corona'
p399
sS'Let s Chill'
p400
S'Guy'
p401
sS'Big Deal'
p402
S'LeAnn Rimes'
p403
sS'Living In Oblivion'
p404
S'Anything Box'
p405
sS'West Up!'
p406
S'WC & The Maad Circle'
p407
sS'I Touch Myself'
p408
S'Divinyls'
p409
sS"I'll Be Missing You"
p410
S'Puff Daddy & Faith Evans Featuring 112'
p411
sS'Bounce Back'
p412
S'Alisha'
p413
sS'Sexual'
p414
S'Goddess'
p415
sS'Sugar Cane'
p416
S'Space Monkeys'
p417
sS'Blue'
p418
S'LeAnn Rimes'
p419
sS'Beyond The Invisible'
p420
S'Enigma'
p421
sS'Me-U=Blue'
p422
S'Glenn Medeiros (Featuring The Stylistics)'
p423
sS'You re The Love Of My Life/The Love I Lost'
p424
S'Sybil'
p425
sS'I m Overjoyed'
p426
S'Nona Gaye'
p427
sS'Love Is The Ritual'
p428
S'Styx'
p429
sS'Red Light Special'
p430
S'TLC'
p431
sS'Hey Lover'
p432
S'LL Cool J'
p433
sS'Waiting For That Day'
p434
S'George Michael'
p435
sS'Three Little Pigs'
p436
S'Green Jelly'
p437
sS'Body Bumpin  Yippie-Yi-Yo'
p438
S'Public Announcement'
p439
sS'Violence Of Summer (Love s Taking Over)'
p440
S'Duran Duran'
p441
sS'At Night I Pray'
p442
S'Wild Orchid'
p443
sS'Slow Motion'
p444
S'Color Me Badd'
p445
sS'Neon Moonlight'
p446
S'Rosco Martinez'
p447
sS'Hero'
p448
S'Mariah Carey'
p449
sS'Too Hot'
p450
S'Coolio'
p451
sS'Louder Than Love'
p452
S'TKA'
p453
sS'Oh Girl'
p454
S'Paul Young'
p455
sS'It s My Cadillac (Got That Bass)'
p456
S'MC Nas-D'
p457
sS'Silly Ho'
p458
S'TLC'
p459
sS'Gotta Man'
p460
S'Eve'
p461
sS'Let Me Roll'
p462
S'Scarface'
p463
sS'Talk Show Shhh!'
p464
S'Shae Jones'
p465
sS'I ll Think Of A Reason Later'
p466
S'Lee Ann Womack'
p467
sS'I Apologize'
p468
S'Anita Baker'
p469
sS'Never Leave Me Alone'
p470
S'Nate Dogg Featuring Snoop Doggy Dogg'
p471
sS'Enjoy Yourself'
p472
S'A+'
p473
sS'Ditty'
p474
S'Paperboy'
p475
sS'Sunny Came Home'
p476
S'Shawn Colvin'
p477
sS"Don't Go"
p478
S'Le Click Featuring Kayo'
p479
sS'Lately'
p480
S'Tyrese'
p481
sS'Giving You The Benefit'
p482
S'Pebbles'
p483
sS'Deck The Halls'
p484
S'SHeDAISY'
p485
sS'Someday'
p486
S'Sugar Ray'
p487
sS"Do You Want To/Can't Hang"
p488
S'Xscape Featuring MC Lyte'
p489
sS'Tide Is High'
p490
S'Angelina'
p491
sS"Floatin' On Your Love"
p492
S'The Isley Brothers Featuring Angela Winbush'
p493
sS'Biological Didn t Bother'
p494
S'Shaquille O Neal'
p495
sS'Live And Die For Hip Hop'
p496
S'Kris Kross'
p497
sS'Make It Like It Was'
p498
S'Regina Belle'
p499
sS'Runaway Train'
p500
S'Soul Asylum'
p501
sS'Shimmy Shimmy Ya'
p502
S"Ol' Dirty Bastard"
p503
sS'A Man Holdin  On (To A Woman Lettin  Go)'
p504
S'Ty Herndon'
p505
sS'Party Ain t A Party'
p506
S'Queen Pen Featuring Teddy Riley, Nutta Butta, Markell'
p507
sS'Here I Am (Come And Take Me)'
p508
S'UB40'
p509
sS'Stars'
p510
S'Simply Red'
p511
sS'No More "I Love You\'s"'
p512
S'Annie Lennox'
p513
sS'Blue Monday'
p514
S'Orgy'
p515
sS'Don t Take Away My Heaven'
p516
S'Aaron Neville'
p517
sS'Forever Amo r'
p518
S'D zyre'
p519
sS'Gin And Juice'
p520
S'Snoop Doggy Dogg'
p521
sS"Betcha'll Never Find"
p522
S'Chantay Savage'
p523
sS"I'm Looking For The One (To Be With Me)"
p524
S'Jazzy Jeff & The Fresh Prince'
p525
sS'I Love You Always Forever'
p526
S'Donna Lewis'
p527
sS'Don t Let It Go To Your Head'
p528
S'Brand Nubian'
p529
sS'Can I Get A...'
p530
S'Jay-Z Featuring Amil (Of Major Coinz)'
p531
sS'Celebration/Take Your Chance'
p532
S'Fun Factory'
p533
sS'If I Lost You'
p534
S'Travis Tritt'
p535
sS'What Will I Do'
p536
S'Timmy T'
p537
sS'Beauty And The Beast'
p538
S'Celine Dion And Peabo Bryson'
p539
sS"Last Night's Letter"
p540
S'K-Ci & JoJo'
p541
sS'Stranger To Love'
p542
S'St. Paul'
p543
sS'I m In Love'
p544
S'Lisa Keith'
p545
sS'Romeo'
p546
S'Dolly Parton'
p547
sS'Slow Love'
p548
S'Doc Box'
p549
sS'I d Give Anything'
p550
S'Gerald Levert'
p551
sS'Firestarter'
p552
S'Prodigy'
p553
sS"Let's Ride"
p554
S'Montell Jordan Feat. Master P & Silkk The Shocker'
p555
sS'Miss You In A Heartbeat'
p556
S'Def Leppard'
p557
sS"You're Not Alone"
p558
S'Olive'
p559
sS'You Can t Play With My Yo-Yo'
p560
S'Yo-Yo Featuring Ice Cube'
p561
sS'I ll Do 4 U'
p562
S'Father M.C.'
p563
sS'I Wish'
p564
S'Skee-Lo'
p565
sS'Love Don t Love You'
p566
S'En Vogue'
p567
sS'Sour Times (Nobody Loves Me)'
p568
S'Portishead'
p569
sS"I'm Not Feeling You"
p570
S'Yvette Michele'
p571
sS'Sweet Surrender'
p572
S'Sarah McLachlan'
p573
sS'What If I Said'
p574
S'Anita Cochran (Duet With Steve Wariner)'
p575
sS'I m Gonna Be (500 Miles)'
p576
S'The Proclaimers'
p577
sS'I Honestly Love You'
p578
S'Olivia Newton-John'
p579
sS'Ain t Gonna Hurt Nobody'
p580
S'Kid  N Play'
p581
sS'I m Looking For The One (To Be With Me)'
p582
S'Jazzy Jeff'
p583
sS'Ava Adore'
p584
S'The Smashing Pumpkins'
p585
sS'To Love Somebody'
p586
S'Michael Bolton'
p587
sS'Hate Me Now'
p588
S'NAS Featuring Puff Daddy'
p589
sS'Love Crazy'
p590
S'Atlantic Starr'
p591
sS'Do You Know (What It Takes)'
p592
S'Robyn'
p593
sS'I Will Survive (From "She-Devil")'
p594
S'SaFire'
p595
sS'Left '
p596
S'D Angelo Featuring Method Man And Redman'
p597
sS'I ve Got Mine'
p598
S'Glenn Frey'
p599
sS'Going Home'
p600
S'Kenny G'
p601
sS'Where Does That Leave Love'
p602
S'George LaMond'
p603
sS'Wrong Night'
p604
S'Reba'
p605
sS'Exclusivity'
p606
S'Damian Dame'
p607
sS'9th Wonder (Slicker This Year)'
p608
S'Digable Planets'
p609
sS'Don t Make Me Over'
p610
S'Sybil'
p611
sS'Irresistible'
p612
S'Cathy Dennis'
p613
sS'Hopelessly'
p614
S'Rick Astley'
p615
sS'There Goes My Baby'
p616
S'Trisha Yearwood'
p617
sS'Everybody [Backstreet s Back]'
p618
S'Backstreet Boys'
p619
sS'Check Yo Self'
p620
S'Ice Cube Featuring Das EFX'
p621
sS'Almost Hear You Sigh'
p622
S'The Rolling Stones'
p623
sS'What s My Name?'
p624
S'Snoop Doggy Dogg'
p625
sS'Feels So Good'
p626
S'Xscape'
p627
sS'Please'
p628
S'The Kinleys'
p629
sS'Heaven Help/Spinning Around Over You'
p630
S'Lenny Kravitz'
p631
sS'Rosealia'
p632
S'Better Than Ezra'
p633
sS'(You Drive Me) Crazy'
p634
S'Britney Spears'
p635
sS'Bliss'
p636
S'Tori Amos'
p637
sS'Don t Cry For Me Argentina (From "Evita")'
p638
S'Madonna'
p639
sS'Legend Of A Cowgirl'
p640
S'Imani Coppola'
p641
sS'Somebody Love Me'
p642
S'Michael W. Smith'
p643
sS'Dreamlover'
p644
S'Mariah Carey'
p645
sS"Mind Blowin'"
p646
S'Smooth'
p647
sS'Third Rock From The Sun'
p648
S'Joe Diffie'
p649
sS'I Don t Know'
p650
S'Michael Morales'
p651
sS'Fall At Your Feet'
p652
S'Crowded House'
p653
sS'Still Got The Blues'
p654
S'Gary Moore'
p655
sS'Move It To The Rhythm'
p656
S'Technotronic Featuring Ya Kid K'
p657
sS'Turtle Power'
p658
S'Partners In Kryme'
p659
sS"Can't Let Go"
p660
S'Laurnea'
p661
sS'Gotta Be...Movin  On Up'
p662
S'PRINCE BE'
p663
sS'Let Your Soul Be Your Pilot'
p664
S'Sting'
p665
sS'Get It Up (From "Poetic Justice")'
p666
S'TLC'
p667
sS'It Matters To Me'
p668
S'Faith Hill'
p669
sS'Saving Forever For You (From "Beverly Hills, 90210")'
p670
S'Shanice'
p671
sS'Have I Told You Lately'
p672
S'Rod Stewart'
p673
sS'A Dreams A Dream'
p674
S'Soul II Soul'
p675
sS'I Know'
p676
S'Dionne Farris'
p677
sS'Things We Do For Love'
p678
S'Horace Brown'
p679
sS'It s Not A Love Thing'
p680
S'Geoffrey Williams'
p681
sS'Have I Never'
p682
S'A Few Good Men'
p683
sS'Sentimental'
p684
S'Deborah Cox'
p685
sS'Every Time I Close My Eyes'
p686
S'Babyface'
p687
sS'Summertime Summertime'
p688
S'Corina'
p689
sS'I Like It'
p690
S'The Blackout Allstars'
p691
sS'New Jack Hustler (Nino s Theme) (From "New Jack City")'
p692
S'Ice-T'
p693
sS'Bling Bling'
p694
S"B.G. Featuring Baby, Turk, Mannie Fresh, Juvenile & Lil' Wayne"
p695
sS'Candle In The Wind 1997/Something About The Way You Look Tonight'
p696
S'Elton John'
p697
sS'Human Wheels'
p698
S'John Mellencamp'
p699
sS'Into Your Arms'
p700
S'The Lemonheads'
p701
sS'Chattahoochee'
p702
S'Alan Jackson'
p703
sS'This Beat Is Hot'
p704
S'B.G. The Prince Of Rap'
p705
sS'Jerk Out'
p706
S'The Time'
p707
sS'This Is The Last Time'
p708
S'Laura Enea'
p709
sS'You ve Got A Way'
p710
S'Shania Twain'
p711
sS'Dirty South'
p712
S'Goodie Mob.'
p713
sS'Rhythm Of My Heart'
p714
S'Rod Stewart'
p715
sS'Welcome To The Real World'
p716
S'Jane Child'
p717
sS'Blind Man'
p718
S'Aerosmith'
p719
sS"Don't Keep Wasting My Time"
p720
S'Teddy Pendergrass'
p721
sS'Save Some Love'
p722
S'Keedy'
p723
sS'It s No Good'
p724
S'Depeche Mode'
p725
sS'Somebody To Love'
p726
S'George Michael'
p727
sS'If I Could Turn Back The Hands Of Time'
p728
S'R. Kelly'
p729
sS'Time And Chance'
p730
S'Color Me Badd'
p731
sS'Coming Of Age'
p732
S'Damn Yankees'
p733
sS'Get Serious'
p734
S'Cut  N  Move'
p735
sS'Highwire'
p736
S'The Rolling Stones'
p737
sS'Rainy Days'
p738
S'General Public'
p739
sS'Gangsta\'s Paradise (From "Dangerous Minds")'
p740
S'Coolio Featuring L.V.'
p741
sS'Be Happy'
p742
S'Mary J. Blige'
p743
sS'Somebody s Out There Watching'
p744
S'The Kinleys'
p745
sS'My Heart Is Calling (From "The Preacher s Wife")'
p746
S'Whitney Houston'
p747
sS'Do I Have To Say The Words?'
p748
S'Bryan Adams'
p749
sS'Say A Prayer'
p750
S'Breathe'
p751
sS'This '
p752
S'Michael Penn'
p753
sS'Make Em  Say Uhh!'
p754
S'Master P Feat. Fiend, Silkk The Shocker, Mia X'
p755
sS'She s A Bitch'
p756
S'Missy "Misdemeanor" Elliott'
p757
sS'Save Your Love'
p758
S'Bad Boys Blue'
p759
sS'The Obvious Child'
p760
S'Paul Simon'
p761
sS"I'm Not A Player"
p762
S'Big Punisher'
p763
sS'Lick It'
p764
S'Roula'
p765
sS'Perfect World'
p766
S'Alias'
p767
sS'Just Like You'
p768
S'Robbie Nevil'
p769
sS'Ordinary World'
p770
S'Duran Duran'
p771
sS'Renee (From "Don\'t Be A Menace...")'
p772
S'Lost Boyz'
p773
sS'Angels'
p774
S'Robbie Williams'
p775
sS'Girl, You ll Be A Woman Soon (From "Pulp Fiction")'
p776
S'Urge Overkill'
p777
sS'What s Up Doc? (Can We Rock)'
p778
S'Fu-Schnickens W/ Shaquille O Neal'
p779
sS'Love On A Rooftop'
p780
S'Desmond Child'
p781
sS"Foolin' Around"
p782
S'Changing Faces'
p783
sS'Damn I Wish I Was Your Lover'
p784
S'Sophie B. Hawkins'
p785
sS'Tha Crossroads'
p786
S'Bone Thugs-N-Harmony'
p787
sS'Baby Hold On To Me'
p788
S'Gerald Levert (Duet With Eddie Levert)'
p789
sS"It's Your Love"
p790
S'She Moves'
p791
sS'Washed Away'
p792
S'Tom Cochrane'
p793
sS'Losin  Myself'
p794
S'Debbie Gibson'
p795
sS'Vivrant Thing'
p796
S'Q-Tip'
p797
sS'All That I Can Say'
p798
S'Mary J. Blige'
p799
sS'Girl, I ve Been Hurt'
p800
S'Snow'
p801
sS'My Up And Down'
p802
S'Adina Howard'
p803
sS'P.A.S.S.I.O.N.'
p804
S'Rhythm Syndicate'
p805
sS'A Man Ain t Made Of Stone'
p806
S'Randy Travis'
p807
sS'Love Will Never Do (Without You)'
p808
S'Janet Jackson'
p809
sS'Said I Loved You...But I Lied'
p810
S'Michael Bolton'
p811
sS"Don't Stop The Music"
p812
S'Playa'
p813
sS'Sukiyaki'
p814
S'4PM'
p815
sS'New York Minute'
p816
S'Don Henley'
p817
sS'Me And My Crazy World'
p818
S'Lost Boyz'
p819
sS'Frozen'
p820
S'Madonna'
p821
sS'Single White Female'
p822
S'Chely Wright'
p823
sS'Thought I d Died And Gone To Heaven'
p824
S'Bryan Adams'
p825
sS'Push It'
p826
S'Garbage'
p827
sS"I Don't Ever Want To See You Again"
p828
S'Uncle Sam'
p829
sS'It s Your Love'
p830
S'She Moves'
p831
sS'At The Stars'
p832
S'Better Than Ezra'
p833
sS'Sex Me (Parts I '
p834
S'R. Kelly'
p835
sS'Miracle'
p836
S'Whitney Houston'
p837
sS'Throw Your Set In The Air'
p838
S'Cypress Hill'
p839
sS'Do You Everynite'
p840
S'Joe Public'
p841
sS'John Deere Green'
p842
S'Joe Diffie'
p843
sS'If You Ever Have Forever In Mind'
p844
S'Vince Gill'
p845
sS'Life (Everybody Needs Somebody To Love)'
p846
S'Haddaway'
p847
sS'Wasted Time'
p848
S'Skid Row'
p849
sS'The Swalk'
p850
S'Notorious'
p851
sS'1-4-All-4-1'
p852
S'East Coast Family'
p853
sS'You Gotta Believe'
p854
S'Marky Mark'
p855
sS'Man Behind The Music'
p856
S'Queen Pen Featuring Teddy Riley'
p857
sS'It s A Shame (My Sister)'
p858
S'Monie Love'
p859
sS'Here We Are'
p860
S'Gloria Estefan'
p861
sS'Love Is A Rock'
p862
S'REO Speedwagon'
p863
sS'Award Tour'
p864
S'A Tribe Called Quest'
p865
sS'Till Somebody Loves You'
p866
S'Henry Lee Summer'
p867
sS"Can't Stop Lovin' You"
p868
S'Van Halen'
p869
sS"That's Right"
p870
S'DJ Taz Featuring Raheem The Dream'
p871
sS'Family Affair (From "Addams Family Values")'
p872
S'Shabba Ranks'
p873
sS"'Round We Go"
p874
S'Big Sister'
p875
sS"I'm From The Country"
p876
S'Tracy Byrd'
p877
sS'When I Die'
p878
S'No Mercy'
p879
sS"I'd Do Anything For Love (But I Won't Do That)"
p880
S'Meat Loaf'
p881
sS'Who s Gonna Ride Your Wild Horses'
p882
S'U2'
p883
sS'Twisted'
p884
S'Keith Sweat'
p885
sS'Shimmer'
p886
S'Fuel'
p887
sS'Sad New Day'
p888
S'Me Phi Me'
p889
sS'Laid'
p890
S'James'
p891
sS'I Can t Wait Another Minute'
p892
S'Hi-Five'
p893
sS'Closer To Me'
p894
S'The Outfield'
p895
sS'Where You Goin  Now'
p896
S'Damn Yankees'
p897
sS'Stop The World'
p898
S'Extreme'
p899
sS'Are You Jimmy Ray?'
p900
S'Jimmy Ray'
p901
sS'Here Comes The Hammer'
p902
S'M.C. Hammer'
p903
sS'Kiss Them For Me'
p904
S'Siouxsie'
p905
sS'Because Of You'
p906
S'98 Degrees'
p907
sS'Free'
p908
S'Ultra Nate'
p909
sS'Too Close'
p910
S'Next'
p911
sS'Superman s Song'
p912
S'Crash Test Dummies'
p913
sS'If I Ever Fall In Love'
p914
S'Shai'
p915
sS'All The Way'
p916
S'Calloway'
p917
sS'Never There'
p918
S'Cake'
p919
sS'In My Arms'
p920
S'Erasure'
p921
sS'Love Me The Right Way'
p922
S'Rapination'
p923
sS'Surrender'
p924
S'Trixter'
p925
sS'No Rain'
p926
S'Blind Melon'
p927
sS'Buddy X'
p928
S'Neneh Cherry'
p929
sS'I Don t Know Anybody Else'
p930
S'Black Box'
p931
sS'Set U Free'
p932
S'Planet Soul'
p933
sS'Carnival'
p934
S'Natalie Merchant'
p935
sS'Serenade'
p936
S'Shades'
p937
sS'Another Day In Paradise'
p938
S'Phil Collins'
p939
sS'Ain\'t Nobody (From "Beavis And Butt-Head Do America")'
p940
S'LL Cool J'
p941
sS'All I Wanna Do'
p942
S'Sheryl Crow'
p943
sS'Straight To Your Heart'
p944
S'Bad English'
p945
sS'Gonna Make You Sweat'
p946
S'C+C Music Factory'
p947
sS'My Maria'
p948
S'Brooks & Dunn'
p949
sS'Use Your Heart'
p950
S'SWV'
p951
sS'Real Muthaphuckkin G s'
p952
S'Eazy-E'
p953
sS'There You Have It'
p954
S'Blackhawk'
p955
sS'Shake It (Like A White Girl)'
p956
S'Jesse Jaymes'
p957
sS'A Whole New World (Aladdin s Theme)'
p958
S'Peabo Bryson'
p959
sS'C est La Vie'
p960
S'B*Witched'
p961
sS"Step Into A World (Rapture's Delight)"
p962
S'KRS-One'
p963
sS'Wild Night'
p964
S"John Mellencamp With Me'Shell Ndegeocello"
p965
sS'Space Jam (From "Space Jam")'
p966
S"Quad City DJ's"
p967
sS'Principal s Office'
p968
S'Young MC'
p969
sS'Humpin  Around'
p970
S'Bobby Brown'
p971
sS'My Name Is'
p972
S'Eminem'
p973
sS'Don t Hold Back Your Love'
p974
S'Daryl Hall  John Oates'
p975
sS'I m Outstanding'
p976
S'Shaquille O Neal'
p977
sS'I m Not Over You'
p978
S'CeCe Peniston'
p979
sS'Jackie s Strength'
p980
S'Tori Amos'
p981
sS'Notorious B.I.G.'
p982
S"The Notorious B.I.G. Featuring Puff Daddy & Lil' Kim"
p983
sS'Playground'
p984
S'Another Bad Creation'
p985
sS'Latin Active'
p986
S'Lighter Shade Of Brown Featuring Teardrop'
p987
sS'I Like It (I Wanna Be Where You Are)'
p988
S'Grand Puba'
p989
sS'I Wasn t With It'
p990
S'Jesse Powell'
p991
sS'Breathe Again'
p992
S'Toni Braxton'
p993
sS'Every Heartbeat'
p994
S'Amy Grant'
p995
sS'Froggy Style'
p996
S"Nuttin' Nyce"
p997
sS'Who Will Save Your Soul'
p998
S'Jewel'
p999
sS'4 Seasons Of Loneliness'
p1000
S'Boyz II Men'
p1001
sS'Bad Girl'
p1002
S'Madonna'
p1003
sS'Come Clean'
p1004
S'Jeru The Damaja'
p1005
sS'Stone Cold Gentleman'
p1006
S'Ralph Tresvant'
p1007
sS'Martika s Kitchen'
p1008
S'Martika'
p1009
sS'Run'
p1010
S'Collective Soul'
p1011
sS'I Belong To You/How Many Ways'
p1012
S'Toni Braxton'
p1013
sS'Supernova'
p1014
S'Liz Phair'
p1015
sS'Right Now'
p1016
S'Al B. Sure!'
p1017
sS'Insomnia'
p1018
S'Faithless'
p1019
sS'Cover You In Kisses'
p1020
S'John Michael Montgomery'
p1021
sS'As I Lay Me Down'
p1022
S'Sophie B. Hawkins'
p1023
sS'Your Baby Never Looked Good In Blue'
p1024
S'Expose'
p1025
sS'Intergalactic'
p1026
S'Beastie Boys'
p1027
sS'Unpretty'
p1028
S'TLC'
p1029
sS'Let The Music Heal Your Soul'
p1030
S'BRAVO All Stars'
p1031
sS'Beautiful Life'
p1032
S'Ace Of Base'
p1033
sS'Bed Of Roses'
p1034
S'Bon Jovi'
p1035
sS'How I Could Just Kill A Man/The Phuncky Feel One'
p1036
S'Cypress Hill'
p1037
sS'I Don t Love You Anymore'
p1038
S'The London Quireboys'
p1039
sS'Shot Of Poison'
p1040
S'Lita Ford'
p1041
sS'Physical Funk'
p1042
S'Domino'
p1043
sS'Supa Star'
p1044
S'Group Home'
p1045
sS'I Like (From "The Nutty Professor")'
p1046
S'Montell Jordan Featuring Slick Rick'
p1047
sS"Still Po' Pimpin'"
p1048
S'Do Or Die Featuring Johnny P & Twista'
p1049
sS'Love Is All Around'
p1050
S'Wet Wet Wet'
p1051
sS'I d Rather Go Blind'
p1052
S'Sydney Youngblood'
p1053
sS'You Don t Have To Hurt No More'
p1054
S'Mint Condition'
p1055
sS'Yours'
p1056
S'Shai'
p1057
sS'Stepping Stone'
p1058
S'Lari White'
p1059
sS'Breaking All The Rules'
p1060
S'She Moves'
p1061
sS'Good For Me'
p1062
S'Amy Grant'
p1063
sS'Always And Forever'
p1064
S'Luther Vandross'
p1065
sS'All She Wrote'
p1066
S'Firehouse'
p1067
sS'Cantaloop (Flip Fantasia)'
p1068
S'US 3'
p1069
sS'Fade Into You'
p1070
S'Mazzy Star'
p1071
sS'Baby Be There'
p1072
S'Nu Flavor'
p1073
sS'Step On'
p1074
S'Happy Mondays'
p1075
sS'Goody Goody'
p1076
S'Lisette Melendez'
p1077
sS'Southern Gul'
p1078
S'Erykah Badu Featuring Rahzel'
p1079
sS'Sometimes Always'
p1080
S'The Jesus and Mary Chain'
p1081
sS'Life Is A Highway'
p1082
S'Tom Cochrane'
p1083
sS'Cool As Ice (Everybody Get Loose)'
p1084
S'Vanilla Ice'
p1085
sS'You Want This/70 s Love Groove'
p1086
S'Janet Jackson'
p1087
sS'Man! I Feel Like A Woman!'
p1088
S'Shania Twain'
p1089
sS'Caught Out There'
p1090
S'Kelis'
p1091
sS'Back 2 Good'
p1092
S'matchbox 20'
p1093
sS'Closer'
p1094
S'Nine Inch Nails'
p1095
sS'Playaz Club'
p1096
S"Rappin' 4-Tay"
p1097
sS'Tha Block Is Hot'
p1098
S"Lil' Wayne Featuring Juvenile & B.G."
p1099
sS'Can t Get Enough Of Your Love'
p1100
S'Taylor Dayne'
p1101
sS'Weak'
p1102
S'SWV'
p1103
sS'Move Any Mountain'
p1104
S'The Shamen'
p1105
sS'The Great Beyond'
p1106
S'R.E.M.'
p1107
sS'Free Your Mind'
p1108
S'En Vogue'
p1109
sS'Your Woman'
p1110
S'White Town'
p1111
sS'Jeeps, Lex Coups, Bimaz & Benz'
p1112
S'Lost Boyz'
p1113
sS'If You Asked Me To'
p1114
S'Celine Dion'
p1115
sS"Shadowboxin'"
p1116
S'Genius/GZA Featuring Method Man'
p1117
sS"The Quittin' Kind"
p1118
S'Joe Diffie'
p1119
sS'Rest In Peace'
p1120
S'Extreme'
p1121
sS'Ooh La La'
p1122
S'Rod Stewart'
p1123
sS'Let Me Let Go'
p1124
S'Faith Hill'
p1125
sS'Remember The Time'
p1126
S'Michael Jackson'
p1127
sS'You re The Only Woman'
p1128
S'The Brat Pack'
p1129
sS"Do G's Get To Go To Heaven?"
p1130
S'Richie Rich'
p1131
sS'Hazard'
p1132
S'Richard Marx'
p1133
sS'Let Me Be Your Lover'
p1134
S'The U-Krew'
p1135
sS'How Deep Is Your Love'
p1136
S'Dru Hill Featuring Redman'
p1137
sS'Since I Don t Have You'
p1138
S'Guns N  Roses'
p1139
sS'Man On The Moon'
p1140
S'R.E.M.'
p1141
sS'U Know What s Up'
p1142
S'Donell Jones'
p1143
sS'You Don t Know How It Feels'
p1144
S'Tom Petty'
p1145
sS'Definition'
p1146
S'Mos Def'
p1147
sS'Strawberry Letter 23'
p1148
S'Tevin Campbell'
p1149
sS'Tell Me Why'
p1150
S'Wynonna'
p1151
sS'Blinded By Love'
p1152
S'Rhythm Syndicate'
p1153
sS'Hands'
p1154
S'Jewel'
p1155
sS'All About Soul'
p1156
S'Billy Joel'
p1157
sS"5 O'Clock"
p1158
S'Nonchalant'
p1159
sS'Not About Romance'
p1160
S'Inner Circle'
p1161
sS'Stand Up'
p1162
S'Love Tribe'
p1163
sS"Freek'n You"
p1164
S'Jodeci'
p1165
sS'Cold Rock A Party'
p1166
S'MC Lyte'
p1167
sS'Sound Of Da Police'
p1168
S'KRS-One'
p1169
sS'I m The One You Need'
p1170
S'Jody Watley'
p1171
sS'Sometimes I Rhyme Slow'
p1172
S'Nice'
p1173
sS'Wrong Again'
p1174
S'Martina McBride'
p1175
sS'The Downeaster "Alexa"'
p1176
S'Billy Joel'
p1177
sS'Fly High Michelle'
p1178
S'Enuff Z Nuff'
p1179
sS'The Hitman'
p1180
S'AB Logic'
p1181
sS"Don't Rush"
p1182
S'Silk'
p1183
sS'Envy/Firewater'
p1184
S'Fat Joe'
p1185
sS'Stay Real'
p1186
S'Erick Sermon'
p1187
sS"In Harm's Way"
p1188
S'BeBe Winans'
p1189
sS'Made In England'
p1190
S'Elton John'
p1191
sS'Hook'
p1192
S'Blues Traveler'
p1193
sS'Boombastic/In The Summertime'
p1194
S'Shaggy'
p1195
sS"I'd Rather Be Alone"
p1196
S'IV Xample'
p1197
sS'We Got It'
p1198
S'Immature (Featuring Smooth)'
p1199
sS'Justify My Love'
p1200
S'Madonna'
p1201
sS"When Love Starts Talkin'"
p1202
S'Wynonna'
p1203
sS'The Emperor s New Clothes'
p1204
S'Sinead O Connor'
p1205
sS'Summer Vacation'
p1206
S'The Party'
p1207
sS'Baby, I Believe In You'
p1208
S'George LaMond'
p1209
sS'Oh Carolina'
p1210
S'Shaggy'
p1211
sS'Same Ol  Situation (S.O.S.)'
p1212
S'Motley Crue'
p1213
sS'Touch Me'
p1214
S'Solo'
p1215
sS'Crazy Little Thing Called Love'
p1216
S'Dwight Yoakam'
p1217
sS'Bad Bad Boys'
p1218
S'Midi Maxi'
p1219
sS'Loving Arms'
p1220
S'Darden Smith'
p1221
sS'The Last Worthless Evening'
p1222
S'Don Henley'
p1223
sS'Sittin\' Up In My Room (From "Waiting To Exhale")'
p1224
S'Brandy'
p1225
sS'Whole Wide World (From "True Love")'
p1226
S'A me Lorain'
p1227
sS'World (The Price Of Love)'
p1228
S'New Order'
p1229
sS'They Want EFX'
p1230
S'Das EFX'
p1231
sS'Jellyhead'
p1232
S'Crush'
p1233
sS'Falling'
p1234
S'Montell Jordan'
p1235
sS'Break Ups 2 Make Ups'
p1236
S'Method Man Featuring D Angelo'
p1237
sS'It s For You (From "The Meteor Man")'
p1238
S'Shanice'
p1239
sS'Feel So Good'
p1240
S'Mase'
p1241
sS'I Got A Thang 4 Ya!'
p1242
S'Lo-Key?'
p1243
sS'That s The Way It Is'
p1244
S'Celine Dion'
p1245
sS'What s It To You'
p1246
S'Clay Walker'
p1247
sS'Get Down'
p1248
S'Craig Mack'
p1249
sS'Wishing On The Same Star'
p1250
S'Keedy'
p1251
sS'Quit Playing Games (With My Heart)'
p1252
S'Backstreet Boys'
p1253
sS'Stop'
p1254
S'Spice Girls'
p1255
sS'All By Myself'
p1256
S'Celine Dion'
p1257
sS'Hippychick'
p1258
S'Soho'
p1259
sS'Candy Rain'
p1260
S'Soul For Real'
p1261
sS'Come In Out Of The Rain'
p1262
S'Wendy Moten'
p1263
sS'Kisses In The Night'
p1264
S'Brandon'
p1265
sS'I Want It All'
p1266
S'Warren G Featuring Mack 10'
p1267
sS'I Got The Hook Up!'
p1268
S'Master P Featuring Sons Of Funk'
p1269
sS'It Was A Good Day'
p1270
S'Ice Cube'
p1271
sS'Heartbreak Station'
p1272
S'Cinderella'
p1273
sS'Home'
p1274
S'Depeche Mode'
p1275
sS'Mr. Wendal'
p1276
S'Arrested Development'
p1277
sS'Fastlove'
p1278
S'George Michael'
p1279
sS'All This Time'
p1280
S'Sting'
p1281
sS'Right Here'
p1282
S'SWV'
p1283
sS'Boom Biddy Bye Bye'
p1284
S'Cypress Hill'
p1285
sS'Boom, Boom, Boom, Boom!!'
p1286
S'Vengaboys'
p1287
sS'1979'
p1288
S'The Smashing Pumpkins'
p1289
sS'True Blue Love'
p1290
S'Lou Gramm'
p1291
sS'Saint Of Me'
p1292
S'The Rolling Stones'
p1293
sS'So Close'
p1294
S'Dina Carroll'
p1295
sS'Horse '
p1296
S'Cam Ron Featuring Mase'
p1297
sS"What's On Tonight"
p1298
S'Montell Jordan'
p1299
sS'Sending My Love'
p1300
S'Zhane'
p1301
sS'Thinking Of You'
p1302
S'Tony Toni Tone'
p1303
sS'Cat s In The Cradle'
p1304
S'Ugly Kid Joe'
p1305
sS'Naked Eye'
p1306
S'Luscious Jackson'
p1307
sS'The Chanukah Song'
p1308
S'Adam Sandler'
p1309
sS'Every Day Of The Week'
p1310
S'Jade'
p1311
sS'Have Fun, Go Mad'
p1312
S'Blair'
p1313
sS'Jamboree'
p1314
S'Naughty By Nature Featuring Zhane'
p1315
sS'Say... If You Feel Alright'
p1316
S'Crystal Waters'
p1317
sS'57 Channels (And Nothin  On)'
p1318
S'Bruce Springsteen'
p1319
sS'I Miss My Homies'
p1320
S'Master P Featuring Pimp C And The Shocker'
p1321
sS'Anything (From "Above The Rim")'
p1322
S'SWV'
p1323
sS'Save Tonight'
p1324
S'Eagle-Eye Cherry'
p1325
sS"Where It's At"
p1326
S'Beck'
p1327
sS'Black Coffee'
p1328
S'Heavy D & The Boyz'
p1329
sS'Pets'
p1330
S'Porno For Pyros'
p1331
sS'What Kind Of Man Would I Be'
p1332
S'Mint Condition'
p1333
sS'Come As You Are'
p1334
S'Nirvana'
p1335
sS'I Knew I Loved You'
p1336
S'Savage Garden'
p1337
sS'Old To The New'
p1338
S'Nice'
p1339
sS'The Way I Feel'
p1340
S'Tag'
p1341
sS'Happy'
p1342
S'Legacy Of Sound Featuring Meja'
p1343
sS'Don t Go Away Mad (Just Go Away)'
p1344
S'Motley Crue'
p1345
sS"Devil's Haircut"
p1346
S'Beck'
p1347
sS"Nothin' Move But The Money"
p1348
S'Mic Geronimo Featuring DMX & Black Rob'
p1349
sS'For You I Will'
p1350
S'Aaron Tippin'
p1351
sS'IOU'
p1352
S'Arthur Baker Featuring Nikeeta'
p1353
sS'Hold You Tight'
p1354
S'Tara Kemp'
p1355
sS'When I Look Into Your Eyes'
p1356
S'Firehouse'
p1357
sS'The Greatest Romance Ever Sold'
p1358
S'Prince'
p1359
sS"I'm Not Giving You Up"
p1360
S'Gloria Estefan'
p1361
sS'In My Dreams'
p1362
S'The Party'
p1363
sS'Low Rider (On The Boulevard)'
p1364
S'Latin Alliance Featuring War'
p1365
sS'Don t Laugh At Me'
p1366
S'Mark Wills'
p1367
sS'I Belong To You (Every Time I See Your Face)'
p1368
S'Rome'
p1369
sS'Jump On It'
p1370
S'Sir Mix-A-Lot'
p1371
sS'Start The Car'
p1372
S'Jude Cole'
p1373
sS"What's It To You"
p1374
S'Clay Walker'
p1375
sS'Juice (Know The Ledge)'
p1376
S'Eric B.'
p1377
sS'Coco Jamboo'
p1378
S'Mr. President'
p1379
sS'Betcha ll Never Find'
p1380
S'Chantay Savage'
p1381
sS'Drop Dead Gorgeous'
p1382
S'Republica'
p1383
sS'Wink'
p1384
S'Neal McCoy'
p1385
sS'Hold On (Tighter To Love)'
p1386
S'Clubland'
p1387
sS'She Don t Use Jelly'
p1388
S'The Flaming Lips'
p1389
sS'Show Me Love'
p1390
S'Robyn'
p1391
sS'Romeo '
p1392
S'Stacy Earl (Featuring The Wild Pair)'
p1393
sS'Inside That I Cried'
p1394
S'CeCe Peniston'
p1395
sS"I'm Goin' Down"
p1396
S'Mary J. Blige'
p1397
sS'I m The Only One'
p1398
S'Melissa Etheridge'
p1399
sS'I m Not Ready'
p1400
S'Keith Sweat'
p1401
sS'I Can Make It Better'
p1402
S'Luther Vandross'
p1403
sS'Can t Cry Hard Enough'
p1404
S'The Williams Brothers'
p1405
sS'Whatcha Gone Do?'
p1406
S'Link'
p1407
sS'Get At Me Dog'
p1408
S'DMX Featuring Sheek Of The Lox'
p1409
sS'Count On Me (From "Waiting To Exhale")'
p1410
S'Whitney Houston & CeCe Winans'
p1411
sS'Everything You Do (You re Sexing Me)'
p1412
S'Fiona (Duet With Kip Winger)'
p1413
sS'I Don t Want To Wait'
p1414
S'Paula Cole'
p1415
sS'Hit Me Off'
p1416
S'New Edition'
p1417
sS'90 s Girl'
p1418
S'Blackgirl'
p1419
sS'Just A Friend'
p1420
S'Biz Markie'
p1421
sS'Touch My Light'
p1422
S'Big Mountain'
p1423
sS'Feels Like Heaven'
p1424
S'Peter Cetera (Duet With Chaka Khan)'
p1425
sS'Break Up To Make Up'
p1426
S'Cynthia'
p1427
sS'Wild World'
p1428
S'Mr. Big'
p1429
sS'You Better Wait'
p1430
S'Steve Perry'
p1431
sS'Need Your Love'
p1432
S'Big Bub Featuring Queen Latifah & Heavy D'
p1433
sS'The Other Side'
p1434
S'Aerosmith'
p1435
sS'Through The Rain'
p1436
S'Tanya Blount'
p1437
sS'You Are The One'
p1438
S'Chris Cuevas'
p1439
sS'Beware Of My Crew (From "A Thin Line Between Love And Hate")'
p1440
S'L.B.C. Crew Feat. Tray D & South Sentrell'
p1441
sS'Can t We Try'
p1442
S'Rockell [Duet With Collage]'
p1443
sS'U.N.I.T.Y.'
p1444
S'Queen Latifah'
p1445
sS'Powerful Thing'
p1446
S'Trisha Yearwood'
p1447
sS'Here & Now'
p1448
S'Letters To Cleo'
p1449
sS'Get On Your Feet'
p1450
S'Gloria Estefan'
p1451
sS'She s Got That Vibe'
p1452
S'R. Kelly'
p1453
sS'Fire Escape'
p1454
S'Fastball'
p1455
sS'It s In Your Eyes'
p1456
S'Phil Collins'
p1457
sS'Malibu'
p1458
S'Hole'
p1459
sS'Run Away'
p1460
S'Real McCoy'
p1461
sS'Run To You (From "The Bodyguard")'
p1462
S'Whitney Houston'
p1463
sS"Don't Take It Personal (Just One Of Dem Days)"
p1464
S'Monica'
p1465
sS'One Woman'
p1466
S'Jade'
p1467
sS'Undone - The Sweater Song'
p1468
S'Weezer'
p1469
sS'I Live My Life For You'
p1470
S'Firehouse'
p1471
sS'You Won t Ever Be Lonely'
p1472
S'Andy Griggs'
p1473
sS'Dreaming Of You'
p1474
S'Selena'
p1475
sS"Let's Talk About Sex"
p1476
S'Salt-N-Pepa'
p1477
sS'Let s Get Rocked'
p1478
S'Def Leppard'
p1479
sS'More Than Ever'
p1480
S'Nelson'
p1481
sS'Ha'
p1482
S'Juvenile'
p1483
sS'Love Takes Time'
p1484
S'Mariah Carey'
p1485
sS'I Wanna Know'
p1486
S'Joe'
p1487
sS'Turn It Up'
p1488
S'Oaktown s 3.5.7'
p1489
sS'And So It Goes'
p1490
S'Billy Joel'
p1491
sS'Move Right Out'
p1492
S'Rick Astley'
p1493
sS'Rodeo'
p1494
S'95 South'
p1495
sS'Back Up Off Me!'
p1496
S'Doctor Dre'
p1497
sS'Something Like That'
p1498
S'Tim McGraw'
p1499
sS'Big Poppa/Warning'
p1500
S'The Notorious B.I.G.'
p1501
sS'My Body Says Yes'
p1502
S'Titiyo'
p1503
sS'How Do I Live (From "Con Air")'
p1504
S'Trisha Yearwood'
p1505
sS'Think'
p1506
S'Information Society'
p1507
sS"Breakfast At Tiffany's"
p1508
S'Deep Blue Something'
p1509
sS"Ain't Nobody/Kissing You"
p1510
S'Faith Evans'
p1511
sS'Baby I m For Real/Natural High'
p1512
S'After 7'
p1513
sS"Stayin' Alive"
p1514
S'N-Trance'
p1515
sS'What s So Different'
p1516
S'Ginuwine'
p1517
sS'Valentine'
p1518
S'Martina McBride With Jim Brickman'
p1519
sS'Peaches'
p1520
S'The Presidents Of The United States Of America'
p1521
sS'Unchained Melody'
p1522
S'Righteous Brothers'
p1523
sS'Whatcha Gonna Do With My Lovin '
p1524
S'Inner City'
p1525
sS'Shake'
p1526
S'Andrew Ridgeley'
p1527
sS'Games'
p1528
S'Chuckii Booker'
p1529
sS'Wonderwall'
p1530
S'Oasis'
p1531
sS'What The World Needs Now Is Love'
p1532
S'Dionne Warwick And The Hip-Hop Nation United'
p1533
sS'Bedtime Story'
p1534
S'Madonna'
p1535
sS'Nika'
p1536
S'Vicious'
p1537
sS'Funk Boutique'
p1538
S'The Cover Girls'
p1539
sS'Again'
p1540
S'Janet Jackson'
p1541
sS'Worker Man'
p1542
S'Patra'
p1543
sS'Teddy Bear'
p1544
S'G-Wiz'
p1545
sS'Poison'
p1546
S'Bell Biv Devoe'
p1547
sS'Dirty Cash (Money Talks)'
p1548
S'The Adventures Of Stevie V'
p1549
sS'Much Better'
p1550
S'Club 69 Featuring Suzanne Palmer'
p1551
sS'Love Can Move Mountains'
p1552
S'Celine Dion'
p1553
sS'Back At One'
p1554
S'Brian McKnight'
p1555
sS'I Don t Ever Want To See You Again'
p1556
S'Uncle Sam'
p1557
sS"Things Just Ain't The Same"
p1558
S'Deborah Cox'
p1559
sS'If You Go'
p1560
S'Jon Secada'
p1561
sS'Chains'
p1562
S'Tina Arena'
p1563
sS'Hat 2 Da Back'
p1564
S'TLC'
p1565
sS'Each And Every Time'
p1566
S'Sweet Sensation'
p1567
sS'Take This Heart'
p1568
S'Richard Marx'
p1569
sS'Nobody s Supposed To Be Here'
p1570
S'Deborah Cox'
p1571
sS'A Night To Remember'
p1572
S'Joe Diffie'
p1573
sS'Love Of My Life'
p1574
S'Sammy Kershaw'
p1575
sS'Krazy'
p1576
S'Blackgirl'
p1577
sS'No One Else'
p1578
S'Total'
p1579
sS'One Of Us'
p1580
S'Joan Osborne'
p1581
sS'Feenin '
p1582
S'Jodeci'
p1583
sS'What Would Happen'
p1584
S'Meredith Brooks'
p1585
sS'I ll Take Her'
p1586
S'Ill Al Skratch Featuring Brian McKnight'
p1587
sS"Fa All Y'all"
p1588
S'Da Brat'
p1589
sS'Ooops Up'
p1590
S'Snap'
p1591
sS'Bad Of The Heart'
p1592
S'George LaMond'
p1593
sS'Gotta Be'
p1594
S'Jagged Edge'
p1595
sS'The Keeper Of The Stars'
p1596
S'Tracy Byrd'
p1597
sS'Live For Loving You'
p1598
S'Gloria Estefan'
p1599
sS'Just Clownin '
p1600
S'WC From Westside Connection'
p1601
sS'Genie In A Bottle'
p1602
S'Christina Aguilera'
p1603
sS'Six Feet Deep'
p1604
S'Geto Boys'
p1605
sS'Forever Tonight'
p1606
S'Peter Cetera & Crystal Bernard'
p1607
sS'Kickstart My Heart'
p1608
S'Motley Crue'
p1609
sS'Good Enough'
p1610
S'Sarah McLachlan'
p1611
sS'Keep It Together'
p1612
S'Madonna'
p1613
sS'Wait For You'
p1614
S'Bonham'
p1615
sS'Blue Sky Mine'
p1616
S'Midnight Oil'
p1617
sS'Player s Ball'
p1618
S'OutKast'
p1619
sS'Always Tomorrow'
p1620
S'Gloria Estefan'
p1621
sS'Tremor Christ/Spin The Black Circle'
p1622
S'Pearl Jam'
p1623
sS'Get Gone'
p1624
S'Ideal'
p1625
sS'Cannonball'
p1626
S'The Breeders'
p1627
sS'Show Me'
p1628
S'Howard Hewett'
p1629
sS'Phenomenon'
p1630
S'LL Cool J'
p1631
sS'Am I Wrong'
p1632
S'Love Spit Love'
p1633
sS'Letitgo'
p1634
S'Prince'
p1635
sS'I Need Money'
p1636
S'Marky Mark'
p1637
sS'Vow'
p1638
S'Garbage'
p1639
sS'Pink'
p1640
S'Aerosmith'
p1641
sS'I ll See You In My Dreams'
p1642
S'Giant'
p1643
sS'Look Into My Eyes (From "Batman '
p1644
S'Bone Thugs-N-Harmony'
p1645
sS'Come See Me'
p1646
S'112'
p1647
sS'Cream'
p1648
S'Prince And The N.P.G.'
p1649
sS'Jessie'
p1650
S'Joshua Kadison'
p1651
sS'Bad Reputation'
p1652
S'Freedy Johnston'
p1653
sS'Doin It'
p1654
S'LL Cool J'
p1655
sS'Free Fallin '
p1656
S'Tom Petty'
p1657
sS'Let s Talk About Sex'
p1658
S'Salt-N-Pepa'
p1659
sS"Ain't Nobody"
p1660
S'Diana King'
p1661
sS'Jealousy'
p1662
S'Kim Sanders'
p1663
sS'Black Balloon'
p1664
S'Goo Goo Dolls'
p1665
sS'Cleopatra s Theme'
p1666
S'Cleopatra'
p1667
sS'Price Of Love'
p1668
S'Bad English'
p1669
sS'Crush'
p1670
S'Dave Matthews Band'
p1671
sS'When We Dance'
p1672
S'Sting'
p1673
sS"You Don't Have To Love Me"
p1674
S'Monifah'
p1675
sS'Try To Find Me'
p1676
S'Gorky Park'
p1677
sS'L.A. Song'
p1678
S'Beth Hart'
p1679
sS'Love Sneakin  Up On You'
p1680
S'Bonnie Raitt'
p1681
sS'Monster'
p1682
S'Fred Schneider'
p1683
sS'Call It Rock N  Roll'
p1684
S'Great White'
p1685
sS'Too Late, Too Soon'
p1686
S'Jon Secada'
p1687
sS'Uhh Ahh'
p1688
S'Boyz II Men'
p1689
sS'Borrowed Love'
p1690
S'Bingo Boys'
p1691
sS'Toss-Up'
p1692
S'N2Deep'
p1693
sS'Everyotherday'
p1694
S'Or-N-More (Featuring Father M.C.)'
p1695
sS'For You I Will (From "Space Jam")'
p1696
S'Monica'
p1697
sS'Shifftee'
p1698
S'Onyx'
p1699
sS'Do You Wanna Get Funky'
p1700
S'C+C Music Factory'
p1701
sS'Keep On, Keepin\' On (From "Sunset Park")'
p1702
S'MC Lyte Featuring Xscape'
p1703
sS'More Than This'
p1704
S'10,000 Maniacs'
p1705
sS'Step By Step'
p1706
S'New Kids On The Block'
p1707
sS'Anything But Down'
p1708
S'Sheryl Crow'
p1709
sS'How Do You Talk To An Angel'
p1710
S'The Heights'
p1711
sS'Sure Lookin '
p1712
S'Donny Osmond'
p1713
sS"Don't Look Back In Anger"
p1714
S'Oasis'
p1715
sS'I Got 5 On It'
p1716
S'Luniz'
p1717
sS'The Unforgiven II'
p1718
S'Metallica'
p1719
sS'Bills, Bills, Bills'
p1720
S'Destiny s Child'
p1721
sS'Walking To Jerusalem'
p1722
S'Tracy Byrd'
p1723
sS'Even A Fool Can See'
p1724
S'Peter Cetera'
p1725
sS'Only My Heart Talkin '
p1726
S'Alice Cooper'
p1727
sS'Nookie'
p1728
S'Limp Bizkit'
p1729
sS"Cruisin'"
p1730
S"D'Angelo"
p1731
sS'You Only Have To Say You Love Me'
p1732
S'Hannah Jones'
p1733
sS'Tell Me It s Real'
p1734
S'K-Ci'
p1735
sS'Something In Your Eyes'
p1736
S'Bell Biv Devoe'
p1737
sS'We Really Shouldn t Be Doing This'
p1738
S'George Strait'
p1739
sS'Whiney, Whiney (From "Dumb And Dumber")'
p1740
S'Willi One Blood'
p1741
sS'Tonite'
p1742
S'DJ Quik'
p1743
sS'99 Worlds'
p1744
S'Peter Wolf'
p1745
sS'Runnin '
p1746
S'2Pac, Notorious B.I.G., Radio, Dramacydal'
p1747
sS'Anything At All'
p1748
S'Mitch Malloy'
p1749
sS'Snapshot'
p1750
S'RuPaul'
p1751
sS'Luv Me, Luv Me'
p1752
S'Shaggy Featuring Janet'
p1753
sS"Can't Get You Off My Mind"
p1754
S'Lenny Kravitz'
p1755
sS'Use It Up And Wear It Out'
p1756
S'Pat'
p1757
sS'Nights Like This (From "The Five Heartbeats")'
p1758
S'After 7'
p1759
sS'Step By Step (From "The Preacher s Wife")'
p1760
S'Whitney Houston'
p1761
sS'Nobody'
p1762
S'Keith Sweat Featuring Athena Cage'
p1763
sS'Sex Me (Parts I & II)'
p1764
S'R. Kelly'
p1765
sS'Whenever You re Near Me'
p1766
S'Ace Of Base'
p1767
sS'The Sign'
p1768
S'Ace Of Base'
p1769
sS'Hey Stoopid'
p1770
S'Alice Cooper'
p1771
sS'Get It Together'
p1772
S'702'
p1773
sS'Cruel Summer'
p1774
S'Ace Of Base'
p1775
sS'It Must Have Been Love (From "Pretty Woman")'
p1776
S'Roxette'
p1777
sS'I ll Stand By You'
p1778
S'Pretenders'
p1779
sS'Tender Kisses'
p1780
S'Tracie Spencer'
p1781
sS'I Will Go With You (Con Te Partiro)'
p1782
S'Donna Summer'
p1783
sS'Nu Nu'
p1784
S'Lidell Townsell'
p1785
sS'Brian Wilson'
p1786
S'Barenaked Ladies'
p1787
sS'Ride The Wind'
p1788
S'Poison'
p1789
sS"What's My Name?"
p1790
S'Snoop Dogg'
p1791
sS'Sugar Honey Ice Tea'
p1792
S'Goodfellaz'
p1793
sS"Ain't No Nigga/Dead Presidents"
p1794
S'Jay-Z Featuring Foxxy Brown'
p1795
sS'Burn'
p1796
S'Militia'
p1797
sS'Hard To Handle'
p1798
S'The Black Crowes'
p1799
sS'Lucky Love'
p1800
S'Ace Of Base'
p1801
sS'A Little Past Little Rock'
p1802
S'Lee Ann Womack'
p1803
sS'Nice '
p1804
S'Usher'
p1805
sS'Understanding'
p1806
S'Xscape'
p1807
sS'Pink Cashmere'
p1808
S'Prince'
p1809
sS'La Familia'
p1810
S'Frost'
p1811
sS'Brokenhearted'
p1812
S'Brandy'
p1813
sS'Westside'
p1814
S'TQ'
p1815
sS'Empty Beach'
p1816
S'Tricia Leigh Fisher'
p1817
sS'Ever Since You Went Away'
p1818
S"Art N' Soul"
p1819
sS'Figure Of Eight'
p1820
S'Paul McCartney'
p1821
sS'Anything'
p1822
S'3T'
p1823
sS'"B" Girls'
p1824
S'Young And Restless'
p1825
sS'If You (Lovin  Me)'
p1826
S'Silk'
p1827
sS'Warm Summer Daze'
p1828
S'Vybe'
p1829
sS'If I Can t Have You'
p1830
S'L.F.O. (Lyte Funky Ones) (Featuring Kayo)'
p1831
sS'Didn t I (Blow Your Mind)'
p1832
S'New Kids On The Block'
p1833
sS"I Can't Tell You Why"
p1834
S'Brownstone'
p1835
sS'Doo Wop (That Thing)'
p1836
S'Lauryn Hill'
p1837
sS"Money's Just A Touch Away"
p1838
S'Mack 10 Featuring Gerald Levert'
p1839
sS'Tell The Truth'
p1840
S'Jude Cole'
p1841
sS'Slow Jams'
p1842
S'Quincy Jones Feat. Babyface & Tamia With Portrai'
p1843
sS'Where The Green Grass Grows'
p1844
S'Tim McGraw'
p1845
sS'When I Close My Eyes'
p1846
S'Shanice'
p1847
sS'I Don t Wanna Cry'
p1848
S'Mariah Carey'
p1849
sS'Steelo'
p1850
S'702'
p1851
sS'Danger'
p1852
S'Blahzay Blahzay'
p1853
sS'(She s) Some Kind Of Wonderful'
p1854
S'Huey Lewis'
p1855
sS'7 Seconds'
p1856
S'Youssou N Dour'
p1857
sS'Hanky Panky'
p1858
S'Madonna'
p1859
sS'You Gotta Love Someone'
p1860
S'Elton John'
p1861
sS'Hard To Say I m Sorry'
p1862
S'Az Yet Featuring Peter Cetera'
p1863
sS"Things'll Never Change/Rapper's Ball"
p1864
S'E-40 Featuring Bo-Rock'
p1865
sS"If I Can't Have You"
p1866
S'L.F.O. (Lyte Funky Ones) (Featuring Kayo)'
p1867
sS'True Love'
p1868
S'Elton John'
p1869
sS'Ease My Mind'
p1870
S'Arrested Development'
p1871
sS'Hole Hearted'
p1872
S'Extreme'
p1873
sS"Don't Wanna Lose You"
p1874
S'Lionel Richie'
p1875
sS'You re Makin  Me High/Let It Flow'
p1876
S'Toni Braxton'
p1877
sS'Reason To Believe'
p1878
S'Rod Stewart'
p1879
sS'Whoomp! (There It Is)'
p1880
S'Tag Team'
p1881
sS'Smells Like Nirvana'
p1882
S'Weird Al Yankovic'
p1883
sS'But It s Alright'
p1884
S'Huey Lewis'
p1885
sS'Tell Me Where It Hurts'
p1886
S'Kathy Troccoli'
p1887
sS'Almost Unreal (From "Super Mario Bros.")'
p1888
S'Roxette'
p1889
sS'She s So High'
p1890
S'Tal Bachman'
p1891
sS'All The Things (Your Man Won\'t Do) (From "Don\'t Be A Menace...")'
p1892
S'Joe'
p1893
sS'These Are Days'
p1894
S'10,000 Maniacs'
p1895
sS'Who You Wit (From "Sprung")'
p1896
S'Jay-Z'
p1897
sS'Thinkin  Problem'
p1898
S'David Ball'
p1899
sS'Work To Do'
p1900
S'Vanessa Williams'
p1901
sS'Last Night (From "The Nutty Professor")'
p1902
S'Az Yet'
p1903
sS'More Than Words'
p1904
S'Extreme'
p1905
sS'I m Not Feeling You'
p1906
S'Yvette Michele'
p1907
sS"Dancin'"
p1908
S'Guy'
p1909
sS"Can't Be Really Gone"
p1910
S'Tim McGraw'
p1911
sS'The Boy Is Mine'
p1912
S'Brandy'
p1913
sS'Baby Got Back'
p1914
S'Sir Mix-A-Lot'
p1915
sS'Masterpiece'
p1916
S'Atlantic Starr'
p1917
sS'Ready To Go'
p1918
S'Republica'
p1919
sS'There Will Never Be Another Tonight'
p1920
S'Bryan Adams'
p1921
sS'Jealous'
p1922
S'Gene Loves Jezebel'
p1923
sS'Sun s Gonna Rise'
p1924
S'Sass Jordan'
p1925
sS'The Ways Of The Wind'
p1926
S'P.M. Dawn'
p1927
sS'That s What Love Can Do'
p1928
S'Boy Krazy'
p1929
sS'House Full Of Reasons'
p1930
S'Jude Cole'
p1931
sS"This Ain't A Love Song"
p1932
S'Bon Jovi'
p1933
sS'I Wanna Be Down'
p1934
S'Brandy'
p1935
sS'Let s Make A Night To Remember'
p1936
S'Bryan Adams'
p1937
sS'I Saw It Cummin '
p1938
S'PMD'
p1939
sS'How s It Goin  Down'
p1940
S'DMX Featuring Faith Evans'
p1941
sS'I Didn t Mean To Stay All Night'
p1942
S'Starship'
p1943
sS'One In A Million'
p1944
S'Trixter'
p1945
sS"The Mummers' Dance"
p1946
S'Loreena McKennitt'
p1947
sS'Take Time'
p1948
S'Chris Walker'
p1949
sS'God Bless The Child'
p1950
S'Shania Twain'
p1951
sS'Changes'
p1952
S'2Pac'
p1953
sS'One Last Cry'
p1954
S'Brian McKnight'
p1955
sS'For The Love Of You'
p1956
S'Jordan Hill'
p1957
sS'Sick Of Myself'
p1958
S'Matthew Sweet'
p1959
sS'Love You Down'
p1960
S'INOJ/LATHUN'
p1961
sS'Drowning In Your Eyes'
p1962
S'Ephraim Lewis'
p1963
sS'Last Night On Earth'
p1964
S'U2'
p1965
sS'For Your Love'
p1966
S'Stevie Wonder'
p1967
sS"Nobody's Supposed To Be Here"
p1968
S'Deborah Cox'
p1969
sS'Mr. Personality'
p1970
S'Gillette'
p1971
sS'Kiss Me'
p1972
S'Sixpence None The Richer'
p1973
sS'When I m Back On My Feet Again'
p1974
S'Michael Bolton'
p1975
sS'When You Believe'
p1976
S'Whitney Houston'
p1977
sS'The First Night'
p1978
S'Monica'
p1979
sS'I m Too Sexy'
p1980
S'Right Said Fred'
p1981
sS"Tucker's Town"
p1982
S'Hootie & The Blowfish'
p1983
sS'Can U Get Wit It'
p1984
S'Usher'
p1985
sS'Walls (From "She\'s The One")'
p1986
S'Tom Petty And The Heartbreakers'
p1987
sS"Don't Say You Love Me"
p1988
S'M2M'
p1989
sS'How Do U Want It/California Love'
p1990
S'2Pac Featuring KC And JoJo'
p1991
sS'I ll Be There'
p1992
S'Mariah Carey'
p1993
sS'Sweet Lady'
p1994
S'Tyrese'
p1995
sS'Feel The Music'
p1996
S'Planet Soul Featuring Brenda Dee'
p1997
sS'I Do [Cherish You]'
p1998
S'Mark Wills'
p1999
sS'To Make You Feel My Love'
p2000
S'Billy Joel'
p2001
sS'Tic-Tac-Toe'
p2002
S'Kyper'
p2003
sS'Love Is A Wonderful Thing'
p2004
S'Michael Bolton'
p2005
sS'All True Man'
p2006
S'Alexander O Neal'
p2007
sS'Listen Me Tic (Woyoi)'
p2008
S'Ini Kamoze'
p2009
sS'Oye Mi Canto (Hear My Voice)'
p2010
S'Gloria Estefan'
p2011
sS'Piece Of My Heart'
p2012
S'Shaggy (Featuring Marsha)'
p2013
sS'Maybe Love Will Change Your Mind'
p2014
S'Stevie Nicks'
p2015
sS"Thinkin' Bout It"
p2016
S'Gerald Levert'
p2017
sS'Insensitive (From "Bed Of Roses")'
p2018
S'Jann Arden'
p2019
sS'Forever My Lady'
p2020
S'Jodeci'
p2021
sS'All I Do Is Think Of You'
p2022
S'Troop'
p2023
sS'Don t Wanna Be A Player (From "Booty Call")'
p2024
S'Joe'
p2025
sS'I ll Be Missing You'
p2026
S'Puff Daddy'
p2027
sS'Men Of Steel (From "Steel")'
p2028
S"Shaquille O'Neal, Ice Cube, B Real, Peter Gunz & KRS-One"
p2029
sS'What If'
p2030
S'Reba McEntire'
p2031
sS'Easy Come, Easy Go'
p2032
S'George Strait'
p2033
sS'Iris'
p2034
S'Goo Goo Dolls'
p2035
sS"Everybody [Backstreet's Back]"
p2036
S'Backstreet Boys'
p2037
sS'Ain t Nobody Like You'
p2038
S'Miki Howard'
p2039
sS'Spice Up Your Life'
p2040
S'Spice Girls'
p2041
sS'Undeniable'
p2042
S'Ms. Adventures'
p2043
sS'Don t Talk Just Kiss'
p2044
S'Right Said Fred'
p2045
sS'Every Morning'
p2046
S'Sugar Ray'
p2047
sS"It's All Coming Back To Me Now"
p2048
S'Celine Dion'
p2049
sS'ATLiens'
p2050
S'OutKast'
p2051
sS'You Remind Me Of Something'
p2052
S'R. Kelly'
p2053
sS'The I.N.C. Ride'
p2054
S'Masta Ace Incorporated'
p2055
sS'Big Time Sensuality'
p2056
S'Bjork'
p2057
sS'Expression'
p2058
S'Salt-N-Pepa'
p2059
sS"Can't Get Enough"
p2060
S'Willie Max Featuring Raphael Saadiq'
p2061
sS'Holy Water'
p2062
S'Bad Company'
p2063
sS'Wrap My Body Tight'
p2064
S'Johnny Gill'
p2065
sS'Stranger In Moscow'
p2066
S'Michael Jackson'
p2067
sS'Night In My Veins'
p2068
S'Pretenders'
p2069
sS'When You re Gone/Free To Decide'
p2070
S'The Cranberries'
p2071
sS'On Point'
p2072
S'House Of Pain'
p2073
sS'Old Times  Sake (From "Above The Rim")'
p2074
S'Sweet Sable'
p2075
sS'Make It Hot'
p2076
S'Nicole Featuring Missy "Misdemeanor" Elliott'
p2077
sS'Happy Days'
p2078
S'Silk'
p2079
sS'The Moment'
p2080
S'Kenny G'
p2081
sS'To The Moon And Back'
p2082
S'Savage Garden'
p2083
sS'Children'
p2084
S'Robert Miles'
p2085
sS'One For The Money'
p2086
S'Horace Brown'
p2087
sS'Don t Be Afraid'
p2088
S'Aaron Hall'
p2089
sS'Heartspark Dollarsign'
p2090
S'Everclear'
p2091
sS'The Arms Of The One Who Loves You'
p2092
S'Xscape'
p2093
sS'U Don t Know Me (Like U Used To)'
p2094
S'Brandy'
p2095
sS'Stay (I Missed You) (From "Reality Bites")'
p2096
S'Lisa Loeb'
p2097
sS'5 Miles To Empty'
p2098
S'Brownstone'
p2099
sS'Layla'
p2100
S'Eric Clapton'
p2101
sS"How's It Goin' Down"
p2102
S'DMX Featuring Faith Evans'
p2103
sS'Unskinny Bop'
p2104
S'Poison'
p2105
sS'Horse & Carriage'
p2106
S"Cam'Ron Featuring Mase"
p2107
sS'Mr. Ice Cream Man'
p2108
S'Master P'
p2109
sS'I Wish The Phone Would Ring'
p2110
S'Expose'
p2111
sS'Key West Intermezzo (I Saw You First)'
p2112
S'John Mellencamp'
p2113
sS'Streets Of Philadelphia (From "Philadelphia")'
p2114
S'Bruce Springsteen'
p2115
sS'The World Tonight (From "Fathers  Day")'
p2116
S'Paul McCartney'
p2117
sS'Missing'
p2118
S'Everything But The Girl'
p2119
sS'What It Takes'
p2120
S'Aerosmith'
p2121
sS'Remember When'
p2122
S'Color Me Badd'
p2123
sS'Unconditional Love (From "Menace II Society")'
p2124
S'Hi-Five'
p2125
sS'Good Vibrations'
p2126
S'Marky Mark & The Funky Bunch Featuring Loleatta Holloway'
p2127
sS'In The Meantime'
p2128
S'Spacehog'
p2129
sS"Life Ain't Easy"
p2130
S'Cleopatra'
p2131
sS'She Ain t Pretty'
p2132
S'The Northern Pikes'
p2133
sS'Rock And Roll Is Dead'
p2134
S'Lenny Kravitz'
p2135
sS'Why'
p2136
S'Annie Lennox'
p2137
sS'I Like To Move It'
p2138
S'Reel 2 Real Featuring The Mad Stuntman'
p2139
sS'Full Term Love (From "Class Act")'
p2140
S'Monie Love'
p2141
sS'The Only Thing That Looks Good On Me Is You'
p2142
S'Bryan Adams'
p2143
sS'Free As A Bird'
p2144
S'The Beatles'
p2145
sS'Always'
p2146
S'Bon Jovi'
p2147
sS'Love Desire'
p2148
S'Sandee'
p2149
sS'My Body'
p2150
S'LSG'
p2151
sS'Visions Of A Sunset (From "Mr. Holland\'s Opus")'
p2152
S'Shawn Stockman'
p2153
sS'I ve Been Waiting For You'
p2154
S'Guys Next Door'
p2155
sS'Just Want To Hold You'
p2156
S'Jasmine Guy'
p2157
sS'Nuthin  But A "G" Thang'
p2158
S'Dr. Dre'
p2159
sS'It s All Coming Back To Me Now'
p2160
S'Celine Dion'
p2161
sS'I Believe I Can Fly (From "Space Jam")'
p2162
S'R. Kelly'
p2163
sS'Fat Boy'
p2164
S'Max-A-Million'
p2165
sS'Indo Smoke (From "Poetic Justice")'
p2166
S'Mista Grimm'
p2167
sS'Don t Take The Girl'
p2168
S'Tim McGraw'
p2169
sS'Sweat (A La La La La Long)'
p2170
S'Inner Circle'
p2171
sS'Who Needs Pictures'
p2172
S'Brad Paisley'
p2173
sS'Hide And Seek'
p2174
S'Pajama Party'
p2175
sS'When You Talk About Love'
p2176
S'Patti LaBelle'
p2177
sS'Melt In Your Mouth'
p2178
S'Candyman'
p2179
sS'Bring The Pain'
p2180
S'Method Man'
p2181
sS'Nappy Heads'
p2182
S'Fugees'
p2183
sS'I Will Come To You'
p2184
S'Hanson'
p2185
sS'Nothing Else Matters'
p2186
S'Metallica'
p2187
sS'The Way That You Talk'
p2188
S'Jagged Edge Featuring Da Brat & JD'
p2189
sS'Have You Seen Her'
p2190
S'M.C. Hammer'
p2191
sS'Money, Power & Respect'
p2192
S"The Lox [Featuring DMX & Lil' Kim]"
p2193
sS'Satisfy You'
p2194
S'Puff Daddy Featuring R. Kelly'
p2195
sS'Have A Little Mercy'
p2196
S'4.0'
p2197
sS'You Don t Have To Love Me'
p2198
S'Monifah'
p2199
sS'That s Why'
p2200
S'The Party'
p2201
sS'Get Ready For This'
p2202
S'2 Unlimited'
p2203
sS'Things That Make You Go Hmmmm...'
p2204
S'C+C Music Factory'
p2205
sS'Pretty Fly (For A White Guy)'
p2206
S'The Offspring'
p2207
sS'Scary Kisses'
p2208
S'Voice Of The Beehive'
p2209
sS'Jam'
p2210
S'Michael Jackson'
p2211
sS'Cheated (To All The Girls)'
p2212
S'Wyclef Jean Featuring Queen Pen & The Product'
p2213
sS'Mambo No. 5 (A Little Bit Of...)'
p2214
S'Lou Bega'
p2215
sS'Soul To Squeeze (From "Coneheads")'
p2216
S'Red Hot Chili Peppers'
p2217
sS'Meeting In My Bedroom'
p2218
S'Silk'
p2219
sS'Setting Sun'
p2220
S'CHEMICAL BROTHERS'
p2221
sS'Wish You Were Here'
p2222
S'Mark Wills'
p2223
sS'Anything I Want'
p2224
S'Kevin Paige'
p2225
sS'What s Stopping You'
p2226
S'The O Jays'
p2227
sS"It's Alright, It's Ok"
p2228
S'Leah Andreone'
p2229
sS'U Don t Hear Me Tho '
p2230
S'Rodney O'
p2231
sS'Lost In Love'
p2232
S'Nastyboy Klick'
p2233
sS'Never Make A Promise'
p2234
S'Dru Hill'
p2235
sS'Rain'
p2236
S'SWV'
p2237
sS'Auld Lang Syne'
p2238
S'Kenny G'
p2239
sS'Do You'
p2240
S'Heather B.'
p2241
sS'Summer Rain'
p2242
S'Belinda Carlisle'
p2243
sS'Looking For Mr. Do Right'
p2244
S'Jade'
p2245
sS'What Is Love'
p2246
S'Haddaway'
p2247
sS'Here Come The Lords'
p2248
S'Lords Of The Underground'
p2249
sS'Promises Broken'
p2250
S'Soul Asylum'
p2251
sS'Scenario'
p2252
S'A Tribe Called Quest'
p2253
sS'Linger'
p2254
S'The Cranberries'
p2255
sS'It s Your Song'
p2256
S'Garth Brooks'
p2257
sS'Keep Warm'
p2258
S'Jinny'
p2259
sS'Boot Scootin  Boogie'
p2260
S'Brooks'
p2261
sS'Born 2 B.R.E.E.D.'
p2262
S'Monie Love'
p2263
sS'I m Not Satisfied'
p2264
S'Fine Young Cannibals'
p2265
sS'Doo Doo Brown'
p2266
S'2 Hyped Brothers'
p2267
sS'Thank God I Found You'
p2268
S'Mariah Carey Featuring Joe & 98 Degrees'
p2269
sS'High Enough'
p2270
S'Damn Yankees'
p2271
sS'If Tomorrow Never Comes'
p2272
S'Joose'
p2273
sS'You Can t Deny It'
p2274
S'Lisa Stansfield'
p2275
sS'You Don t Have To Go Home Tonight'
p2276
S'The Triplets'
p2277
sS'Last Kiss'
p2278
S'Pearl Jam'
p2279
sS'House Of Love'
p2280
S'Amy Grant With Vince Gill'
p2281
sS'Spark'
p2282
S'Tori Amos'
p2283
sS'Amazed'
p2284
S'Lonestar'
p2285
sS'Vogue'
p2286
S'Madonna'
p2287
sS'I Believe In You And Me (From "The Preacher s Wife")'
p2288
S'Whitney Houston'
p2289
sS'I ll Go Crazy'
p2290
S'Andy Griggs'
p2291
sS'Lullaby'
p2292
S'Shawn Mullins'
p2293
sS'Streiht Up Menace (From "Menace II Society")'
p2294
S'MC Eiht'
p2295
sS'Kiss You All Over'
p2296
S'No Mercy'
p2297
sS'I Luv U Baby'
p2298
S'The Original'
p2299
sS'Don\'t Let Go (Love) (From "Set It Off")'
p2300
S'En Vogue'
p2301
sS'Solitude'
p2302
S'Edwin McCain'
p2303
sS'Tap The Bottle'
p2304
S'Young Black Teenagers'
p2305
sS'Sleeping In My Car'
p2306
S'Roxette'
p2307
sS'Four Leaf Clover'
p2308
S'Abra Moore'
p2309
sS'Gotta Have You (From "Jungle Fever")'
p2310
S'Stevie Wonder'
p2311
sS'Your Love Is A...'
p2312
S'Whitehead Bros.'
p2313
sS"I Don't Wanna Be Alone"
p2314
S'Shai'
p2315
sS'Daydreamin '
p2316
S'Tatyana Ali'
p2317
sS'Go Away'
p2318
S'Lorrie Morgan'
p2319
sS'Too Funky'
p2320
S'George Michael'
p2321
sS'Millennium'
p2322
S'Robbie Williams'
p2323
sS'Street Dreams'
p2324
S'Nas'
p2325
sS"You'll See"
p2326
S'Madonna'
p2327
sS'I ll Remember (From "With Honors")'
p2328
S'Madonna'
p2329
sS'She Thinks My Tractor s Sexy'
p2330
S'Kenny Chesney'
p2331
sS'Killer/Papa Was A Rollin  Stone'
p2332
S'George Michael'
p2333
sS'Step It Up'
p2334
S'Stereo MC s'
p2335
sS'This Gift'
p2336
S'98 Degrees'
p2337
sS'Maybe Not Tonight'
p2338
S'Sammy Kershaw'
p2339
sS'Before I Let You Go'
p2340
S'BLACKstreet'
p2341
sS'Redneck Stomp'
p2342
S'Jeff Foxworthy'
p2343
sS'A Little Bit Of Ecstasy'
p2344
S'Jocelyn Enriquez'
p2345
sS'Be My Lover'
p2346
S'La Bouche'
p2347
sS'(If There Was) Any Other Way'
p2348
S'Celine Dion'
p2349
sS'Tootsee Roll'
p2350
S'69 Boyz'
p2351
sS'Kissing You'
p2352
S'Keith Washington'
p2353
sS'Now And Forever'
p2354
S'Richard Marx'
p2355
sS'Clock Strikes'
p2356
S'Timbaland'
p2357
sS'Joy'
p2358
S'BLACKstreet'
p2359
sS'Roll Wit Tha Flava'
p2360
S'The Flavor Unit MC s'
p2361
sS'Shut Up And Kiss Me'
p2362
S'Mary Chapin Carpenter'
p2363
sS'Sending All My Love'
p2364
S'Linear'
p2365
sS'Connected'
p2366
S'Stereo MC s'
p2367
sS'Electric Boogie'
p2368
S'Marcia Griffiths'
p2369
sS'Change The World (From "Phenomenon")'
p2370
S'Eric Clapton'
p2371
sS'Groovy Train'
p2372
S'The Farm'
p2373
sS'Somethin  To Ride To (Fonky Expedition)'
p2374
S'The Conscious Daughters'
p2375
sS'You Make Me Feel (Mighty Real)'
p2376
S'Jimmy Somerville'
p2377
sS'Around The World'
p2378
S'Daft Punk'
p2379
sS'Gimme Some Love'
p2380
S'Gina G'
p2381
sS'Knockin  Boots'
p2382
S'Candyman'
p2383
sS'Sometimes'
p2384
S'Britney Spears'
p2385
sS'Smooth'
p2386
S'Santana Featuring Rob Thomas'
p2387
sS'Lullabye (Goodnight, My Angel)'
p2388
S'Billy Joel'
p2389
sS'Can t Stop'
p2390
S'After 7'
p2391
sS"You Want This/70's Love Groove"
p2392
S'Janet Jackson'
p2393
sS'Another Like My Lover'
p2394
S'Jasmine Guy'
p2395
sS'Never Stop'
p2396
S'The Brand New Heavies Feat. N Dea Davenport'
p2397
sS'Set Adrift On Memory Bliss'
p2398
S'P.M. Dawn'
p2399
sS'You Showed Me'
p2400
S'Salt-N-Pepa'
p2401
sS'Tell Me When'
p2402
S'The Human League'
p2403
sS'Right On The Money'
p2404
S'Alan Jackson'
p2405
sS'Take Me In Your Arms'
p2406
S'Lil Suzy'
p2407
sS'One Week'
p2408
S'Barenaked Ladies'
p2409
sS'Angelia'
p2410
S'Richard Marx'
p2411
sS'Players Holiday'
p2412
S'T.W.D.Y. Featuring Too Short'
p2413
sS'Hard Knock Life (Ghetto Anthem)'
p2414
S'Jay-Z'
p2415
sS'Ironic'
p2416
S'Alanis Morissette'
p2417
sS'Sittin  On Top Of The World'
p2418
S'Da Brat'
p2419
sS'I m Already Taken'
p2420
S'Steve Wariner'
p2421
sS'The Comfort Zone'
p2422
S'Vanessa Williams'
p2423
sS'Will 2K'
p2424
S'Will Smith Featuring K-Ci'
p2425
sS'Backyard Boogie'
p2426
S'Mack 10'
p2427
sS'All Woman'
p2428
S'Lisa Stansfield'
p2429
sS'Nothin  But The Cavi Hit (From "Rhyme '
p2430
S'Mack 10'
p2431
sS'Sock It 2 Me'
p2432
S'Missy "Misdemeanor" Elliott Featuring Da Brat'
p2433
sS'Kiss From A Rose (From "Batman Forever")'
p2434
S'Seal'
p2435
sS'Pure'
p2436
S'Lightning Seeds'
p2437
sS'When Something Is Wrong With My Baby'
p2438
S'Linda Ronstadt/Aaron Neville'
p2439
sS'Together Again'
p2440
S'Janet'
p2441
sS'L.A. Woman'
p2442
S'Billy Idol'
p2443
sS'Dream On Dreamer'
p2444
S'The Brand New Heavies'
p2445
sS'Too Much'
p2446
S'Spice Girls'
p2447
sS'This Is For The Lover In You'
p2448
S'Babyface Feat. LL Cool J, Howard Hewett, Jody Watley & Jef'
p2449
sS'I Know Where It s At'
p2450
S'All Saints'
p2451
sS'God Blessed Texas'
p2452
S'Little Texas'
p2453
sS'Thorn In My Pride'
p2454
S'The Black Crowes'
p2455
sS'Keep Ya Head Up'
p2456
S'2Pac'
p2457
sS'Mmmbop'
p2458
S'Hanson'
p2459
sS"Smokin' Me Out"
p2460
S'Warren G Featuring Ronald Isley'
p2461
sS'Scar Tissue'
p2462
S'Red Hot Chili Peppers'
p2463
sS'Can t Let Go'
p2464
S'Laurnea'
p2465
sS'Completely'
p2466
S'Michael Bolton'
p2467
sS'Cherry Pie'
p2468
S'Warrant'
p2469
sS"You Don't Know How It Feels"
p2470
S'Tom Petty'
p2471
sS'Have You Ever?'
p2472
S'Brandy'
p2473
sS'Talk To Myself'
p2474
S'Christopher Williams'
p2475
sS'You Don t Have To Worry'
p2476
S'Mary J. Blige'
p2477
sS"Jimmy Olsen's Blues"
p2478
S'Spin Doctors'
p2479
sS'1999'
p2480
S'Prince'
p2481
sS'Forever Love (From "Mo  Money")'
p2482
S'Color Me Badd'
p2483
sS"Gettin' It"
p2484
S'Too Short Feat. Parliament Funkadelic'
p2485
sS'Blues Before And After'
p2486
S'The Smithereens'
p2487
sS'NAS Is Like'
p2488
S'NAS'
p2489
sS'Was It Nothing At All'
p2490
S'Michael Damian'
p2491
sS'No More Tears'
p2492
S'Ozzy Osbourne'
p2493
sS'Time For Letting Go'
p2494
S'Jude Cole'
p2495
sS'Addams Groove'
p2496
S'M.C. Hammer'
p2497
sS'The Floor'
p2498
S'Johnny Gill'
p2499
sS'In Walked Love'
p2500
S'Expose'
p2501
sS'Jack-Ass'
p2502
S'Beck'
p2503
sS"Da' Dip"
p2504
S'Freak Nasty'
p2505
sS'Georgy Porgy'
p2506
S'Eric Benet Featuring Faith Evans'
p2507
sS'Romantic'
p2508
S'Karyn White'
p2509
sS'Bailamos'
p2510
S'Enrique Iglesias'
p2511
sS'The Angel Song'
p2512
S'Great White'
p2513
sS'They Like It Slow'
p2514
S'H-Town'
p2515
sS'The Bonnie And Clyde Theme'
p2516
S'Yo Yo'
p2517
sS"I Always Feel Like (Somebody's Watching Me)"
p2518
S'Tru Featuring Ice Cream Man (Master P)'
p2519
sS'If U Were Mine'
p2520
S'The U-Krew'
p2521
sS'Out Of Tears'
p2522
S'The Rolling Stones'
p2523
sS'Don t Turn Around'
p2524
S'Ace Of Base'
p2525
sS"Groovin'"
p2526
S'UB40'
p2527
sS'Groovin '
p2528
S'UB40'
p2529
sS'Scatman (Ski-Ba-Bop-Ba-Dop-Bop)'
p2530
S'Scatman John'
p2531
sS'This Is How We Do It'
p2532
S'Montell Jordan'
p2533
sS'Where Do You Go'
p2534
S'No Mercy'
p2535
sS'Stand By My Woman'
p2536
S'Lenny Kravitz'
p2537
sS'My Lovin  (You re Never Gonna Get It)'
p2538
S'En Vogue'
p2539
sS'All I Need Is You'
p2540
S'Blue Train'
p2541
sS'Girls '
p2542
S'Blur'
p2543
sS'Dance Into The Light'
p2544
S'Phil Collins'
p2545
sS'Cheers 2 U'
p2546
S'Playa'
p2547
sS'ABC-123'
p2548
S'Levert'
p2549
sS'It\'s All The Way Live (Now) (From "Eddie")'
p2550
S'Coolio'
p2551
sS'Back In The Day'
p2552
S'Ahmad'
p2553
sS'Funkdafied'
p2554
S'Da Brat'
p2555
sS'Little Miracles (Happen Every Day)'
p2556
S'Luther Vandross'
p2557
sS'Torn'
p2558
S'Natalie Imbruglia'
p2559
sS"Age Ain't Nothing But A Number"
p2560
S'Aaliyah'
p2561
sS'Silence Is Broken (From "Nowhere To Run")'
p2562
S'Damn Yankees'
p2563
sS'Gypsy Woman (She s Homeless)'
p2564
S'Crystal Waters'
p2565
sS'Whipped'
p2566
S'Jon Secada'
p2567
sS'Take Your Time'
p2568
S'Tre'
p2569
sS'Everybody Hurts'
p2570
S'R.E.M.'
p2571
sS'Got Your Money'
p2572
S"Ol' Dirty Bastard Featuring Kelis"
p2573
sS'I Love You Came Too Late'
p2574
S'Joey McIntyre'
p2575
sS'You Have The Right To Remain Silent'
p2576
S'Perfect Stranger'
p2577
sS'One Sweet Day'
p2578
S'Mariah Carey & Boyz II Men'
p2579
sS'The World Tonight (From "Fathers\' Day")'
p2580
S'Paul McCartney'
p2581
sS'Home Alone'
p2582
S'R. Kelly Featuring Keith Murray'
p2583
sS'Always On My Mind'
p2584
S'SWV'
p2585
sS'Imagination'
p2586
S'Tamia'
p2587
sS'Shook Ones Part II'
p2588
S'Mobb Deep'
p2589
sS'Dance Naked'
p2590
S'John Mellencamp'
p2591
sS'Macarena Christmas'
p2592
S'Los Del Rio'
p2593
sS'Just Take My Heart'
p2594
S'Mr. Big'
p2595
sS'Superhero'
p2596
S'Daze'
p2597
sS'Humps For The Blvd.'
p2598
S'Rodney O'
p2599
sS'If You re Serious'
p2600
S'Riff'
p2601
sS'Tic Toc'
p2602
S'Lords Of The Underground'
p2603
sS'I Will Be Here For You'
p2604
S'Michael W. Smith'
p2605
sS'Name'
p2606
S'Goo Goo Dolls'
p2607
sS'Warrior s Drum'
p2608
S'King Just'
p2609
sS'Drop'
p2610
S'The Pharcyde'
p2611
sS'Here We Go Again!'
p2612
S'Portrait'
p2613
sS'Is It Good To You'
p2614
S'Heavy D'
p2615
sS'Only If...'
p2616
S'Enya'
p2617
sS'Strawberry'
p2618
S'Nicole Renee'
p2619
sS'Forever More'
p2620
S'Puff Johnson'
p2621
sS'Heartbeat'
p2622
S'Seduction'
p2623
sS'Wu-Wear: The Garment Renaissance (From "High School High")'
p2624
S'RZA Feat. Method Man & Cappadonna'
p2625
sS'I ll Remember You'
p2626
S'Atlantic Starr'
p2627
sS'Ballad Of Youth'
p2628
S'Richie Sambora'
p2629
sS'Your Song'
p2630
S'Rod Stewart'
p2631
sS'That s Right'
p2632
S'DJ Taz Featuring Raheem The Dream'
p2633
sS'Busy Man'
p2634
S'Billy Ray Cyrus'
p2635
sS'Rock With You'
p2636
S'Inner Circle'
p2637
sS'On And On'
p2638
S'Shyheim'
p2639
sS'Everybody Plays The Fool'
p2640
S'Aaron Neville'
p2641
sS'Can I Stay With You'
p2642
S'Karyn White'
p2643
sS'Whatever You Want'
p2644
S'Tony Toni Tone'
p2645
sS'What s My Age Again?'
p2646
S'Blink-182'
p2647
sS'Get Up! (Before The Night Is Over)'
p2648
S'Technotronic'
p2649
sS'Soul Food'
p2650
S'Goodie Mob.'
p2651
sS'Caught A Lite Sneeze'
p2652
S'Tori Amos'
p2653
sS"That's The Way It Is"
p2654
S'Celine Dion'
p2655
sS'All I Have To Give'
p2656
S'Backstreet Boys'
p2657
sS'Bop Gun (One Nation)'
p2658
S'Ice Cube Featuring George Clinton'
p2659
sS'Absence Of The Heart'
p2660
S'Deana Carter'
p2661
sS'Love Will Lead You Back'
p2662
S'Taylor Dayne'
p2663
sS'Hey Man Nice Shot'
p2664
S'Filter'
p2665
sS'Church Of Your Heart'
p2666
S'Roxette'
p2667
sS'Have You Ever Needed Someone So Bad'
p2668
S'Def Leppard'
p2669
sS"It's In Your Eyes"
p2670
S'Phil Collins'
p2671
sS'No More Games'
p2672
S"Skin Deep Featuring Li'l Kim Of Junior M.A.F.I.A."
p2673
sS'Never 2 Much Of U'
p2674
S'Dino'
p2675
sS'Theme From Mission: Impossible (From "Mission: Impossible")'
p2676
S'Adam Clayton & Larry Mullen'
p2677
sS'What Are You Doing With A Fool Like Me'
p2678
S'Joe Cocker'
p2679
sS'Endless Love'
p2680
S'Luther Vandross & Mariah Carey'
p2681
sS"Pushin' Weight"
p2682
S'Ice Cube Featuring Mr. Short Khop'
p2683
sS'My Name Is Not Susan'
p2684
S'Whitney Houston'
p2685
sS'Part Time Lover/I m Still In Love With You'
p2686
S'H-Town/Al B. Sure!'
p2687
sS'A Rose Is Still A Rose'
p2688
S'Aretha Franklin'
p2689
sS'Breathe'
p2690
S'Faith Hill'
p2691
sS'If U Stay Ready'
p2692
S'Suga Free'
p2693
sS'Precious Declaration'
p2694
S'Collective Soul'
p2695
sS'No Son Of Mine'
p2696
S'Genesis'
p2697
sS'How Do I Say I m Sorry'
p2698
S'Tami Davis'
p2699
sS'The Shoop Shoop Song (It s In His Kiss)'
p2700
S'Cher'
p2701
sS'Can t Stop This Thing We Started'
p2702
S'Bryan Adams'
p2703
sS'Georgia On My Mind'
p2704
S'Michael Bolton'
p2705
sS'Adia'
p2706
S'Sarah McLachlan'
p2707
sS'2 Become 1'
p2708
S'Spice Girls'
p2709
sS'How Do You Sleep At Night'
p2710
S'Wade Hayes'
p2711
sS'Awake'
p2712
S'Letters To Cleo'
p2713
sS'Nothing  Bout Me'
p2714
S'Sting'
p2715
sS'Bring It All To Me'
p2716
S'Blaque'
p2717
sS'Sunday Morning'
p2718
S'Earth, Wind'
p2719
sS'Girls Nite Out'
p2720
S'Tyler Collins'
p2721
sS'Who Dat'
p2722
S'JT Money Featuring Sole'
p2723
sS'You ll Be In My Heart'
p2724
S'Phil Collins'
p2725
sS'If I Could Teach The World'
p2726
S'Bone Thugs-N-Harmony'
p2727
sS'All For Love'
p2728
S'Bryan Adams/Rod Stewart/Sting'
p2729
sS'Wanna Be A Baller'
p2730
S'Lil  Troy Featuring Yungsta, Fat Pat, Lil  Will, Hawk, Big T'
p2731
sS'I Never Knew Love'
p2732
S'Doug Stone'
p2733
sS'House Of Pain'
p2734
S'Faster Pussycat'
p2735
sS'Take My Advice'
p2736
S'Kym Sims'
p2737
sS'I Hate U'
p2738
S'Prince'
p2739
sS'Lift Me Up'
p2740
S'Howard Jones'
p2741
sS'3 A.M. Eternal'
p2742
S'The KLF'
p2743
sS'You Won t Forget Me'
p2744
S'La Bouche'
p2745
sS'Because Of Love'
p2746
S'Janet Jackson'
p2747
sS'Up Jumps Da Boogie'
p2748
S'Magoo And Timbaland'
p2749
sS'All Around The World'
p2750
S'Lisa Stansfield'
p2751
sS'How I m Comin '
p2752
S'LL Cool J'
p2753
sS'My First Night With You'
p2754
S'Mya'
p2755
sS'I m Still Waiting'
p2756
S'Jodeci'
p2757
sS'Looking Through Your Eyes'
p2758
S'LeAnn Rimes'
p2759
sS'Dedicated'
p2760
S'R. Kelly'
p2761
sS'Ordinary Life'
p2762
S'Chad Brock'
p2763
sS'Angel'
p2764
S'Sarah McLachlan'
p2765
sS'Made Up My Mind'
p2766
S'SaFire'
p2767
sS'Slow And Sexy'
p2768
S'Shabba Ranks (Featuring Johnny Gill)'
p2769
sS'Happy With You'
p2770
S'Samantha Cole'
p2771
sS'Written In The Stars'
p2772
S'Elton John'
p2773
sS'All The Places (I Will Kiss You)'
p2774
S'Aaron Hall'
p2775
sS'Something That We Do'
p2776
S'Clint Black'
p2777
sS'Wannagirl'
p2778
S'Jeremy Jordan'
p2779
sS'Jigga My N****'
p2780
S'Jay-Z'
p2781
sS'Been Around The World'
p2782
S'Puff Daddy'
p2783
sS'The One I Gave My Heart To'
p2784
S'Aaliyah'
p2785
sS'Could This Be Love'
p2786
S'Seduction'
p2787
sS'Walking In Memphis'
p2788
S'Marc Cohn'
p2789
sS'Fired Up!'
p2790
S'Funky Green Dogs'
p2791
sS'Full Of Smoke'
p2792
S'Christion'
p2793
sS"Something's Always Wrong"
p2794
S'Toad The Wet Sprocket'
p2795
sS'Foolin  Around'
p2796
S'Changing Faces'
p2797
sS'Bitter Tears'
p2798
S'INXS'
p2799
sS'Step Into A World (Rapture s Delight)'
p2800
S'KRS-One'
p2801
sS'Come With Me'
p2802
S'Puff Daddy Featuring Jimmy Page'
p2803
sS'We Got A Love Thang'
p2804
S'CeCe Peniston'
p2805
sS'She s Always Right'
p2806
S'Clay Walker'
p2807
sS'Staring At The Sun'
p2808
S'U2'
p2809
sS'Not Gon\' Cry (From "Waiting To Exhale")'
p2810
S'Mary J. Blige'
p2811
sS'We Can t Be Friends'
p2812
S'Deborah Cox With R.L.'
p2813
sS'Let It Go (From "Set It Off")'
p2814
S'Ray J'
p2815
sS'Mother s Pride'
p2816
S'George Michael'
p2817
sS'Without You'
p2818
S'Motley Crue'
p2819
sS'If You Want It'
p2820
S'2nd II None'
p2821
sS'24/7'
p2822
S'Kevon Edmonds'
p2823
sS'One By One'
p2824
S'Cher'
p2825
sS'My Little Secret'
p2826
S'Xscape'
p2827
sS'Not Enough Time'
p2828
S'INXS'
p2829
sS"I've Got A Lot To Learn About Love"
p2830
S'The Storm'
p2831
sS'Romeo And Juliet'
p2832
S'Sylk-E. Fyne Featuring Chill'
p2833
sS'Give It 2 You'
p2834
S'Da Brat'
p2835
sS'What About Us'
p2836
S'Total'
p2837
sS'Until Your Love Comes Back Around'
p2838
S'RTZ'
p2839
sS'Get Involved'
p2840
S'Raphael Saadiq'
p2841
sS'The Globe'
p2842
S'Big Audio'
p2843
sS"Don't Be Stupid (You Know I Love You)"
p2844
S'Shania Twain'
p2845
sS'I Didn t Want To Need You'
p2846
S'Heart'
p2847
sS'Praise You'
p2848
S'Fatboy Slim'
p2849
sS'Getting Away With It'
p2850
S'Electronic'
p2851
sS'This Time Make It Funky'
p2852
S'Tracie Spencer'
p2853
sS'That s Why I m Here'
p2854
S'Kenny Chesney'
p2855
sS'Freak Me Baby'
p2856
S"Dis `N' Dat Feat. 95 South,69 Boyz & K-Nock"
p2857
sS"I'll Stand By You"
p2858
S'Pretenders'
p2859
sS'Baby Luv'
p2860
S'Groove Theory'
p2861
sS'I m Dreamin  (From "New Jack City")'
p2862
S'Christopher Williams'
p2863
sS"It's Good To Be King"
p2864
S'Tom Petty'
p2865
sS'Wherever I May Roam'
p2866
S'Metallica'
p2867
sS'Lost In Your Eyes'
p2868
S'The Jeff Healey Band'
p2869
sS'Lucky One'
p2870
S'Amy Grant'
p2871
sS'Come And Get With Me'
p2872
S'Keith Sweat Featuring Snoop Dogg'
p2873
sS'Here We Come'
p2874
S'Timbaland Featuring Missy "Misdemeanor" Elliott'
p2875
sS'Still Not A Player'
p2876
S'Big Punisher Featuring Joe'
p2877
sS'She s Not Cryin  Anymore'
p2878
S'Billy Ray Cyrus'
p2879
sS'Big Yellow Taxi'
p2880
S'Amy Grant'
p2881
sS'Taking Everything'
p2882
S'Gerald Levert'
p2883
sS'Steal My Sunshine'
p2884
S'Len'
p2885
sS'Second Round K.O.'
p2886
S'Canibus'
p2887
sS'I Adore Mi Amor'
p2888
S'Color Me Badd'
p2889
sS'Give Peace A Chance'
p2890
S'The Peace Choir'
p2891
sS'Ready To Run'
p2892
S'Dixie Chicks'
p2893
sS'Macarena (Bayside Boys Mix)'
p2894
S'Los Del Rio'
p2895
sS'Everyday'
p2896
S'Phil Collins'
p2897
sS'If I Ever Lose My Faith In You'
p2898
S'Sting'
p2899
sS'Strobelite Honey'
p2900
S'Black Sheep'
p2901
sS'What Kind Of Man Would I Be?'
p2902
S'Chicago'
p2903
sS"I'd Lie For You (And That's The Truth)"
p2904
S'Meat Loaf'
p2905
sS'How Do You Like It?'
p2906
S'Keith Sweat'
p2907
sS'How Am I Supposed To Live Without You'
p2908
S'Michael Bolton'
p2909
sS'Get On Up'
p2910
S'Jodeci'
p2911
sS'Reminisce'
p2912
S'Mary J. Blige'
p2913
sS'If We Fall In Love Tonight'
p2914
S'Rod Stewart'
p2915
sS'Brown Sugar'
p2916
S"D'Angelo"
p2917
sS"Keep It Comin'"
p2918
S'Keith Sweat'
p2919
sS'The More You Ignore Me, The Closer I Get'
p2920
S'Morrissey'
p2921
sS'If Your Girl Only Knew'
p2922
S'Aaliyah'
p2923
sS'Let s Get The Mood Right'
p2924
S'Johnny Gill'
p2925
sS'Hearts Don t Think (They Feel)'
p2926
S'Natural Selection'
p2927
sS'Nothin  To Hide'
p2928
S'Poco'
p2929
sS'Take It To Heart'
p2930
S'Michael McDonald'
p2931
sS'Pop Goes The Weasel'
p2932
S'3rd Bass'
p2933
sS'Leave Virginia Alone'
p2934
S'Rod Stewart'
p2935
sS'Don t Go Breaking My Heart'
p2936
S'Elton John'
p2937
sS'Beauty'
p2938
S'Dru Hill'
p2939
sS'Do Anything'
p2940
S'Natural Selection'
p2941
sS'Behind Bars'
p2942
S'Slick Rick'
p2943
sS'Love Song'
p2944
S'Tesla'
p2945
sS'Peace Of Mind (Love Goes On)'
p2946
S'One 2 One'
p2947
sS'Back To The World'
p2948
S'Tevin Campbell'
p2949
sS'The Rest Of Mine'
p2950
S'Trace Adkins'
p2951
sS'Rock And A Hard Place'
p2952
S'The Rolling Stones'
p2953
sS'The Actual'
p2954
S'All City'
p2955
sS"I Don't Want To/I Love Me Some Him"
p2956
S'Toni Braxton'
p2957
sS'Afro Puffs'
p2958
S'The Lady Of Rage'
p2959
sS'What s Love Got To Do With It (From "Supercop")'
p2960
S'Warren G Featuring Adina Howard'
p2961
sS'Flava In Ya Ear'
p2962
S'Craig Mack'
p2963
sS'Why Must We Wait Until Tonight'
p2964
S'Tina Turner'
p2965
sS'French Kiss'
p2966
S'Lil Louis'
p2967
sS"She's A River"
p2968
S'Simple Minds'
p2969
sS'Go The Distance (From "Hercules")'
p2970
S'Michael Bolton'
p2971
sS"Daydreamin'"
p2972
S'Tatyana Ali'
p2973
sS'Never Too Busy'
p2974
S'Kenny Lattimore'
p2975
sS'Dare To Fall In Love'
p2976
S'Brent Bourgeois'
p2977
sS'Fairweather Friend'
p2978
S'Johnny Gill'
p2979
sS'The Hardest Thing'
p2980
S'98 Degrees'
p2981
sS'Divine Thing'
p2982
S'The Soup Dragons'
p2983
sS'Action'
p2984
S'Terror Fabulous Featuring Nadine Sutherland'
p2985
sS'Woo-Hah!! Got You All In Check/Everything Remains Raw'
p2986
S'Busta Rhymes'
p2987
sS'What Do You Say To That'
p2988
S'George Strait'
p2989
sS'Too Gone, Too Long'
p2990
S'En Vogue'
p2991
sS"Get Ready, Here It Comes (It's The Choo-Choo)"
p2992
S'Southsyde B.O.I.Z.'
p2993
sS'Father Of Mine'
p2994
S'Everclear'
p2995
sS'Take A Look'
p2996
S"J'Son"
p2997
sS'Where Have All The Cowboys Gone?'
p2998
S'Paula Cole'
p2999
sS'You Think You Know Her'
p3000
S'Cause'
p3001
sS'What s It Gonna Be'
p3002
S'Jellybean Featuring Niki Haris'
p3003
sS'I Want You Back'
p3004
S"'N Sync"
p3005
sS'Crossover'
p3006
S'EPMD'
p3007
sS'Stand Up (Kick Love Into Motion)'
p3008
S'Def Leppard'
p3009
sS'After The Rain'
p3010
S'Nelson'
p3011
sS'No Myth'
p3012
S'Michael Penn'
p3013
sS'Universal Heart-Beat'
p3014
S'Juliana Hatfield'
p3015
sS'Face The Music'
p3016
S'RTZ'
p3017
sS'La La Love'
p3018
S'Bobby Ross Avila'
p3019
sS'Trippin '
p3020
S'Total Featuring Missy Elliott'
p3021
sS'We Ain t Goin  Out Like That'
p3022
S'Cypress Hill'
p3023
sS'Disappear'
p3024
S'INXS'
p3025
sS'Lesson In Leavin '
p3026
S'Jo Dee Messina'
p3027
sS'Baby I m Yours'
p3028
S'Shai'
p3029
sS'El Trago (The Drink)'
p3030
S'2 In A Room'
p3031
sS'Woof'
p3032
S'Snoop Dogg Featuring Mystikal And Fiend'
p3033
sS'Whatever You Say'
p3034
S'Martina McBride'
p3035
sS'No, No, No'
p3036
S'Destiny s Child'
p3037
sS'Gettin  Jiggy Wit It'
p3038
S'Will Smith'
p3039
sS'Homies'
p3040
S'Lighter Shade Of Brown'
p3041
sS'I Can t Get Over You'
p3042
S'Brooks'
p3043
sS'Pushin  Weight'
p3044
S'Ice Cube Featuring Mr. Short Khop'
p3045
sS'Hold On'
p3046
S'Jamie Walters'
p3047
sS'A Promise I Make'
p3048
S'Dakota Moon'
p3049
sS'It Ain t Over  Til It s Over'
p3050
S'Lenny Kravitz'
p3051
sS"I Don't Mind"
p3052
S'Immature'
p3053
sS'Guys Do It All The Time'
p3054
S'Mindy McCready'
p3055
sS'Ain t 2 Proud 2 Beg'
p3056
S'TLC'
p3057
sS'Love The Way'
p3058
S'EOL'
p3059
sS'Because The Night'
p3060
S'10,000 Maniacs'
p3061
sS'What Time Is Love?'
p3062
S'The KLF'
p3063
sS'If You Go Away'
p3064
S'NKOTB'
p3065
sS'Love s Taken Over'
p3066
S'Chante Moore'
p3067
sS'Let It Snow'
p3068
S'Boyz II Men'
p3069
sS'Another Way'
p3070
S'Tevin Campbell'
p3071
sS'Heart Like A Wheel'
p3072
S'The Human League'
p3073
sS'Only Women Bleed'
p3074
S'Favorite Angel'
p3075
sS'Ain t No Future In Yo  Fronting'
p3076
S'M.C. Breed'
p3077
sS'Everybody Be Somebody'
p3078
S'Ruffneck Featuring Yavahn'
p3079
sS'Your Love Is So Divine'
p3080
S'Miranda'
p3081
sS'Sometimes I Miss You So Much (Dedicated To The Christ Consciousness)'
p3082
S'P.M. Dawn'
p3083
sS'Can U Feel It'
p3084
S'3rd Party'
p3085
sS'I Shot The Sheriff'
p3086
S'Warren G'
p3087
sS'Just A Touch Of Love'
p3088
S'C+C Music Factory Presents Zelma Davis'
p3089
sS'Po Pimp'
p3090
S'Do Or Die (Featuring Twista)'
p3091
sS'I Got Cha Opin'
p3092
S'Black Moon'
p3093
sS"I'm Still In Love With You"
p3094
S'New Edition'
p3095
sS'Take Your Time (Do It Right)'
p3096
S'Max-A-Million'
p3097
sS"Lookin' At Me"
p3098
S'Mase Featuring Puff Daddy'
p3099
sS'I Could Not Ask For More'
p3100
S'Edwin McCain'
p3101
sS'Zunga Zeng'
p3102
S'K7'
p3103
sS'Everybody s Free (To Feel Good)'
p3104
S'Rozalla'
p3105
sS'Where Do We Go From Here'
p3106
S'Deborah Cox'
p3107
sS'Dunkie Butt (Please Please Please)'
p3108
S'12 Gauge'
p3109
sS'So Alone'
p3110
S'Men At Large'
p3111
sS'Best Friend'
p3112
S'Brandy'
p3113
sS'Off The Hook'
p3114
S'Jody Watley'
p3115
sS'Lifestyles Of The Rich And Shameless'
p3116
S'Lost Boyz'
p3117
sS'Without Your Love'
p3118
S'Angelina'
p3119
sS'That s What Little Girls Are Made Of'
p3120
S'Raven-Symone'
p3121
sS"Ain't Gonna Hurt Nobody"
p3122
S"Kid 'N Play"
p3123
sS'Stand Beside Me'
p3124
S'Jo Dee Messina'
p3125
sS'Nightgown'
p3126
S'Candyman'
p3127
sS'Hold My Hand'
p3128
S'Hootie & The Blowfish'
p3129
sS'If'
p3130
S'Janet Jackson'
p3131
sS'Heaven In The Back Seat'
p3132
S'Eddie Money'
p3133
sS'Caribbean Blue'
p3134
S'Enya'
p3135
sS'How Do You Fall In Love'
p3136
S'Alabama'
p3137
sS'Building A Mystery'
p3138
S'Sarah McLachlan'
p3139
sS'Call Me'
p3140
S'Le Click'
p3141
sS'Over And Over'
p3142
S'Timmy T.'
p3143
sS'Who Said I Would'
p3144
S'Phil Collins'
p3145
sS'I Can t Dance'
p3146
S'Genesis'
p3147
sS'Love Me Good'
p3148
S'Michael W. Smith'
p3149
sS"You Don't Have To Hurt No More"
p3150
S'Mint Condition'
p3151
sS'Listen'
p3152
S'Collective Soul'
p3153
sS'Blaze Of Glory (From "Young Guns II")'
p3154
S'Jon Bon Jovi'
p3155
sS'Silent Lucidity'
p3156
S'Queensryche'
p3157
sS'What Mattered Most'
p3158
S'Ty Herndon'
p3159
sS'How Do You Do!'
p3160
S'Roxette'
p3161
sS'Angel Baby'
p3162
S'Angelica'
p3163
sS"I'll Never Stop Loving You"
p3164
S"J'Son"
p3165
sS'Enter Sandman'
p3166
S'Metallica'
p3167
sS'I ve Got A Lot To Learn About Love'
p3168
S'The Storm'
p3169
sS'Peace In Our Time'
p3170
S'Eddie Money'
p3171
sS'Delicate'
p3172
S'Terence Trent D Arby'
p3173
sS'Think Twice'
p3174
S'Celine Dion'
p3175
sS'Hey Now (Girls Just Want To Have Fun)'
p3176
S'Cyndi Lauper'
p3177
sS'Counting Blue Cars'
p3178
S'Dishwalla'
p3179
sS"I'm In Luv"
p3180
S'Joe'
p3181
sS'Change'
p3182
S'Lisa Stansfield'
p3183
sS"What's The Frequency, Kenneth?"
p3184
S'R.E.M.'
p3185
sS'My Kinda Girl'
p3186
S'Babyface'
p3187
sS'Bad Boys (Theme From "Cops")'
p3188
S'Inner Circle'
p3189
sS'Love Like This'
p3190
S'Faith Evans'
p3191
sS'Rhythm Divine'
p3192
S'Enrique Iglesias'
p3193
sS'Money Can t Buy You Love (From "Mo  Money")'
p3194
S'Ralph Tresvant'
p3195
sS'Smokin  Me Out'
p3196
S'Warren G Featuring Ronald Isley'
p3197
sS'U Will Know (From "Jason s Lyric")'
p3198
S'B.M.U. (Black Men United)'
p3199
sS'Tour'
p3200
S'Capleton'
p3201
sS'Can t Truss It'
p3202
S'Public Enemy'
p3203
sS'If I Could Change (From "I\'m Bout It")'
p3204
S"Master P Featuring Steady Mobb'n, Mia X, Mo B. Dick & O'Dell"
p3205
sS'Love Is (From "Beverly Hills, 90210")'
p3206
S'Vanessa Williams/Brian McKnight'
p3207
sS'Lambada'
p3208
S'Kaoma'
p3209
sS'Word To The Badd!!'
p3210
S'Jermaine Jackson'
p3211
sS'How Did I Get By Without You?'
p3212
S'John Waite'
p3213
sS'Say You ll Be There'
p3214
S'Spice Girls'
p3215
sS'Get Lifted'
p3216
S'Keith Murray'
p3217
sS'My Love'
p3218
S'Little Texas'
p3219
sS'Never Ever'
p3220
S'All Saints'
p3221
sS'Last Dayz'
p3222
S'Onyx'
p3223
sS'More And More'
p3224
S'Captain Hollywood Project'
p3225
sS'You re Beginning To Get To Me'
p3226
S'Clay Walker'
p3227
sS'(Do You) Wanna Ride'
p3228
S'Reel Tight'
p3229
sS"Can't Nobody Hold Me Down"
p3230
S'Puff Daddy (Featuring Mase)'
p3231
sS'Just The Way It Is, Baby'
p3232
S'The Rembrandts'
p3233
sS'Doin  The Do'
p3234
S'Betty Boo'
p3235
sS'I Do (Cherish You)'
p3236
S'98 Degrees'
p3237
sS'Only One Road'
p3238
S'Celine Dion'
p3239
sS'Lie To Me/Something For The Pain'
p3240
S'Bon Jovi'
p3241
sS'The Theme (It s Party Time)'
p3242
S'Tracey Lee'
p3243
sS'Why Me Baby?'
p3244
S'Keith Sweat'
p3245
sS'No Fool No More'
p3246
S'En Vogue'
p3247
sS'Within My Heart'
p3248
S'Voyce'
p3249
sS'Slide'
p3250
S'Goo Goo Dolls'
p3251
sS'All The Man That I Need'
p3252
S'Whitney Houston'
p3253
sS'Nick Of Time'
p3254
S'Bonnie Raitt'
p3255
sS'He Didn t Have To Be'
p3256
S'Brad Paisley'
p3257
sS'Big Bad Mamma (From "Def Jam\'s How To Be A Player")'
p3258
S'Foxy Brown Featuring Dru Hill'
p3259
sS'Amazing'
p3260
S'Aerosmith'
p3261
sS'Girlstown'
p3262
S'Super Cat'
p3263
sS'Watch Out Now'
p3264
S'The Beatnuts Featuring Yellaklaw'
p3265
sS'Again Tonight'
p3266
S'John Mellencamp'
p3267
sS'Will You Marry Me?'
p3268
S'Paula Abdul'
p3269
sS'Breakdown'
p3270
S'Fu-Schnickens'
p3271
sS'Slowly'
p3272
S'Stacy Earl'
p3273
sS'Yeah, Yeah, Yeah!'
p3274
S'Voices'
p3275
sS"Ascension (Don't Ever Wonder)"
p3276
S'Maxwell'
p3277
sS'One Honest Heart'
p3278
S'Reba'
p3279
sS'Sacrifice'
p3280
S'Elton John'
p3281
sS'Infatuation'
p3282
S'Jamie Foxx'
p3283
sS'Rubberband Girl'
p3284
S'Kate Bush'
p3285
sS'What A Price To Pay'
p3286
S'Michael Damian'
p3287
sS'Hey Donna'
p3288
S'Rhythm Syndicate'
p3289
sS"It's A Party"
p3290
S'Busta Rhymes Featuring Zhane'
p3291
sS'Remember My Name'
p3292
S'House Of Lords'
p3293
sS'Jazzy Belle'
p3294
S'OutKast'
p3295
sS'When Love & Hate Collide'
p3296
S'Def Leppard'
p3297
sS'Mishale'
p3298
S'Andru Donalds'
p3299
sS'Hypnotize'
p3300
S'The Notorious B.I.G.'
p3301
sS'Having A Party'
p3302
S'Rod Stewart'
p3303
sS'Feels So Good (Show Me Your Love)'
p3304
S'Lina Santiago'
p3305
sS'My Baby Mama'
p3306
S'QT'
p3307
sS'Cold World'
p3308
S'Genius/GZA Featuring Inspektah Deck'
p3309
sS'You Had Me From Hello'
p3310
S'Kenny Chesney'
p3311
sS'I Will Remember You (Live)'
p3312
S'Sarah McLachlan'
p3313
sS'Drive'
p3314
S'R.E.M.'
p3315
sS'Goodbye'
p3316
S'Spice Girls'
p3317
sS'Never Gonna Let You Down'
p3318
S'Surface'
p3319
sS'Bang And Blame'
p3320
S'R.E.M.'
p3321
sS'Wide Open Spaces'
p3322
S'Dixie Chicks'
p3323
sS"That's Just What You Are"
p3324
S'Aimee Mann'
p3325
sS'My Side Of The Bed'
p3326
S'Susanna Hoffs'
p3327
sS'Deadbeat Club'
p3328
S'The B-52 s'
p3329
sS'Cotton Eye Joe'
p3330
S'Rednex'
p3331
sS'This One s For The Children'
p3332
S'New Kids On The Block'
p3333
sS'I ll Get By'
p3334
S'Eddie Money'
p3335
sS'Born To Roll'
p3336
S'Masta Ace Incorporated'
p3337
sS'Paper'
p3338
S'Queen Latifah Featuring Apache'
p3339
sS'All I m Missing Is You'
p3340
S'Glenn Medeiros Featuring Ray Parker, Jr.'
p3341
sS'Do You Remember?'
p3342
S'Phil Collins'
p3343
sS"Sittin' On Top Of The World"
p3344
S'Da Brat'
p3345
sS'Do You Want It Right Now'
p3346
S'Degrees Of Motion'
p3347
sS'Only When I Lose Myself'
p3348
S'Depeche Mode'
p3349
sS"Can't Stop My Heart From Loving You (The Rain Song)"
p3350
S'Aaron Neville'
p3351
sS'I m In The Mood'
p3352
S'CeCe Peniston'
p3353
sS'Feel Me Flow'
p3354
S'Naughty By Nature'
p3355
sS'Doubleback (From "Back To The Future Part III")'
p3356
S'ZZ Top'
p3357
sS'The Things That You Do'
p3358
S'Gina Thompson'
p3359
sS'Gone Crazy'
p3360
S'Alan Jackson'
p3361
sS'Wings Of The Morning'
p3362
S'Capleton'
p3363
sS'Do You Sleep?'
p3364
S'Lisa Loeb & Nine Stories'
p3365
sS'I Can Love You Like That'
p3366
S'All-4-One'
p3367
sS'Can We Talk'
p3368
S'Tevin Campbell'
p3369
sS'Crazy Cool'
p3370
S'Paula Abdul'
p3371
sS'I Come Off'
p3372
S'Young MC'
p3373
sS'Destiny'
p3374
S'Myron'
p3375
sS'The Promise Of A New Day'
p3376
S'Paula Abdul'
p3377
sS'Freak Me'
p3378
S'Silk'
p3379
sS'Precious Love'
p3380
S'Jody Watley'
p3381
sS'It Ain t My Fault 1 '
p3382
S'Silkk The Shocker Featuring Mystikal'
p3383
sS'Jealous Again'
p3384
S'The Black Crowes'
p3385
sS"Don't Let The Sun Go Down On Me"
p3386
S'George Michael/Elton John'
p3387
sS'Believe'
p3388
S'Cher'
p3389
sS'The Note'
p3390
S'Daryle Singletary'
p3391
sS"Gotta Be...Movin' On Up"
p3392
S'PRINCE BE & KY-MANI'
p3393
sS'We Can Get Down'
p3394
S'Myron'
p3395
sS'Call Me (From "Booty Call")'
p3396
S"Too Short & Lil' Kim"
p3397
sS'Missunderstanding'
p3398
S'Al B. Sure!'
p3399
sS'What You Want'
p3400
S'Mase Featuring Total'
p3401
sS'Angeline Is Coming Home'
p3402
S'The Badlees'
p3403
sS'I m In Luv'
p3404
S'Joe'
p3405
sS'If I Ruled The World'
p3406
S'Nas'
p3407
sS'No One But You (From "Baps")'
p3408
S'Veronica (Featuring Craig Mack)'
p3409
sS'Tell Me'
p3410
S'Groove Theory'
p3411
sS'Cowboy'
p3412
S'Kid Rock'
p3413
sS'I Don t Wanna Fight (From "What s Love Got To Do With It")'
p3414
S'Tina Turner'
p3415
sS'Hoop In Yo Face (From "Sunset Park")'
p3416
S"69 Boyz Featuring Quad City DJ's"
p3417
sS'Hot Spot'
p3418
S'Foxy Brown'
p3419
sS'Friday I m In Love'
p3420
S'The Cure'
p3421
sS'What Might Have Been'
p3422
S'Little Texas'
p3423
sS'I d Die Without You (From "Boomerang")'
p3424
S'P.M. Dawn'
p3425
sS'No Matter What'
p3426
S'George LaMond (Duet With Brenda K. Starr)'
p3427
sS'Can t Help Falling In Love (From "Sliver")'
p3428
S'UB40'
p3429
sS'Heavy'
p3430
S'Collective Soul'
p3431
sS'Hearts In Trouble (From "Days Of Thunder")'
p3432
S'Chicago'
p3433
sS"Ridin' Low"
p3434
S'L.A.D.'
p3435
sS'I Got A Man'
p3436
S'Positive K'
p3437
sS"Me And Those Dreamin' Eyes Of Mine"
p3438
S"D'Angelo"
p3439
sS'I ll Be Loving You'
p3440
S'Collage'
p3441
sS'So In Love With You'
p3442
S'U.N.V.'
p3443
sS'Fu-Gee-La'
p3444
S'Fugees'
p3445
sS'Love Is'
p3446
S'Alannah Myles'
p3447
sS'Still Waters (Run Deep)'
p3448
S'Bee Gees'
p3449
sS'Right Beside You'
p3450
S'Sophie B. Hawkins'
p3451
sS'Any Man Of Mine/Whose Bed Have Your Boots Been Under?'
p3452
S'Shania Twain'
p3453
sS'Special'
p3454
S'Garbage'
p3455
sS'What U See Is What U Get'
p3456
S'Xzibit'
p3457
sS'Time'
p3458
S'Hootie & The Blowfish'
p3459
sS'The Heart Of The Matter'
p3460
S'Don Henley'
p3461
sS'Uncle Tom s Cabin'
p3462
S'Warrant'
p3463
sS'Rockin  Over The Beat'
p3464
S'Technotronic'
p3465
sS'Let s Ride'
p3466
S'Montell Jordan Feat. Master P'
p3467
sS'I Love You Period'
p3468
S'Dan Baird'
p3469
sS'Nothin\' But The Cavi Hit (From "Rhyme & Reason")'
p3470
S'Mack 10 & Tha Dogg Pound'
p3471
sS'Moonlight On Water'
p3472
S'Laura Branigan'
p3473
sS'Even Better Than The Real Thing'
p3474
S'U2'
p3475
sS'Save The Best For Last'
p3476
S'Vanessa Williams'
p3477
sS'Murder She Wrote'
p3478
S'Chaka Demus'
p3479
sS'From A Distance'
p3480
S'Bette Midler'
p3481
sS'Wicked'
p3482
S'Ice Cube'
p3483
sS'Too Many Walls'
p3484
S'Cathy Dennis'
p3485
sS'Don t Cry'
p3486
S'Guns N  Roses'
p3487
sS'Give You What You Want (Fa Sure)'
p3488
S'Chico DeBarge'
p3489
sS'Ain t Seen Love Like That'
p3490
S'Mr. Big'
p3491
sS'Reach'
p3492
S'Gloria Estefan'
p3493
sS"Runnin'"
p3494
S'2Pac, Notorious B.I.G., Radio, Dramacydal & Stretch'
p3495
sS'Double Good Everything'
p3496
S'Smokey Robinson'
p3497
sS'When Love Cries'
p3498
S'Donna Summer'
p3499
sS'Send Me On My Way'
p3500
S'Rusted Root'
p3501
sS'B-Please'
p3502
S'Snoop Dogg Featuring Xzibit'
p3503
sS'Lady'
p3504
S'Mista'
p3505
sS'It s All About Me'
p3506
S'Mya'
p3507
sS'Bitch'
p3508
S'Meredith Brooks'
p3509
sS'My Heart Will Go On'
p3510
S'Celine Dion'
p3511
sS'Take It To The Streets'
p3512
S'Rampage Featuring Billy Lawrence'
p3513
sS'Sweet Honesty'
p3514
S'M:G'
p3515
sS'Always The Last To Know'
p3516
S'Del Amitri'
p3517
sS'Nobody Wins In This War'
p3518
S'Mitch Malloy'
p3519
sS'My Name Is Prince'
p3520
S'Prince And The New Power Generation'
p3521
sS'Rock Wit cha'
p3522
S'Bobby Brown'
p3523
sS"Gettin' Jiggy Wit It"
p3524
S'Will Smith'
p3525
sS'Hope Of Deliverance'
p3526
S'Paul McCartney'
p3527
sS'Knock-N-Boots'
p3528
S'Wreckx-N-Effect'
p3529
sS'Housecall'
p3530
S'Shabba Ranks/Maxi Priest'
p3531
sS'Fa All Y all'
p3532
S'Da Brat'
p3533
sS'Knocks Me Off My Feet'
p3534
S'Donell Jones'
p3535
sS'Angel In Disguise'
p3536
S'Brandy'
p3537
sS'Regular Thang'
p3538
S'Ovis'
p3539
sS'Jeremy/Yellow Ledbetter'
p3540
S'Pearl Jam'
p3541
sS'Getto Jam'
p3542
S'Domino'
p3543
sS'Guerrilla Radio'
p3544
S'Rage Against The Machine'
p3545
sS'Hooch'
p3546
S'Everything'
p3547
sS"If You Think I'm Jiggy"
p3548
S'The Lox'
p3549
sS'The Rush'
p3550
S'Luther Vandross'
p3551
sS'Can You Feel The Love Tonight (From "The Lion King")'
p3552
S'Elton John'
p3553
sS'Make It Happen'
p3554
S'Mariah Carey'
p3555
sS'Give It To Me Good'
p3556
S'Trixter'
p3557
sS'On The Down Low'
p3558
S'Brian McKnight'
p3559
sS'Alone With You'
p3560
S'Tevin Campbell'
p3561
sS'Ruffneck'
p3562
S'MC Lyte'
p3563
sS'Runaway'
p3564
S'Janet Jackson'
p3565
sS'Can t Nobody Hold Me Down'
p3566
S'Puff Daddy (Featuring Mase)'
p3567
sS'Yesterdays'
p3568
S'Guns N  Roses'
p3569
sS'It s So Hard To Say Goodbye To Yesterday'
p3570
S'Boyz II Men'
p3571
sS'Tom s Diner'
p3572
S'DNA Featuring Suzanne Vega'
p3573
sS'Passin  Me By'
p3574
S'The Pharcyde'
p3575
sS'I m Never Gonna Give You Up'
p3576
S'The Brat Pack'
p3577
sS'Let s Try It Again'
p3578
S'New Kids On The Block'
p3579
sS'That s The Way Love Is'
p3580
S'Bobby Brown'
p3581
sS'Get Away'
p3582
S'Bobby Brown'
p3583
sS'All About You'
p3584
S'Pretty In Pink'
p3585
sS'Santa Claus Boogie'
p3586
S'The Tractors'
p3587
sS'Commitment Of The Heart'
p3588
S'Clive Griffin'
p3589
sS'N 2 Gether Now'
p3590
S'Limp Bizkit Featuring Method Man'
p3591
sS"They Don't Care About Us"
p3592
S'Michael Jackson'
p3593
sS'Baby s Coming Back'
p3594
S'Jellyfish'
p3595
sS'When I Said I Do'
p3596
S'Clint Black'
p3597
sS'Woof Woof'
p3598
S'69 Boyz'
p3599
sS'Rosa Parks'
p3600
S'OutKast'
p3601
sS'Hooked On A Feeling (Ooga-Chaka)'
p3602
S'Baby Talk'
p3603
sS'Hanginaround'
p3604
S'Counting Crows'
p3605
sS'Desperately Wanting'
p3606
S'Better Than Ezra'
p3607
sS'Follow You Down/Til I Hear It From You'
p3608
S'Gin Blossoms'
p3609
sS'Funky Child'
p3610
S'Lords Of The Underground'
p3611
sS'Sitting Home'
p3612
S'Total'
p3613
sS'What About Your Friends'
p3614
S'TLC'
p3615
sS'Blue On Black'
p3616
S'Kenny Wayne Shepherd Band'
p3617
sS'Drink, Swear, Steal & Lie'
p3618
S'Michael Peterson'
p3619
sS'Losing You'
p3620
S'Mocca Soul'
p3621
sS'4, 3, 2, 1'
p3622
S'LL Cool J Featuring Method Man, Redman, DMX, Canibus And Master P'
p3623
sS'The Song Remembers When'
p3624
S'Trisha Yearwood'
p3625
sS'We re Not Making Love No More'
p3626
S'Dru Hill'
p3627
sS'A Better Love'
p3628
S'Londonbeat'
p3629
sS"Let's Get The Mood Right"
p3630
S'Johnny Gill'
p3631
sS'Sweetest Thing'
p3632
S'U2'
p3633
sS'Together Forever'
p3634
S'Lisette Melendez'
p3635
sS'You re All That Matters To Me'
p3636
S'Curtis Stigers'
p3637
sS"Love Don't Live Here Anymore"
p3638
S'Madonna'
p3639
sS'Follow My Heartbeat'
p3640
S'A me Lorain'
p3641
sS"I'll Be There For You/This House Is Not A Home"
p3642
S'The Rembrandts'
p3643
sS'You Learn/You Oughta Know'
p3644
S'Alanis Morissette'
p3645
sS'Higher Ground'
p3646
S'UB40'
p3647
sS'Amish Paradise'
p3648
S'Weird Al Yankovic'
p3649
sS'My Love Is The Shhh!'
p3650
S"Somethin' For The People Featuring Trina & Tamara"
p3651
sS'I ll Never Let You Go'
p3652
S'Steelheart'
p3653
sS'The Animal Song'
p3654
S'Savage Garden'
p3655
sS'Gangsta Bitch'
p3656
S'Apache'
p3657
sS'Too Much Passion'
p3658
S'The Smithereens'
p3659
sS'Semi-Charmed Life'
p3660
S'Third Eye Blind'
p3661
sS'Never Should\'ve Let You Go (From "Sister Act 2")'
p3662
S'Hi-Five'
p3663
sS'Wherever Would I Be'
p3664
S'Cheap Trick'
p3665
sS"Why I Love You So Much/Ain't Nobody"
p3666
S'Monica'
p3667
sS'Out Of My Bones'
p3668
S'Randy Travis'
p3669
sS'Broken Arrow'
p3670
S'Rod Stewart'
p3671
sS'That s How It Is (It s Like That)'
p3672
S'Redman Featuring K-Solo'
p3673
sS"Ain't No Playa"
p3674
S"Rappin' 4-Tay"
p3675
sS'Ex-Factor'
p3676
S'Lauryn Hill'
p3677
sS'Love And Emotion'
p3678
S'Stevie B'
p3679
sS'Break It Down Again'
p3680
S'Tears For Fears'
p3681
sS'Only You'
p3682
S'Tami Davis'
p3683
sS'Ain t Nobody (From "Beavis And Butt-Head Do America")'
p3684
S'LL Cool J'
p3685
sS'Someone To Love'
p3686
S'Jon B. Featuring Babyface'
p3687
sS'Black Cat'
p3688
S'Janet Jackson'
p3689
sS'Easy'
p3690
S'Faith No More'
p3691
sS'My Baby Daddy'
p3692
S'B-Rock & The Bizz'
p3693
sS'Get A Leg Up'
p3694
S'John Mellencamp'
p3695
sS'Died In Your Arms'
p3696
S'Intonation Featuring Joee'
p3697
sS'My Sharona (From "Reality Bites")'
p3698
S'The Knack'
p3699
sS'Few And Far Between'
p3700
S'10,000 Maniacs'
p3701
sS'Don t Let This Moment End'
p3702
S'Gloria Estefan'
p3703
sS'Liquid Swords'
p3704
S'Genius/GZA'
p3705
sS'Foreplay'
p3706
S'RAab'
p3707
sS'The Power Of Love'
p3708
S'Celine Dion'
p3709
sS'I Missed The Bus'
p3710
S'Kris Kross'
p3711
sS'Higher Than Hope'
p3712
S'Daryl Braithwaite'
p3713
sS'A Bitter End'
p3714
S'Deryl Dodd'
p3715
sS'Gimme Your Good Lovin '
p3716
S'Diving For Pearls'
p3717
sS'Can We (From "Booty Call")'
p3718
S'SWV'
p3719
sS'Walking In My Shoes'
p3720
S'Depeche Mode'
p3721
sS'Far From Yours'
p3722
S'O.C. Featuring Yvette Michele'
p3723
sS'Rush'
p3724
S'Big Audio'
p3725
sS'Deep Inside'
p3726
S'Mary J. Blige'
p3727
sS'I ll Be Good To You'
p3728
S'Quincy Jones Featuring Ray Charles'
p3729
sS'How s It Going To Be'
p3730
S'Third Eye Blind'
p3731
sS'Easy Come Easy Go'
p3732
S'Winger'
p3733
sS'Swing My Way'
p3734
S'K.P.'
p3735
sS'Gangsta Lean'
p3736
S'DRS'
p3737
sS'Everytime I Cry'
p3738
S'Terri Clark'
p3739
sS'Blue (Da Ba Dee)'
p3740
S'Eiffel 65'
p3741
sS'Alright'
p3742
S'Jamiroquai'
p3743
sS'Where Do U Want Me To Put It'
p3744
S'Solo'
p3745
sS'I Swear'
p3746
S'All-4-One'
p3747
sS"Kissin' You"
p3748
S'Total'
p3749
sS'Paper Doll'
p3750
S'P.M. Dawn'
p3751
sS'When The Night Comes'
p3752
S'Joe Cocker'
p3753
sS'Boom Boom Boom'
p3754
S'The Outhere Brothers'
p3755
sS'Back For Good'
p3756
S'Take That'
p3757
sS'Here Comes The Hotstepper (From "Ready To Wear")'
p3758
S'Ini Kamoze'
p3759
sS'Weekend Love'
p3760
S'Queen Latifah'
p3761
sS'The Rhythm Of The Night'
p3762
S'Corona'
p3763
sS'Save Up All Your Tears'
p3764
S'Cher'
p3765
sS'Keep On Walkin '
p3766
S'CeCe Peniston'
p3767
sS'Not Enough'
p3768
S'Van Halen'
p3769
sS'Come Again'
p3770
S'Damn Yankees'
p3771
sS'(God Must Have Spent) A Little More Time On You'
p3772
S'N Sync'
p3773
sS'Insatiable'
p3774
S'Prince And The N.P.G.'
p3775
sS'Drink, Swear, Steal '
p3776
S'Michael Peterson'
p3777
sS'Going Through The Motions'
p3778
S'Aftershock'
p3779
sS'One More Day'
p3780
S'New Edition'
p3781
sS'Short Dick Man'
p3782
S'20 Fingers Featuring Gillette'
p3783
sS'Soul Inspiration'
p3784
S'Anita Baker'
p3785
sS'Me So Horny'
p3786
S'The 2 Live Crew'
p3787
sS'I ll Sleep When I m Dead'
p3788
S'Bon Jovi'
p3789
sS'What s Up'
p3790
S'DJ Miko'
p3791
sS'Tears'
p3792
S'The Isley Brothers'
p3793
sS'Everything s Gonna Be Alright'
p3794
S'Sweetbox'
p3795
sS'You Put A Move On My Heart'
p3796
S'Quincy Jones Introducing Tamia'
p3797
sS'You Get What You Give'
p3798
S'New Radicals'
p3799
sS'Just For Tonight'
p3800
S'Vanessa Williams'
p3801
sS'Big Daddy'
p3802
S'Heavy D'
p3803
sS'Sho Nuff'
p3804
S'Tela Featuring Eightball & MJG'
p3805
sS'Then Came You'
p3806
S'T.P.E.'
p3807
sS'Everything Changes'
p3808
S'Kathy Troccoli'
p3809
sS"Ain't That Just The Way"
p3810
S'Lutricia McNeal'
p3811
sS'I ll Take You There (From "Threesome")'
p3812
S'General Public'
p3813
sS'Re-arranged'
p3814
S'Limp Bizkit'
p3815
sS'Time After Time'
p3816
S'Inoj'
p3817
sS'Breakadawn'
p3818
S'De La Soul'
p3819
sS'The 13th'
p3820
S'The Cure'
p3821
sS'When You Say Nothing At All'
p3822
S'Alison Krauss & Union Station'
p3823
sS'Backyard'
p3824
S'Pebbles (With Salt-N-Pepa)'
p3825
sS'Won t Talk About It'
p3826
S'Beats International'
p3827
sS'Alibis'
p3828
S'Tracy Lawrence'
p3829
sS'Whatta Man'
p3830
S'Salt-N-Pepa Featuring En Vogue'
p3831
sS'Walking On Broken Glass'
p3832
S'Annie Lennox'
p3833
sS"He's Mine"
p3834
S'MoKenStef'
p3835
sS'(Now You See Me) Now You Don t'
p3836
S'Lee Ann Womack'
p3837
sS'All For You'
p3838
S'Sister Hazel'
p3839
sS'If You Leave Me Now'
p3840
S'Jaya'
p3841
sS'Electrolite'
p3842
S'R.E.M.'
p3843
sS'Save Me'
p3844
S'Lisa Fischer'
p3845
sS'B.B.D. (I Thought It Was Me)?'
p3846
S'Bell Biv Devoe'
p3847
sS"MC's Act Like They Don't Know"
p3848
S'KRS-One'
p3849
sS'Smile'
p3850
S'Lonestar'
p3851
sS'Time, Love And Tenderness'
p3852
S'Michael Bolton'
p3853
sS'Looking Through Patient Eyes'
p3854
S'P.M. Dawn'
p3855
sS'Biscuit s In The House'
p3856
S'Biscuit'
p3857
sS'Thirty-Three'
p3858
S'The Smashing Pumpkins'
p3859
sS'Only Wanna Be With You'
p3860
S'Hootie & The Blowfish'
p3861
sS'I Always Feel Like (Somebody s Watching Me)'
p3862
S'Tru Featuring Ice Cream Man (Master P)'
p3863
sS'Got To Tell Me Something'
p3864
S'Ana'
p3865
sS'I m So Into You'
p3866
S'SWV'
p3867
sS'Leave A Light On'
p3868
S'Belinda Carlisle'
p3869
sS"He Can't Love U"
p3870
S'Jagged Edge'
p3871
sS'You Got It (From "Boys On The Side")'
p3872
S'Bonnie Raitt'
p3873
sS'Things Just Ain t The Same'
p3874
S'Deborah Cox'
p3875
sS'Love Me For Life'
p3876
S'Stevie B'
p3877
sS'Second Chance'
p3878
S'Tyler Collins'
p3879
sS'Tonight'
p3880
S'Def Leppard'
p3881
sS'Then What?'
p3882
S'Clay Walker'
p3883
sS"Don't Cry"
p3884
S'Seal'
p3885
sS"Shake A Lil' Somethin'..."
p3886
S'The 2 Live Crew'
p3887
sS'Sexual (Li Da Di)'
p3888
S'Amber'
p3889
sS'The Choice Is Yours'
p3890
S'Black Sheep'
p3891
sS'Right Here, Right Now'
p3892
S'Jesus Jones'
p3893
sS'Electric Relaxation (Relax Yourself Girl)'
p3894
S'A Tribe Called Quest'
p3895
sS"Can't Truss It"
p3896
S'Public Enemy'
p3897
sS'All Shook Up (From "Honeymoon In Vegas")'
p3898
S'Billy Joel'
p3899
sS'The Sound Of Your Voice'
p3900
S'38 Special'
p3901
sS'Your Secret Love'
p3902
S'Luther Vandross'
p3903
sS'Word Of Mouth'
p3904
S'Mike'
p3905
sS'La Raza'
p3906
S'Kid Frost'
p3907
sS'Just The Way You Like It'
p3908
S'Tasha Holiday'
p3909
sS'I Can Go Deep (From "A Low Down Dirty Shame")'
p3910
S'Silk'
p3911
sS"I'll Be Loving You"
p3912
S'Collage'
p3913
sS'Bow Down'
p3914
S'Westside Connection'
p3915
sS'Harmless'
p3916
S'Mulberry Lane'
p3917
sS'Ask Of You (From "Higher Learning")'
p3918
S'Raphael Saadiq'
p3919
sS'Pimp Of The Year'
p3920
S'Dru Down'
p3921
sS'This Used To Be My Playground'
p3922
S'Madonna'
p3923
sS'Innocent'
p3924
S'The Whispers'
p3925
sS'Touch It'
p3926
S'Monifah'
p3927
sS'Advice For The Young At Heart'
p3928
S'Tears For Fears'
p3929
sS'Everybody Move'
p3930
S'Cathy Dennis'
p3931
sS'What Goes Around Comes Around'
p3932
S'Giggles'
p3933
sS'So Long (Well, Well, Well)'
p3934
S'Phajja'
p3935
sS'SuperThug (What What)'
p3936
S'Noreaga'
p3937
sS'One Of These Days'
p3938
S'Tim McGraw'
p3939
sS'It s Alright'
p3940
S'Memphis Bleek ('
p3941
sS'We Like To Party!'
p3942
S'Vengaboys'
p3943
sS'Candy Everybody Wants'
p3944
S'10,000 Maniacs'
p3945
sS'Mama Said Knock You Out'
p3946
S'LL Cool J'
p3947
sS'Hey Jealousy'
p3948
S'Gin Blossoms'
p3949
sS'Wiggle It'
p3950
S'2 In A Room'
p3951
sS'All Lips N  Hips'
p3952
S'Electric Boys'
p3953
sS'Fix'
p3954
S"BLACKstreet With Special Guests Ol' Dirty Bastard & Slash"
p3955
sS'Yolanda'
p3956
S'Reality'
p3957
sS'Erotica'
p3958
S'Madonna'
p3959
sS'My Heart Belongs To You'
p3960
S'Russ Irwin'
p3961
sS"How Do I Say I'm Sorry"
p3962
S'Tami Davis'
p3963
sS'Dreams'
p3964
S'The Cranberries'
p3965
sS'Same Old Look'
p3966
S'Jimmy Ryser'
p3967
sS'Come To My Window'
p3968
S'Melissa Etheridge'
p3969
sS'It s Your Body'
p3970
S'Johnny Gill Featuring Roger Troutman'
p3971
sS'Waiting For Love'
p3972
S'Alias'
p3973
sS'Magic Carpet Ride'
p3974
S'The Mighty Dub Katz'
p3975
sS'Hold On My Heart'
p3976
S'Genesis'
p3977
sS'I Say A Little Prayer'
p3978
S'Diana King'
p3979
sS'I ll Never Break Your Heart'
p3980
S'Backstreet Boys'
p3981
sS"I Don't Want To Wait"
p3982
S'Paula Cole'
p3983
sS'Candy'
p3984
S'Mandy Moore'
p3985
sS'Dur Dur D etre BeBe! (It s Tough To Be A Baby)'
p3986
S'Jordy'
p3987
sS'Give It Up'
p3988
S'Public Enemy'
p3989
sS'Don t Say Goodbye Girl'
p3990
S'Tevin Campbell'
p3991
sS"Real Muthaphuckkin G's"
p3992
S'Eazy-E'
p3993
sS'Love U More'
p3994
S'Sunscreem'
p3995
sS'Can t Help Myself'
p3996
S'Gerald Levert'
p3997
sS'Baby, It s Tonight'
p3998
S'Jude Cole'
p3999
sS'Rump Shaker'
p4000
S'Wreckx-N-Effect'
p4001
sS'All Or Nothing'
p4002
S'Milli Vanilli'
p4003
sS"She's So High"
p4004
S'Tal Bachman'
p4005
sS'East Side Rendezvous'
p4006
S'Frost'
p4007
sS'Signs'
p4008
S'Tesla'
p4009
sS'Losing My Religion'
p4010
S'R.E.M.'
p4011
sS"DJ Keep Playin' (Get Your Music On)"
p4012
S'Yvette Michele'
p4013
sS'Nobody Knows'
p4014
S'The Tony Rich Project'
p4015
sS'The First Time'
p4016
S'Surface'
p4017
sS'Nann'
p4018
S'Trick Daddy Featuring Trina'
p4019
sS'We Will Rock You'
p4020
S'Warrant'
p4021
sS'Fall In Love Again'
p4022
S'Eddie Money'
p4023
sS'Music Sounds Better With You'
p4024
S'Stardust'
p4025
sS'Hide Your Heart'
p4026
S'Kiss'
p4027
sS'Dream Boy/Dream Girl'
p4028
S'Cynthia'
p4029
sS'Almost Doesn t Count'
p4030
S'Brandy'
p4031
sS'Nothing Compares 2 U'
p4032
S'Sinead O Connor'
p4033
sS'Never Gonna Let You Go'
p4034
S'Faith Evans'
p4035
sS'Impulsive'
p4036
S'Wilson Phillips'
p4037
sS'It s Up To You'
p4038
S'The Tuesdays'
p4039
sS'Up All Night'
p4040
S'Slaughter'
p4041
sS'It s Your Thing'
p4042
S'Mercedes Featuring Master P'
p4043
sS'Who Do U Love'
p4044
S'Deborah Cox'
p4045
sS'My Boo'
p4046
S'Ghost Town DJ s'
p4047
sS'Backwater'
p4048
S'Meat Puppets'
p4049
sS'Hold Me'
p4050
S'Brian McKnight Featuring Tone'
p4051
sS'Mad Izm'
p4052
S'Channel Live'
p4053
sS'Don t Treat Me Bad'
p4054
S'Firehouse'
p4055
sS'The Right Kind Of Love (From "Beverly Hills, 90210")'
p4056
S'Jeremy Jordan'
p4057
sS'Strawberries'
p4058
S'Smooth'
p4059
sS'Heartbreaker'
p4060
S'Mariah Carey Featuring Jay-Z'
p4061
sS'I Love Music (From "Carlito s Way")'
p4062
S'Rozalla'
p4063
sS'With You'
p4064
S'Lila McCann'
p4065
sS'All The Small Things'
p4066
S'Blink-182'
p4067
sS'Something Good'
p4068
S'Utah Saints'
p4069
sS'Every Road Leads Back To You'
p4070
S'Bette Midler'
p4071
sS'Every Little Thing U Do'
p4072
S'Christopher Williams'
p4073
sS'Who Can I Run To'
p4074
S'Xscape'
p4075
sS'I Don t Want To Miss A Thing'
p4076
S'Mark Chesnutt'
p4077
sS"Don't Stop Movin'"
p4078
S"Livin' Joy"
p4079
sS'For The Cool In You'
p4080
S'Babyface'
p4081
sS'Shame (From "A Low Down Dirty Shame")'
p4082
S'Zhane'
p4083
sS'Cold Shower'
p4084
S'Erin Cruise'
p4085
sS'Love. . .Thy Will Be Done'
p4086
S'Martika'
p4087
sS"93 'Til Infinity"
p4088
S'Souls Of Mischief'
p4089
sS'Request Line'
p4090
S'Zhane'
p4091
sS'You Were Mine'
p4092
S'Dixie Chicks'
p4093
sS'I Will Get There'
p4094
S'Boyz II Men'
p4095
sS'Pleasure'
p4096
S'The Soup Dragons'
p4097
sS'Landslide'
p4098
S'Fleetwood Mac'
p4099
sS'Butt Naked'
p4100
S'Charm'
p4101
sS'Celebrity Skin'
p4102
S'Hole'
p4103
sS'Ghetto Cowboy'
p4104
S'Mo Thugs Family Featuring Bone Thugs-N-Harmony'
p4105
sS'And Our Feelings'
p4106
S'Babyface'
p4107
sS'The Truth'
p4108
S'Tami Show'
p4109
sS'Go For It! (Heart And Fire)'
p4110
S'Joey B. Ellis'
p4111
sS'Wide River'
p4112
S'Steve Miller Band'
p4113
sS'Indian Outlaw'
p4114
S'Tim McGraw'
p4115
sS'Keep Coming Back'
p4116
S'Richard Marx'
p4117
sS'I Want You'
p4118
S'Savage Garden'
p4119
sS'Dream Lover'
p4120
S'The Rebel Pebbles'
p4121
sS'Bring It On'
p4122
S'Keith Washington'
p4123
sS'Get Your Groove On (From "Baps")'
p4124
S'Gyrl'
p4125
sS'Butterfly Kisses'
p4126
S'Raybon Bros.'
p4127
sS'Leavin '
p4128
S'The Tony Rich Project'
p4129
sS'Faces Of Love'
p4130
S'Nia Peeples'
p4131
sS'No More Rain (In This Cloud)'
p4132
S'Angie Stone'
p4133
sS"Never Alone (Eeyore's Lullaby)"
p4134
S'Tyler Collins'
p4135
sS'Rub You The Right Way'
p4136
S'Johnny Gill'
p4137
sS'Keeper Of The Flame'
p4138
S'Martin Page'
p4139
sS"Leavin'"
p4140
S'The Tony Rich Project'
p4141
sS'Forever In Love'
p4142
S'Kenny G'
p4143
sS'Symphony Of Destruction'
p4144
S'Megadeth'
p4145
sS'Heart'
p4146
S'Neneh Cherry'
p4147
sS'East 1999'
p4148
S'Bone Thugs-N-Harmony'
p4149
sS'Dr. Greenthumb'
p4150
S'Cypress Hill'
p4151
sS'Criminal'
p4152
S'Fiona Apple'
p4153
sS'Temple Of Love'
p4154
S'Harriet'
p4155
sS'Summertime In The LBC (From "The Show")'
p4156
S'The Dove Shack'
p4157
sS'I Feel You'
p4158
S'Depeche Mode'
p4159
sS'Girl U For Me/Lose Control'
p4160
S'Silk'
p4161
sS'See The Lights'
p4162
S'Simple Minds'
p4163
sS'Come Back'
p4164
S'Londonbeat'
p4165
sS'Honey Love'
p4166
S'R. Kelly'
p4167
sS'Bohemian Rhapsody'
p4168
S'Queen'
p4169
sS'Shake Your Bon-Bon'
p4170
S'Ricky Martin'
p4171
sS'Esa Nena Linda'
p4172
S'Artie The 1 Man Party'
p4173
sS'Miracle (From "Young Guns II")'
p4174
S'Jon Bon Jovi'
p4175
sS'Hole In My Soul'
p4176
S'Aerosmith'
p4177
sS'Ain t That Just The Way'
p4178
S'Lutricia McNeal'
p4179
sS'7'
S'Prince And The New Power Generation'
p4180
sS'Stop Being Greedy'
p4181
S'DMX'
p4182
sS"Baby I'm Yours"
p4183
S'Shai'
p4184
sS'Shamrocks And Shenanigans (Boom Shalock Lock Boom)'
p4185
S'House Of Pain'
p4186
sS'Diary Of A Madman'
p4187
S'Gravediggaz'
p4188
sS'Who Is It'
p4189
S'Michael Jackson'
p4190
sS"Can't Cry Anymore"
p4191
S'Sheryl Crow'
p4192
sS'Freak Out'
p4193
S'Nutta Butta Featuring Teddy Riley And Anonymous'
p4194
sS'If I Could Change (From "I m Bout It")'
p4195
S'Master P Featuring Steady Mobb n, Mia X, Mo B. Dick'
p4196
sS'High And Dry'
p4197
S'Radiohead'
p4198
sS'Anytime'
p4199
S'McAuley Schenker Group'
p4200
sS'Sad But True'
p4201
S'Metallica'
p4202
sS'Why Don t You Get A Job?'
p4203
S'The Offspring'
p4204
sS'Cryin '
p4205
S'Aerosmith'
p4206
sS'Am I Dreaming'
p4207
S'Ol Skool [Featuring Keith Sweat'
p4208
sS'Sittin  In The Lap Of Luxury'
p4209
S'Louie Louie'
p4210
sS"Cryin'"
p4211
S'Aerosmith'
p4212
sS'One More Time'
p4213
S'Real McCoy'
p4214
sS"Just Kickin' It"
p4215
S'Xscape'
p4216
sS'Rebirth Of Slick (Cool Like Dat)'
p4217
S'Digable Planets'
p4218
sS'Ring My Bell'
p4219
S'D.J. Jazzy Jeff'
p4220
sS'We Didn t Start The Fire'
p4221
S'Billy Joel'
p4222
sS'Hold Me, Thrill Me, Kiss Me, Kill Me (From "Batman Forever")'
p4223
S'U2'
p4224
sS'Mo Money Mo Problems'
p4225
S'The Notorious B.I.G. Featuring Puff Daddy & Mase'
p4226
sS'This Old Heart Of Mine'
p4227
S'Rod Stewart With Ronald Isley'
p4228
sS'Shoop Shoop (Never Stop Givin  You Love)'
p4229
S'Michael Cooper'
p4230
sS'Gonna Love You Right (From "Sugar Hill")'
p4231
S'After 7'
p4232
sS'(I Could Only) Whisper Your Name'
p4233
S'Harry Connick, Jr.'
p4234
sS'15 Minutes'
p4235
S'Marc Nelson'
p4236
sS'(Lay Your Head On My) Pillow'
p4237
S'Tony Toni Tone'
p4238
sS'I m Your Baby Tonight'
p4239
S'Whitney Houston'
p4240
sS'Deeper And Deeper'
p4241
S'Madonna'
p4242
sS'Do You Believe In Us'
p4243
S'Jon Secada'
p4244
sS'Anywhere'
p4245
S'112 Featuring Lil z'
p4246
sS'Good Stuff'
p4247
S'The B-52 s'
p4248
sS'Ooh Child'
p4249
S'Dino'
p4250
sS'Take Me There'
p4251
S'BLACKstreet'
p4252
sS'Relax & Party'
p4253
S'Ivory'
p4254
sS'If I Say'
p4255
S'Kingofthehill'
p4256
sS'Temptation'
p4257
S'Corina'
p4258
sS'I Remember'
p4259
S'Boyz II Men'
p4260
sS'You Know How We Do It'
p4261
S'Ice Cube'
p4262
sS'So Good'
p4263
S'Davina'
p4264
sS'What Becomes Of The Brokenhearted'
p4265
S'Paul Young'
p4266
sS"This Lil' Game We Play"
p4267
S'Subway (Featuring 702)'
p4268
sS'Slam Dunk'
p4269
S'Five'
p4270
sS'Kiss The Rain'
p4271
S'Billie Myers'
p4272
sS"It's All About U"
p4273
S'SWV'
p4274
sS'On & On'
p4275
S'Erykah Badu'
p4276
sS'Funny How Time Flies'
p4277
S'Intro'
p4278
sS'I Don t Care'
p4279
S'Shakespear s Sister'
p4280
sS'Life Ain t Easy'
p4281
S'Cleopatra'
p4282
sS'Feelin  It'
p4283
S'Jay-Z'
p4284
sS'Meanwhile'
p4285
S'George Strait'
p4286
sS"Let's Make A Night To Remember"
p4287
S'Bryan Adams'
p4288
sS'Better Than Me'
p4289
S'Terry Dexter'
p4290
sS'She s Playing Hard To Get'
p4291
S'Hi-Five'
p4292
sS'Do You See'
p4293
S'Warren G'
p4294
sS'Heartbreak Hotel'
p4295
S'Whitney Houston Feat. Faith Evans'
p4296
sS'All Night Long'
p4297
S'Faith Evans Featuring Puff Daddy'
p4298
sS'Cocktales'
p4299
S'Too Short'
p4300
sS'Only Love (The Ballad Of Sleeping Beauty)'
p4301
S'Sophie B. Hawkins'
p4302
sS'Mind Playing Tricks On Me'
p4303
S'Geto Boys'
p4304
sS'A Deeper Love (From "Sister Act 2")'
p4305
S'Aretha Franklin'
p4306
sS'Home To You'
p4307
S'John Michael Montgomery'
p4308
sS'Say You ll Stay'
p4309
S'KAI'
p4310
sS'Just Because I Love You'
p4311
S'Lina Santiago'
p4312
sS'Dream'
p4313
S'Forest For The Trees'
p4314
sS'When A Man Loves A Woman'
p4315
S'Michael Bolton'
p4316
sS'Missing You Now'
p4317
S'Michael Bolton'
p4318
sS"Jackie's Strength"
p4319
S'Tori Amos'
p4320
sS'We re All In the Same Gang'
p4321
S'The West Coast Rap All-Stars'
p4322
sS'Soon As I Get Home'
p4323
S'Faith Evans'
p4324
sS'Dangerous'
p4325
S'Busta Rhymes'
p4326
sS'All I Want (From "GOOD Burger")'
p4327
S'702'
p4328
sS'Do It To Me'
p4329
S'Lionel Richie'
p4330
sS'Crooklyn (From "Crooklyn")'
p4331
S'The Crooklyn Dodgers'
p4332
sS'Get Up On It'
p4333
S'Keith Sweat (Featuring Kut Klose)'
p4334
sS'Show Me The Meaning Of Being Lonely'
p4335
S'Backstreet Boys'
p4336
sS"Biological Didn't Bother"
p4337
S"Shaquille O'Neal"
p4338
sS'Pick It Up'
p4339
S'Home Team'
p4340
sS'Never Been Kissed'
p4341
S'Sherrie Austin'
p4342
sS'Watermelon Crawl'
p4343
S'Tracy Byrd'
p4344
sS'The One And Only'
p4345
S'Chesney Hawkes'
p4346
sS'Better Days (And The Bottom Drops Out)'
p4347
S'Citizen King'
p4348
sS'Counting The Days'
p4349
S'Joey Kid'
p4350
sS'I Can Love You'
p4351
S'Mary J. Blige'
p4352
sS'Pump It (Nice An  Hard)'
p4353
S'Icy Blu'
p4354
sS'I Wanna Be Rich'
p4355
S'Calloway'
p4356
sS'Just Ask Me To (From "Boyz N The Hood")'
p4357
S'Tevin Campbell'
p4358
sS'Jimmy Olsen s Blues'
p4359
S'Spin Doctors'
p4360
sS'Jus Lyke Compton'
p4361
S'DJ Quik'
p4362
sS'What I Need'
p4363
S'Crystal Waters'
p4364
sS'Meet Virginia'
p4365
S'Train'
p4366
sS'God'
p4367
S'Tori Amos'
p4368
sS'Children Of The Night'
p4369
S'Richard Marx'
p4370
sS'Groovin  In The Midnight'
p4371
S'Maxi Priest'
p4372
sS"I'm So Happy I Can't Stop Crying"
p4373
S'Toby Keith With Sting'
p4374
sS'Summer Bunnies'
p4375
S'R. Kelly'
p4376
sS'I m Every Woman (From "The Bodyguard")'
p4377
S'Whitney Houston'
p4378
sS'Another Minute'
p4379
S'Cause'
p4380
sS'All That Glitters Isn t Gold'
p4381
S'The Cover Girls'
p4382
sS'Dub Be Good To Me'
p4383
S'Beats International'
p4384
sS'Invasion Of The Flat Booty B*****s'
p4385
S'Too Short'
p4386
sS'Don t Lose The Magic'
p4387
S'Shawn Christopher'
p4388
sS'My Love Is Your Love'
p4389
S'Whitney Houston'
p4390
sS'Whatuon'
p4391
S'LaTanya Featuring Twista'
p4392
sS'U Can t Touch This'
p4393
S'M.C. Hammer'
p4394
sS'Lyin  To Myself'
p4395
S'David Cassidy'
p4396
sS'Down For Yours'
p4397
S'Nastyboy Klick Featuring Roger Troutman'
p4398
sS'Love Is A Killer'
p4399
S'Vixen'
p4400
sS'Keep Their Heads Ringin\' (From "Friday")'
p4401
S'Dr. Dre'
p4402
sS'That s What I Like'
p4403
S'Jive Bunny'
p4404
sS'Slam'
p4405
S'Onyx'
p4406
sS'My Best Friend'
p4407
S'Tim McGraw'
p4408
sS'Mary Jane s Last Dance'
p4409
S'Tom Petty And The Heartbreakers'
p4410
sS'Galileo'
p4411
S'Indigo Girls'
p4412
sS'The Riddler (From "Batman Forever")'
p4413
S'Method Man'
p4414
sS'The Blues'
p4415
S'Tony Toni Tone'
p4416
sS'Girl I Am Searching For You'
p4417
S'Stevie B'
p4418
sS'Wishlist'
p4419
S'Pearl Jam'
p4420
sS'All I Wanna Do Is Make Love To You'
p4421
S'Heart'
p4422
sS'On The Way Up'
p4423
S'Elisa Fiorillo'
p4424
sS'Conviction Of The Heart'
p4425
S'Kenny Loggins'
p4426
sS'Ooh La La (I Can t Get Over You)'
p4427
S'Perfect Gentlemen'
p4428
sS'All I Do'
p4429
S'Somethin  For The People'
p4430
sS'Ice Ice Baby'
p4431
S'Vanilla Ice'
p4432
sS'Don t You Love Me'
p4433
S'49-ers'
p4434
sS'Heaven Is A 4 Letter Word'
p4435
S'Bad English'
p4436
sS'The Fly'
p4437
S'U2'
p4438
sS'My Love Is For Real'
p4439
S'Paula Abdul'
p4440
sS'Set The Night To Music'
p4441
S'Roberta Flack With Maxi Priest'
p4442
sS'Just The Two Of Us'
p4443
S'Will Smith'
p4444
sS'Recover Your Soul'
p4445
S'Elton John'
p4446
sS'Who s Got Your Love'
p4447
S'Nyasia'
p4448
sS'I m Still In Love With You'
p4449
S'New Edition'
p4450
sS'The Star Spangled Banner'
p4451
S'Whitney Houston'
p4452
sS'I d Do Anything For Love (But I Won t Do That)'
p4453
S'Meat Loaf'
p4454
sS"They Don't Know"
p4455
S'Jon B'
p4456
sS'Chain Of Fools'
p4457
S'Little Caesar'
p4458
sS'Just Another Girlfriend'
p4459
S'Hi-Five'
p4460
sS'I Wanna Sex You Up (From "New Jack City")'
p4461
S'Color Me Badd'
p4462
sS'Send Me An Angel'
p4463
S'Scorpions'
p4464
sS'Touch Me (All Night Long)'
p4465
S'Cathy Dennis'
p4466
sS'Speed'
p4467
S'Alpha Team'
p4468
sS'Molly (Sixteen Candles)'
p4469
S'Sponge'
p4470
sS"I Wasn't With It"
p4471
S'Jesse Powell'
p4472
sS'Victory'
p4473
S'Puff Daddy'
p4474
sS'Perfect'
p4475
S'The Smashing Pumpkins'
p4476
sS'Never Keeping Secrets'
p4477
S'Babyface'
p4478
sS'Discotheque'
p4479
S'U2'
p4480
sS'What s It Gonna Be?!'
p4481
S'Busta Rhymes Featuring Janet'
p4482
sS'Holding My Heart'
p4483
S'Bang'
p4484
sS'Roam'
p4485
S'The B-52 s'
p4486
sS'I Love Your Smile'
p4487
S'Shanice'
p4488
sS"But It's Alright"
p4489
S'Huey Lewis & The News'
p4490
sS"Trippin'"
p4491
S'Total Featuring Missy Elliott'
p4492
sS'Come And Get Your Love'
p4493
S'Real McCoy'
p4494
sS'Let The Beat Hit  Em'
p4495
S'Lisa Lisa'
p4496
sS'Chante s Got A Man'
p4497
S'Chante Moore'
p4498
sS'Stutter'
p4499
S'Elastica'
p4500
sS'Policy Of Truth'
p4501
S'Depeche Mode'
p4502
sS'When Will I See You Smile Again?'
p4503
S'Bell Biv Devoe'
p4504
sS'A Deeper Love/Pride (In The Name Of Love)'
p4505
S'Clivilles'
p4506
sS'Movin  On'
p4507
S'Mya Featuring Silkk The Shocker'
p4508
sS'Swing The Mood'
p4509
S'Jive Bunny'
p4510
sS'Far Behind'
p4511
S'Candlebox'
p4512
sS'Everyday Is A Winding Road'
p4513
S'Sheryl Crow'
p4514
sS'Throw Your Hands Up'
p4515
S'L.V.'
p4516
sS'Stop The Gunfight'
p4517
S'Trapp Featuring 2pac, Notorious B.I.G.'
p4518
sS'Have A Heart'
p4519
S'Bonnie Raitt'
p4520
sS"I'll Be Around"
p4521
S"Rappin' 4-Tay Featuring The Spinners"
p4522
sS'Black Or White'
p4523
S'Michael Jackson'
p4524
sS'Splackavellie'
p4525
S'Pressha'
p4526
sS'Personal Jesus'
p4527
S'Depeche Mode'
p4528
sS"Baby It's You"
p4529
S'The Beatles'
p4530
sS'Sesame s Treet'
p4531
S'Smart E s'
p4532
sS"Whenever You're Near Me"
p4533
S'Ace Of Base'
p4534
sS'Truly Madly Deeply'
p4535
S'Savage Garden'
p4536
sS'All Along'
p4537
S'Blessid Union Of Souls'
p4538
sS'Sometimes (It s A Bitch)'
p4539
S'Stevie Nicks'
p4540
sS'Woman To Woman'
p4541
S'Jewell'
p4542
sS'Love Is On The Way'
p4543
S'Saigon Kick'
p4544
sS'Crazy Love'
p4545
S'CeCe Peniston'
p4546
sS'Cupid'
p4547
S'112'
p4548
sS'Never Should ve Let You Go (From "Sister Act 2")'
p4549
S'Hi-Five'
p4550
sS'Another Sleepless Night'
p4551
S'Shawn Christopher'
p4552
sS'Just Another Case'
p4553
S'CRU Featuring Slick Rick'
p4554
sS'Feel So High'
p4555
S"Des'ree"
p4556
sS'Girls  Best Friend'
p4557
S'Jay-Z'
p4558
sS'Tuck Me In'
p4559
S'Kimberly Scott'
p4560
sS"I'm Alright"
p4561
S'Jo Dee Messina'
p4562
sS"Hang 'Em High"
p4563
S'Sadat X'
p4564
sS"Keep Tryin'"
p4565
S'Groove Theory'
p4566
sS'Love Me Forever Or Love Me Not'
p4567
S'Trilogy'
p4568
sS'Knockin  Da Boots'
p4569
S'H-Town'
p4570
sS'Written On Ya Kitten'
p4571
S'Naughty By Nature'
p4572
sS"I'm Not A Fool"
p4573
S'Immature'
p4574
sS'Brainstorming'
p4575
S'M.C. Brains'
p4576
sS'This Is How We Party'
p4577
S'S.O.A.P.'
p4578
sS'Unforgettable'
p4579
S'Natalie Cole'
p4580
sS'Only Time Will Tell'
p4581
S'Nelson'
p4582
sS'Why Does It Hurt So Bad (From "Waiting To Exhale")'
p4583
S'Whitney Houston'
p4584
sS'Going Back To Cali'
p4585
S'The Notorious B.I.G.'
p4586
sS"It's Your Body"
p4587
S'Johnny Gill Featuring Roger Troutman'
p4588
sS'Forever'
p4589
S'Kiss'
p4590
sS'Fantastic Voyage'
p4591
S'Coolio'
p4592
sS"He Didn't Have To Be"
p4593
S'Brad Paisley'
p4594
sS'Nowhere To Go'
p4595
S'Melissa Etheridge'
p4596
sS'We Danced Anyway'
p4597
S'Deana Carter'
p4598
sS'The Cup Of Life (The Official Song Of The World Cup, France  98)'
p4599
S'Ricky Martin'
p4600
sS'Funkorama'
p4601
S'Redman'
p4602
sS'Sex And Candy'
p4603
S'Marcy Playground'
p4604
sS'What Comes Naturally'
p4605
S'Sheena Easton'
p4606
sS'Kiss You Back'
p4607
S'Digital Underground'
p4608
sS'The Bomb! (These Sounds Fall Into My Mind)'
p4609
S'The Bucketheads'
p4610
sS'Craziest'
p4611
S'Naughty By Nature'
p4612
sS'Where Ever You Are'
p4613
S'Terry Ellis'
p4614
sS'Stairway To Heaven'
p4615
S'Pure Soul'
p4616
sS'Round & Round'
p4617
S'Twinz'
p4618
sS'Freak Like Me'
p4619
S'Adina Howard'
p4620
sS'More Than Words Can Say'
p4621
S'Alias'
p4622
sS'I Don t Wanna See You'
p4623
S'Michael Morales'
p4624
sS'Home Sweet Home'
p4625
S'Motley Crue'
p4626
sS'Get Over It'
p4627
S'Eagles'
p4628
sS'What You Won t Do For Love'
p4629
S'Go West'
p4630
sS'I Believe'
p4631
S'Blessid Union Of Souls'
p4632
sS'Two Princes'
p4633
S'Spin Doctors'
p4634
sS'Superstar'
p4635
S'Charm Farm'
p4636
sS'After The Summer s Gone'
p4637
S'PC Quest'
p4638
sS' 98 Thug Paradise'
p4639
S'Tragedy, Capone, Infinite'
p4640
sS'Elevate My Mind'
p4641
S'Stereo MC s'
p4642
sS'Oh Father'
p4643
S'Madonna'
p4644
sS'Like The Way I Do/If I Wanted To'
p4645
S'Melissa Etheridge'
p4646
sS'A Face In The Crowd'
p4647
S'Tom Petty'
p4648
sS'Waterfalls'
p4649
S'TLC'
p4650
sS'Gonna Catch You (From "Cool As Ice")'
p4651
S'Lonnie Gordon'
p4652
sS'Revolution (From "Malcolm X")'
p4653
S'Arrested Development'
p4654
sS'Regret'
p4655
S'New Order'
p4656
sS'Not Tonight'
p4657
S"Lil' Kim Feat. Da Brat, Left Eye, Missy Elliott & Angie Mar"
p4658
sS'One More Try'
p4659
S'Divine'
p4660
sS'Something s Goin  On'
p4661
S'U.N.V.'
p4662
sS"I Can't Make You Love Me"
p4663
S'Bonnie Raitt'
p4664
sS'I ll Make Love To You'
p4665
S'Boyz II Men'
p4666
sS'Place In This World'
p4667
S'Michael W. Smith'
p4668
sS'The Most Beautifullest Thing In This World'
p4669
S'Keith Murray'
p4670
sS'Happiness'
p4671
S'Billy Lawrence'
p4672
sS'Bang Bang'
p4673
S'David Sanborn'
p4674
sS'I ll Take You There'
p4675
S'BeBe'
p4676
sS"Here's Your Sign (Get The Picture)"
p4677
S'Bill Engvall With Special Guest Travis Tritt'
p4678
sS'Voices That Care'
p4679
S'Voices That Care'
p4680
sS'Live, Laugh, Love'
p4681
S'Clay Walker'
p4682
sS'Monsters And Angels'
p4683
S'Voice Of The Beehive'
p4684
sS'The Place Where You Belong (From "Beverly Hills Cop III")'
p4685
S'Shai'
p4686
sS'Everything Is Everything'
p4687
S'Lauryn Hill'
p4688
sS'Skat Strut'
p4689
S'MC Skat Kat'
p4690
sS'The Lion Sleeps Tonight (Wimoweh)'
p4691
S'The Tokens'
p4692
sS'Lights'
p4693
S'Journey'
p4694
sS'Thinkin  Bout It'
p4695
S'Gerald Levert'
p4696
sS'Music Of My Heart'
p4697
S"'N Sync & Gloria Estefan"
p4698
sS'Friends Of P.'
p4699
S'The Rentals'
p4700
sS'What I Didn t Know'
p4701
S'Athenaeum'
p4702
sS'Gangsta'
p4703
S'Bell Biv Devoe'
p4704
sS'A Country Boy Can Survive (Y2K Version)'
p4705
S'Chad Brock With Hank Williams Jr. & George Jones'
p4706
sS'Look Into My Eyes'
p4707
S'George LaMond'
p4708
sS'Get Here'
p4709
S'Oleta Adams'
p4710
sS'Remember Me This Way (From "Casper")'
p4711
S'Jordan Hill'
p4712
sS'Hang In Long Enough'
p4713
S'Phil Collins'
p4714
sS'Get It On Tonite'
p4715
S'Montell Jordan'
p4716
sS'Run-Around'
p4717
S'Blues Traveler'
p4718
sS'G.H.E.T.T.O.U.T.'
p4719
S'Changing Faces'
p4720
sS'Take It Easy'
p4721
S'Mad Lion'
p4722
sS'For Your Mind'
p4723
S'Robbie Nevil'
p4724
sS'Who s The Man? (From "Who s The Man")'
p4725
S'House Of Pain'
p4726
sS'I Don t Have The Heart'
p4727
S'James Ingram'
p4728
sS"You Won't Forget Me"
p4729
S'La Bouche'
p4730
sS'Little Man'
p4731
S'Alan Jackson'
p4732
sS'Goodbye To My Homies'
p4733
S'Master P Featuring Silkk The Shocker, Sons Of Funk And Mo B. Dick'
p4734
sS'A Girl Like You'
p4735
S'The Smithereens'
p4736
sS'Play That Funky Music'
p4737
S'Vanilla Ice'
p4738
sS'Say My Name'
p4739
S"Destiny's Child"
p4740
sS'Stay Forever'
p4741
S'Joey Lawrence'
p4742
sS'Something Happened On The Way To Heaven'
p4743
S'Phil Collins'
p4744
sS'Come '
p4745
S'Jodeci'
p4746
sS'Can\'t Help Falling In Love (From "Sliver")'
p4747
S'UB40'
p4748
sS'Heaven s What I Feel'
p4749
S'Gloria Estefan'
p4750
sS'I Have Nothing (From "The Bodyguard")'
p4751
S'Whitney Houston'
p4752
sS'They Don t Know'
p4753
S'Jon B.'
p4754
sS'Fields Of Gold'
p4755
S'Sting'
p4756
sS'Drive Me Wild'
p4757
S'Sawyer Brown'
p4758
sS'I Get Around'
p4759
S'2Pac'
p4760
sS'Flood'
p4761
S'Jars Of Clay'
p4762
sS'In The Still Of The Nite (From "The Jacksons")'
p4763
S'Boyz II Men'
p4764
sS'Innocent Child'
p4765
S'Colourhaus'
p4766
sS'Round And Round'
p4767
S'Tevin Campbell'
p4768
sS"It's No Good"
p4769
S'Depeche Mode'
p4770
sS'Victim Of The Ghetto'
p4771
S'The College Boyz'
p4772
sS'Give It Away'
p4773
S'Red Hot Chili Peppers'
p4774
sS'Here We Go'
p4775
S'Funkmaster Flex Presents Khadejia Featuring Product'
p4776
sS'Willing To Forgive'
p4777
S'Aretha Franklin'
p4778
sS'Energy'
p4779
S'Devone'
p4780
sS'Someone You Used To Know'
p4781
S'Collin Raye'
p4782
sS'Black Ice (Sky High)'
p4783
S'Goodie Mob Featuring Outkast'
p4784
sS'Spin Spin Sugar'
p4785
S'Sneaker Pimps'
p4786
sS'Head Over Heels'
p4787
S'Allure Featuring NAS'
p4788
sS'Walk On By'
p4789
S'Sybil'
p4790
sS'The Child (Inside)'
p4791
S'Qkumba Zoo'
p4792
sS'Mourn You Til I Join You'
p4793
S'Naughty By Nature'
p4794
sS'Life'
p4795
S'K-Ci'
p4796
sS'Fly To the Angels'
p4797
S'Slaughter'
p4798
sS'We Must Be In Love'
p4799
S'Pure Soul'
p4800
sS'I ll Never Get Over You (Getting Over Me)'
p4801
S'Expose'
p4802
sS'Step To This'
p4803
S'Master P Featuring D.I.G.'
p4804
sS'This Is The Way We Roll'
p4805
S'M.C. Hammer'
p4806
sS'Room At The Top'
p4807
S'Adam Ant'
p4808
sS'Am I The Same Girl'
p4809
S'Swing Out Sister'
p4810
sS'Give Him A Love He Can Feel'
p4811
S'Tene Williams'
p4812
sS'All Star'
p4813
S'Smash Mouth'
p4814
sS'Right And Hype'
p4815
S'Abstrac'
p4816
sS'What Do You Say'
p4817
S'Reba'
p4818
sS'Downtown Train'
p4819
S'Rod Stewart'
p4820
sS'Mr. Vain'
p4821
S'Culture Beat'
p4822
sS'House Keeper'
p4823
S'Men Of Vizion'
p4824
sS'Life In Mono'
p4825
S'Mono'
p4826
sS'Sprinkle Me'
p4827
S'E-40 (Featuring Suga T)'
p4828
sS"I Care 'Bout You"
p4829
S'Milestone'
p4830
sS'Will You Be There (From "Free Willy")'
p4831
S'Michael Jackson'
p4832
sS'Come Inside'
p4833
S'Intro'
p4834
sS'Better Days'
p4835
S'WC Featuring Jon B.'
p4836
sS'Shine'
p4837
S'Collective Soul'
p4838
sS'Ding-A-Ling'
p4839
S'Hi-Town DJs'
p4840
sS"Can't We Try"
p4841
S'Rockell [Duet With Collage]'
p4842
sS'Tubthumping'
p4843
S'Chumbawamba'
p4844
sS'Drag My Bad Name Down'
p4845
S'The 4 Of Us'
p4846
sS'You Are Everything'
p4847
S'Dru Hill'
p4848
sS'That s The Way Of The World'
p4849
S'D-Mob With Cathy Dennis'
p4850
sS'Cuts You Up'
p4851
S'Peter Murphy'
p4852
sS'We Want The Funk'
p4853
S'Gerardo'
p4854
sS'The Perfect Drug (From "Lost Highway")'
p4855
S'Nine Inch Nails'
p4856
sS'How Can I Ease The Pain'
p4857
S'Lisa Fischer'
p4858
sS'Chorus'
p4859
S'Erasure'
p4860
sS'Never Satisfied'
p4861
S'Good 2 Go'
p4862
sS'Heart Of Stone'
p4863
S'Taylor Dayne'
p4864
sS'Circle Of Life (From "The Lion King")'
p4865
S'Elton John'
p4866
sS'Wishing On A Star'
p4867
S'The Cover Girls'
p4868
sS'I ll Still Love You More'
p4869
S'Trisha Yearwood'
p4870
sS'Cover Girl'
p4871
S'New Kids On The Block'
p4872
sS'True Companion'
p4873
S'Marc Cohn'
p4874
sS'Cry For Help'
p4875
S'Rick Astley'
p4876
sS'How Do I Deal'
p4877
S'Jennifer Love Hewitt'
p4878
sS'Get Up (Move Boy Move)'
p4879
S'AB Logic'
p4880
sS'Strawberry Wine'
p4881
S'Deana Carter'
p4882
sS'If That s Your Boyfriend (He Wasn t Last Night)'
p4883
S'MeShell Ndegeocello'
p4884
sS'Romantic Call'
p4885
S'Patra Featuring Yo-Yo'
p4886
sS"C'mon N' Ride It (The Train)"
p4887
S"Quad City DJ's"
p4888
sS'How Much Love'
p4889
S'Vixen'
p4890
sS'You Remind Me (From "Strictly Business")'
p4891
S'Mary J. Blige'
p4892
sS'Jump!'
p4893
S'The Movement'
p4894
sS'Total Eclipse Of The Heart'
p4895
S'Nicki French'
p4896
sS'Love U 4 Life'
p4897
S'Jodeci'
p4898
sS'Simple Life'
p4899
S'Elton John'
p4900
sS'Love Ain t Like That'
p4901
S'Faith Hill'
p4902
sS'At The Beginning'
p4903
S'Richard Marx & Donna Lewis'
p4904
sS'Nice & Slow'
p4905
S'Usher'
p4906
sS'Little Bitty'
p4907
S'Alan Jackson'
p4908
sS'Hands Of A Working Man'
p4909
S'Ty Herndon'
p4910
sS'It s Over Now'
p4911
S'Deborah Cox'
p4912
sS'Baby-Baby-Baby'
p4913
S'TLC'
p4914
sS'Roll To Me'
p4915
S'Del Amitri'
p4916
sS'Wonderful'
p4917
S'Adam Ant'
p4918
sS'Watch For The Hook'
p4919
S'Cool Breeze Featuring OutKast, Goodie Mob'
p4920
sS'Method Man'
p4921
S'Wu-Tang Clan'
p4922
sS'No Place That Far'
p4923
S'Sara Evans'
p4924
sS'I Need To Know'
p4925
S'Marc Anthony'
p4926
sS"She Don't Use Jelly"
p4927
S'The Flaming Lips'
p4928
sS'Husbands And Wives'
p4929
S'Brooks'
p4930
sS'Sexual Healing'
p4931
S'Max-A-Million'
p4932
sS'808'
p4933
S'Blaque'
p4934
sS'Temptations'
p4935
S'2Pac'
p4936
sS'Tres Delinquentes'
p4937
S'Delinquent Habits'
p4938
sS'Whip Appeal'
p4939
S'Babyface'
p4940
sS'Give It To You'
p4941
S'Jordan Knight'
p4942
sS'Microphone Master'
p4943
S'Das EFX (Featuring Mobb Deep)'
p4944
sS'A Little Love'
p4945
S'Corey Hart'
p4946
sS'It s All Been Done'
p4947
S'Barenaked Ladies'
p4948
sS'Lean On Me'
p4949
S'Kirk Franklin Feat. Mary J. Blige, Bono, R. Kelly, Crystal Lewis'
p4950
sS'I Need Love'
p4951
S'Olivia Newton-John'
p4952
sS'The Way That You Love'
p4953
S'Vanessa Williams'
p4954
sS'My Fallen Angel'
p4955
S'Coro'
p4956
sS'ESPN Presents The Jock Jam'
p4957
S'Various Artists'
p4958
sS'Beautiful Girl'
p4959
S'INXS'
p4960
sS'Insane In The Brain'
p4961
S'Cypress Hill'
p4962
sS'Have You Ever Really Loved A Woman?'
p4963
S'Bryan Adams'
p4964
sS'I Fell In Love'
p4965
S'Rockell'
p4966
sS'Water Runs Dry'
p4967
S'Boyz II Men'
p4968
sS'Let s Go Through The Motions (From "Who s The Man?")'
p4969
S'Jodeci'
p4970
sS'How Can You Expect To Be Taken Seriously?'
p4971
S'Pet Shop Boys'
p4972
sS'Watch Me Do My Thing (From "All That")'
p4973
S'Immature Featuring Smooth And Ed From Good Burger'
p4974
sS'Days Like These'
p4975
S'Asia'
p4976
sS'Kiss This Thing Goodbye'
p4977
S'Del Amitri'
p4978
sS'Lost Soul'
p4979
S'Bruce Hornsby'
p4980
sS'Groove Is In The Heart'
p4981
S'Deee-Lite'
p4982
sS'Can You Feel Me'
p4983
S'Dru Down'
p4984
sS'To Be With You'
p4985
S'Mr. Big'
p4986
sS"Don't Say Goodbye Girl"
p4987
S'Tevin Campbell'
p4988
sS'The Devil Came Up To Michigan'
p4989
S'K.M.C. KRU'
p4990
sS'Punks Jump Up To Get Beat Down'
p4991
S'Brand Nubian'
p4992
sS'Learn To Fly'
p4993
S'Foo Fighters'
p4994
sS'Tarzan Boy (From "Teenage Mutant Ninja Turtles III")'
p4995
S'Baltimora'
p4996
sS'Do Me!'
p4997
S'Bell Biv Devoe'
p4998
sS'Whatever'
p4999
S'En Vogue'
p5000
sS'Helluva'
p5001
S'Brotherhood Creed'
p5002
sS'Nothin  My Love Can t Fix'
p5003
S'Joey Lawrence'
p5004
sS'End Of The Road (From "Boomerang")'
p5005
S'Boyz II Men'
p5006
sS'Could ve Been Me'
p5007
S'Billy Ray Cyrus'
p5008
sS'Jump Jive An  Wail'
p5009
S'The Brian Setzer Orchestra'
p5010
sS'Hip-Hopera'
p5011
S'Bounty Killa featuring the Fugees'
p5012
sS'Until I Find You Again'
p5013
S'Richard Marx'
p5014
sS'Pray'
p5015
S'M.C. Hammer'
p5016
sS'Redneck Games'
p5017
S'Jeff Foxworthy With Alan Jackson'
p5018
sS'March Of The Pigs'
p5019
S'Nine Inch Nails'
p5020
sS'James Brown Is Dead'
p5021
S'L.A. Style'
p5022
sS'(It s Just) The Way That You Love Me'
p5023
S'Paula Abdul'
p5024
sS'Cuts Both Ways'
p5025
S'Gloria Estefan'
p5026
sS'Get Ready To Bounce'
p5027
S'Brooklyn Bounce'
p5028
sS'Pop A Top'
p5029
S'Alan Jackson'
p5030
sS'Choose'
p5031
S'Color Me Badd'
p5032
sS'[Freak] And U Know It'
p5033
S'Adina Howard'
p5034
sS'Don t You Wanna Be Mine'
p5035
S'Denise Lopez'
p5036
sS'E-Bow The Letter'
p5037
S'R.E.M.'
p5038
sS'This Kiss'
p5039
S'Faith Hill'
p5040
sS'Promise Me'
p5041
S'Lil Suzy'
p5042
sS'This D.J.'
p5043
S'Warren G'
p5044
sS'Possession'
p5045
S'Sarah McLachlan'
p5046
sS'Honey'
p5047
S'Mariah Carey'
p5048
sS'Little Bird'
p5049
S'Annie Lennox'
p5050
sS'Fire'
p5051
S'Subway'
p5052
sS'No Tengo Dinero'
p5053
S'Los Umbrellos'
p5054
sS'Mama, I m Coming Home'
p5055
S'Ozzy Osbourne'
p5056
sS'Pushin\' Inside You (From "How Bout It")'
p5057
S'Sons Of Funk'
p5058
sS'I Found Love'
p5059
S'The Party'
p5060
sS'Moan '
p5061
S'Mark Morrison'
p5062
sS'Nobody Else'
p5063
S'Tyrese'
p5064
sS'Power Windows'
p5065
S'Billy Falcon'
p5066
sS'There s A Party Going On'
p5067
S'Yvonne'
p5068
sS'Say It'
p5069
S'Voices Of Theory'
p5070
sS'Daughter/Yellow Ledbetter'
p5071
S'Pearl Jam'
p5072
sS'Lonely And Gone'
p5073
S'Montgomery Gentry'
p5074
sS'Turn The Beat Around (From "The Specialist")'
p5075
S'Gloria Estefan'
p5076
sS'You re The Voice'
p5077
S'John Farnham'
p5078
sS'U Will Know (From "Jason\'s Lyric")'
p5079
S'B.M.U. (Black Men United)'
p5080
sS'Give U My Heart (From "Boomerang")'
p5081
S'Babyface (Featuring Toni Braxton)'
p5082
sS"I'll Be"
p5083
S'Edwin McCain'
p5084
sS'December 1963 (Oh, What A Night)'
p5085
S'Four Seasons'
p5086
sS'Dirty Deeds'
p5087
S'Joan Jett'
p5088
sS'Vision Of Love'
p5089
S'Mariah Carey'
p5090
sS'Across The River'
p5091
S'Bruce Hornsby'
p5092
sS'Anytime You Need A Friend'
p5093
S'Mariah Carey'
p5094
sS'I m From The Country'
p5095
S'Tracy Byrd'
p5096
sS"Hard To Say I'm Sorry"
p5097
S'Az Yet Featuring Peter Cetera'
p5098
sS'Blind Faith'
p5099
S'Warrant'
p5100
sS'Back '
p5101
S'Aaliyah'
p5102
sS'Restless Heart'
p5103
S'Peter Cetera'
p5104
sS'Whoomp! (There It Went)'
p5105
S'Tag Team, Mickey, Minnie, And Goofy'
p5106
sS"(If You're Not In It For Love) I'm Outta Here!/The Woman In Me"
p5107
S'Shania Twain'
p5108
sS'Gotham City'
p5109
S'R. Kelly'
p5110
sS'Pony'
p5111
S'Ginuwine'
p5112
sS'I Just Want To Dance With You'
p5113
S'George Strait'
p5114
sS'God Must Have Spent A Little More Time On You'
p5115
S'Alabama Featuring  N Sync'
p5116
sS'Don t Take It Personal'
p5117
S'Jermaine Jackson'
p5118
sS'Gotta Get Mine'
p5119
S'M.C. Breed'
p5120
sS'Good Times With Bad Boys'
p5121
S'Boy Krazy'
p5122
sS'If I Could'
p5123
S'Regina Belle'
p5124
sS'Make You Sweat'
p5125
S'Keith Sweat'
p5126
sS"You're Still The One"
p5127
S'Shania Twain'
p5128
sS'Constant Craving'
p5129
S'k.d. lang'
p5130
sS'Tomorrow (A Better You, Better Me)'
p5131
S'Quincy Jones With Tevin Campbell'
p5132
sS'Comforter'
p5133
S'Shai'
p5134
sS'These Are The Times'
p5135
S'Dru Hill'
p5136
sS"It's So Hard To Say Goodbye To Yesterday"
p5137
S'Boyz II Men'
p5138
sS'Da  Dip'
p5139
S'Freak Nasty'
p5140
sS'Did You Ever Think'
p5141
S'R. Kelly'
p5142
sS'This Could Be The One'
p5143
S'Bad Company'
p5144
sS'Luchini aka (This Is It)'
p5145
S'Camp Lo'
p5146
sS'My Favorite Girl'
p5147
S'Dave Hollister'
p5148
sS'The Way She Loves Me'
p5149
S'Richard Marx'
p5150
sS'Spin The Bottle (From "Reality Bites")'
p5151
S'The Juliana Hatfield 3'
p5152
sS'Everything'
p5153
S'Mary J. Blige'
p5154
sS'Heat Of The Moment'
p5155
S'After 7'
p5156
sS"Ain't No Future In Yo' Fronting"
p5157
S'M.C. Breed & D.F.C.'
p5158
sS'You re Still The One'
p5159
S'Shania Twain'
p5160
sS'Nothing Really Matters'
p5161
S'Madonna'
p5162
sS'House Of Broken Love'
p5163
S'Great White'
p5164
sS'26 Cents'
p5165
S'The Wilkinsons'
p5166
sS'Tell Me (From "Eddie")'
p5167
S'Dru Hill'
p5168
sS'Passionate Kisses'
p5169
S'Mary Chapin Carpenter'
p5170
sS'When I Give My Love'
p5171
S'Keith Sweat'
p5172
sS'That Girl'
p5173
S'Maxi Priest Featuring Shaggy'
p5174
sS'A Bad Goodbye'
p5175
S'Clint Black With Wynonna'
p5176
sS'I Don t Wanna Go On'
p5177
S'Innerlude'
p5178
sS"Ain't Nuthin' But A She Thing"
p5179
S'Salt-N-Pepa'
p5180
sS'Tender Lover'
p5181
S'Babyface'
p5182
sS'Falling In Love'
p5183
S'New Born'
p5184
sS"It's Alright"
p5185
S'Memphis Bleek (& Jay-Z)'
p5186
sS'Sadeness Part 1'
p5187
S'Enigma'
p5188
sS'Breakin  My Heart (Pretty Brown Eyes)'
p5189
S'Mint Condition'
p5190
sS'Still Po  Pimpin '
p5191
S'Do Or Die Featuring Johnny P'
p5192
sS'Just Roll'
p5193
S'Fabu'
p5194
sS'Hey D.J. (From "Mi Vida Loca")'
p5195
S'Lighter Shade Of Brown'
p5196
sS'Walk Through Fire'
p5197
S'Bad Company'
p5198
sS'Slow Dance (Hey Mr. DJ)'
p5199
S'R. Kelly'
p5200
sS'The Message'
p5201
S'Sofia Shinas'
p5202
sS'Livin  La Vida Loca'
p5203
S'Ricky Martin'
p5204
sS'Mysterious Ways'
p5205
S'U2'
p5206
sS'The World Is A Ghetto'
p5207
S'Geto Boys Featuring Flaj'
p5208
sS'Take You There'
p5209
S'Pete Rock & C.L. Smooth'
p5210
sS'Every Light In The House'
p5211
S'Trace Adkins'
p5212
sS'Afternoons '
p5213
S'Crash Test Dummies'
p5214
sS'Hold On To Me'
p5215
S'John Michael Montgomery'
p5216
sS'Love And Understanding'
p5217
S'Cher'
p5218
sS"U Know What's Up"
p5219
S'Donell Jones'
p5220
sS'You Know My Steez'
p5221
S'Gang Starr'
p5222
sS'Can\'t You See (From "New Jersey Drive")'
p5223
S'Total Feat. The Notorious B.I.G.'
p5224
sS'All My Love'
p5225
S'Queen Pen Featuring Eric Williams'
p5226
sS'I Melt With You'
p5227
S'Modern English'
p5228
sS"If You Think You're Lonely Now"
p5229
S'K-Ci Hailey'
p5230
sS'Sweet Thing'
p5231
S'Mary J. Blige'
p5232
sS'All My Life'
p5233
S'K-Ci'
p5234
sS"Everything's Gonna Be Alright"
p5235
S'Sweetbox'
p5236
sS'Do You Like This'
p5237
S'Rome'
p5238
sS"I Know Where It's At"
p5239
S'All Saints'
p5240
sS'The Real Love'
p5241
S'Bob Seger'
p5242
sS'Release Me'
p5243
S'Angelina'
p5244
sS'It s All About You (Not About Me)'
p5245
S'Tracie Spencer'
p5246
sS'Hurting Kind (I ve Got My Eyes On You)'
p5247
S'Robert Plant'
p5248
sS'Around The Way Girl'
p5249
S'LL Cool J'
p5250
sS'The Last Song'
p5251
S'Elton John'
p5252
sS'Never Enough'
p5253
S'The Cure'
p5254
sS'Sometimes Love Just Ain t Enough'
p5255
S'Patty Smyth'
p5256
sS'Summertime'
p5257
S'D.J. Jazzy Jeff'
p5258
sS'Grandma Got Run Over By A Reindeer'
p5259
S'Elmo & Patsy'
p5260
sS'What A Girl Wants'
p5261
S'Christina Aguilera'
p5262
sS'Emotions'
p5263
S'H-Town'
p5264
sS'I Like The Way (The Kissing Game)'
p5265
S'Hi-Five'
p5266
sS'Falling In Love (Is Hard On The Knees)'
p5267
S'Aerosmith'
p5268
sS'Gone Till November'
p5269
S'Wyclef Jean'
p5270
sS'(Everything I Do) I Do It For You (From "Robin Hood")'
p5271
S'Bryan Adams'
p5272
sS'Don t Wanna Fall In Love'
p5273
S'Jane Child'
p5274
sS'The New Pollution'
p5275
S'Beck'
p5276
sS'One Heart At A Time'
p5277
S'Various Artists'
p5278
sS'Whispers'
p5279
S'Corina'
p5280
sS'6 Underground'
p5281
S'Sneaker Pimps'
p5282
sS'No Guns, No Murder'
p5283
S'Rayvon'
p5284
sS'Cradle Of Love (From "Ford Fairlane")'
p5285
S'Billy Idol'
p5286
sS'Too Late To Say Goodbye'
p5287
S'Richard Marx'
p5288
sS'Got To Get'
p5289
S'Leila K With Rob  N  Raz'
p5290
sS'Who Got The Props'
p5291
S'Black Moon'
p5292
sS'The Life Of Riley'
p5293
S'Lightning Seeds'
p5294
sS'If It Makes You Happy'
p5295
S'Sheryl Crow'
p5296
sS'I Still Believe'
p5297
S'Mariah Carey'
p5298
sS'Everyone Falls In Love'
p5299
S'Tanto Metro'
p5300
sS'32 Flavors'
p5301
S'Alana Davis'
p5302
sS'Someday (From "The Hunchback Of Notre Dame")'
p5303
S'All-4-One'
p5304
sS'Selling The Drama'
p5305
S'Live'
p5306
sS'Under The Bridge'
p5307
S'Red Hot Chili Peppers'
p5308
sS'It s My Life'
p5309
S'Dr. Alban'
p5310
sS'The Rockafeller Skank'
p5311
S'Fatboy Slim'
p5312
sS'I Will Survive'
p5313
S'Chantay Savage'
p5314
sS'Mass Appeal'
p5315
S'Gang Starr'
p5316
sS'Couple Days Off'
p5317
S'Huey Lewis'
p5318
sS"Vibin'"
p5319
S'Boyz II Men'
p5320
sS'I Want To Come Over'
p5321
S'Melissa Etheridge'
p5322
sS'Can t Get Enuff'
p5323
S'Winger'
p5324
sS'Almost Home'
p5325
S'Mary Chapin Carpenter'
p5326
sS'It s Alright, It s Ok'
p5327
S'Leah Andreone'
p5328
sS'Don t Want To Be A Fool'
p5329
S'Luther Vandross'
p5330
sS"Tonight's The Night"
p5331
S'BLACKstreet'
p5332
sS"I Ain't Havin' That"
p5333
S'Heltah Skeltah Featuring Starang Wondah Of O.G.C. & Doc Holiday'
p5334
sS'You Can Do It'
p5335
S'Ice Cube Featuring Mack 10 & Ms. Toi'
p5336
sS'You Used To Love Me'
p5337
S'Faith Evans'
p5338
sS'Rock Steady'
p5339
S'Bonnie Raitt With Bryan Adams'
p5340
sS'Closer To Free (From "Party Of Five")'
p5341
S'Bodeans'
p5342
sS'I Will Always Love You (From "The Bodyguard")'
p5343
S'Whitney Houston'
p5344
sS'This Is Your Night'
p5345
S'Amber'
p5346
sS'I m In A Philly Mood'
p5347
S'Daryl Hall'
p5348
sS'She s All I Ever Had'
p5349
S'Ricky Martin'
p5350
sS'Love On My Mind'
p5351
S'Xscape'
p5352
sS'Mmm Mmm Mmm Mmm'
p5353
S'Crash Test Dummies'
p5354
sS'Oochie Coochie'
p5355
S'M.C. Brains'
p5356
sS'Pull Up To The Bumper'
p5357
S'Patra'
p5358
sS'Ruff Ryders  Anthem'
p5359
S'DMX'
p5360
sS'Missing You (From "Set It Off")'
p5361
S'Brandy, Tamia, Gladys Knight'
p5362
sS'Funky Y-2-C'
p5363
S'The Puppies'
p5364
sS"Tonite's Tha Night"
p5365
S'Kris Kross'
p5366
sS'Little Miss Can t Be Wrong'
p5367
S'Spin Doctors'
p5368
sS'Sleeping With The Lights On'
p5369
S'Curtis Stigers'
p5370
sS'Someone'
p5371
S'SWV (Featuring Puff Daddy)'
p5372
sS'Never Find Someone Like You'
p5373
S'Keith Martin'
p5374
sS'Thieves In The Temple'
p5375
S'Prince'
p5376
sS'Music Makes Me High'
p5377
S'Lost Boyz'
p5378
sS'Suicide Blonde'
p5379
S'INXS'
p5380
sS'Floatin  On Your Love'
p5381
S'The Isley Brothers Featuring Angela Winbush'
p5382
sS'Grapevyne'
p5383
S'Brownstone'
p5384
sS'Spin That Wheel'
p5385
S'Hi Tek 3 Featuring Ya Kid K'
p5386
sS'Where The Streets Have No Name'
p5387
S'Pet Shop Boys'
p5388
sS'So Much In Love'
p5389
S'All-4-One'
p5390
sS'Everybody s Free (To Wear Sunscreen)'
p5391
S'Baz Luhrmann'
p5392
sS'Love Me'
p5393
S'112 Featuring Mase'
p5394
sS'Only Love Can Break Your Heart'
p5395
S'St. Etienne'
p5396
sS'Kickin  It'
p5397
S'After 7'
p5398
sS'Vibeology'
p5399
S'Paula Abdul'
p5400
sS"Don't Let It Go To Your Head"
p5401
S'Brand Nubian'
p5402
sS'Hip Hop Drunkies'
p5403
S"Tha Alkaholiks Featuring Ol' Dirty Bastard"
p5404
sS'Left & Right'
p5405
S"D'Angelo Featuring Method Man And Redman"
p5406
sS'Scarred (From "Eddie")'
p5407
S'Luke'
p5408
sS'Sleeping With You'
p5409
S'Firehouse'
p5410
sS'Just Another Day'
p5411
S'John Mellencamp'
p5412
sS'One Night At A Time'
p5413
S'George Strait'
p5414
sS'When The Lights Go Out'
p5415
S'Five'
p5416
sS'I Never Seen A Man Cry (aka I Seen A Man Die)'
p5417
S'Scarface'
p5418
sS'Bad Love'
p5419
S'Eric Clapton'
p5420
sS'Bizarre Love Triangle'
p5421
S'New Order'
p5422
sS'Bucktown'
p5423
S'Smif-N-Wessun'
p5424
sS'Don\'t Cry For Me Argentina (From "Evita")'
p5425
S'Madonna'
p5426
sS'Ghetto Supastar (That Is What You Are)'
p5427
S"Pras Michel Feat. Ol' Dirty Bastard & Introducing Mya"
p5428
sS"Sittin' On Chrome"
p5429
S'Masta Ace Incorporated'
p5430
sS'Hay'
p5431
S'Crucial Conflict'
p5432
sS'Into The Great Wide Open'
p5433
S'Tom Petty And The Heartbreakers'
p5434
sS'I Can t Make You Love Me'
p5435
S'Bonnie Raitt'
p5436
sS'Stay The Night'
p5437
S'IMx'
p5438
sS'It s Alright (From "South Central")'
p5439
S'Classic Example'
p5440
sS'World In My Eyes'
p5441
S'Depeche Mode'
p5442
sS'No Diggity'
p5443
S'BLACKstreet (Featuring Dr. Dre)'
p5444
sS'Are You That Somebody?'
p5445
S'Aaliyah'
p5446
sS'Real Love'
p5447
S'The Beatles'
p5448
sS"(She's Got) Skillz"
p5449
S'All-4-One'
p5450
sS'Moneytalks'
p5451
S'AC/DC'
p5452
sS'Here And Now'
p5453
S'Luther Vandross'
p5454
sS'Mental Picture'
p5455
S'Jon Secada'
p5456
sS'Butta Love'
p5457
S'Next'
p5458
sS'Livin  In The Light'
p5459
S'Caron Wheeler'
p5460
sS'Someone To Hold'
p5461
S'Trey Lorenz'
p5462
sS"She Thinks My Tractor's Sexy"
p5463
S'Kenny Chesney'
p5464
sS'Shiny Happy People'
p5465
S'R.E.M.'
p5466
sS"You're The Inspiration"
p5467
S'Peter Cetera Featuring Az Yet'
p5468
sS'There s Your Trouble'
p5469
S'Dixie Chicks'
p5470
sS'Lick U Up'
p5471
S'H-Town'
p5472
sS'All I See'
p5473
S'A+'
p5474
sS'If You Could Read My Mind'
p5475
S'Stars On 54: Ultra Nate, Amber, Jocelyn Enriquez'
p5476
sS'Your Body s Callin '
p5477
S'R. Kelly'
p5478
sS'Give Me...A Reason'
p5479
S'Buffy'
p5480
sS'People Are Still Having Sex'
p5481
S'LaTour'
p5482
sS'Lies'
p5483
S'EMF'
p5484
sS'Rico Suave'
p5485
S'Gerardo'
p5486
sS'Dirty Dawg'
p5487
S'NKOTB'
p5488
sS"Santa's A Fat Bitch"
p5489
S'Insane Clown Posse'
p5490
sS'The River Of Dreams'
p5491
S'Billy Joel'
p5492
sS'Return To Innocence'
p5493
S'Enigma'
p5494
sS'Invisible Man'
p5495
S'98 Degrees'
p5496
sS'Mercy Mercy Me (The Ecology)/I Want You'
p5497
S'Robert Palmer'
p5498
sS'Paying The Price Of Love'
p5499
S'Bee Gees'
p5500
sS'When I Dream Of You'
p5501
S'Tommy Page'
p5502
sS'Get A Life'
p5503
S'Soul II Soul'
p5504
sS'Achy Breaky Heart'
p5505
S'Billy Ray Cyrus'
p5506
sS'Freedom'
p5507
S'George Michael'
p5508
sS'Don\'t Wanna Be A Player (From "Booty Call")'
p5509
S'Joe'
p5510
sS'Johnny Have You Seen Her?'
p5511
S'The Rembrandts'
p5512
sS'If You Love Me'
p5513
S'Mint Condition'
p5514
sS'People Everyday'
p5515
S'Arrested Development'
p5516
sS'Fly Away'
p5517
S'Lenny Kravitz'
p5518
sS"I Don't Need Your Love"
p5519
S'Angelina'
p5520
sS'Shy Guy (From "Bad Boys")'
p5521
S'Diana King'
p5522
sS'Anything Is Possible'
p5523
S'Debbie Gibson'
p5524
sS'Throw Ya Gunz'
p5525
S'Onyx'
p5526
sS'What d You Come Here For?'
p5527
S'Trina'
p5528
sS'Tequila'
p5529
S'A.L.T. And The Lost Civilization'
p5530
sS'You Bring Me Up'
p5531
S'K-Ci & JoJo'
p5532
sS'Too Blind To See It'
p5533
S'Kym Sims'
p5534
sS'Thank You'
p5535
S'Boyz II Men'
p5536
sS'Gentle'
p5537
S'Dino'
p5538
sS'Unsent'
p5539
S'Alanis Morissette'
p5540
sS'Part Of Me, Part Of You'
p5541
S'Glenn Frey'
p5542
sS"You Should Be Mine (Don't Waste Your Time)"
p5543
S'Brian McKnight Featuring Mase'
p5544
sS'You re Amazing'
p5545
S'Robert Palmer'
p5546
sS'You Walked In'
p5547
S'Lonestar'
p5548
sS'In Paradise'
p5549
S'Laissez Faire'
p5550
sS'Love For Free'
p5551
S'Rell (Featuring Jay-Z)'
p5552
sS'Love For Love'
p5553
S'Robin S.'
p5554
sS'Wonder'
p5555
S'Natalie Merchant'
p5556
sS"It's Up To You"
p5557
S'The Tuesdays'
p5558
sS'So Help Me Girl'
p5559
S'Gary Barlow'
p5560
sS'The Memory Remains'
p5561
S'Metallica'
p5562
sS'Send Me A Lover'
p5563
S'Taylor Dayne'
p5564
sS'The Way I Feel About You'
p5565
S'Karyn White'
p5566
sS'I m Not Your Puppet'
p5567
S'Hi-C'
p5568
sS'Come On Over'
p5569
S'Shania Twain'
p5570
sS'Old Man & Me (When I Get To Heaven)'
p5571
S'Hootie & The Blowfish'
p5572
sS'Chief Rocka'
p5573
S'Lords Of The Underground'
p5574
sS'The Humpty Dance'
p5575
S'Digital Underground'
p5576
sS'I Live By The Groove'
p5577
S'Paul Carrack'
p5578
sS'Everything s Changed'
p5579
S'Lonestar'
p5580
sS'Let Love Rule'
p5581
S'Lenny Kravitz'
p5582
sS'The Motown Song'
p5583
S'Rod Stewart'
p5584
sS'Got To Have Your Love'
p5585
S'Mantronix Featuring Wondress'
p5586
sS'Get Up'
p5587
S'Lost Boyz'
p5588
sS'Lost In You'
p5589
S'Garth Brooks as Chris Gaines'
p5590
sS'Slave To The Habit'
p5591
S'Shane Minor'
p5592
sS'Like I Do'
p5593
S'For Real'
p5594
sS'How Much Is Enough'
p5595
S'The Fixx'
p5596
sS'Justified And Ancient'
p5597
S'The KLF Featuring Tammy Wynette'
p5598
sS'Something s Always Wrong'
p5599
S'Toad The Wet Sprocket'
p5600
sS'If I Had The Chance'
p5601
S'Cynthia'
p5602
sS'Flow Joe'
p5603
S'Fat Joe'
p5604
sS'Love No Limit'
p5605
S'Mary J. Blige'
p5606
sS'Let Me Ride'
p5607
S'Dr. Dre'
p5608
sS'Real Real Real'
p5609
S'Jesus Jones'
p5610
sS'Reach For The Sky'
p5611
S'Firehouse'
p5612
sS'Off The Books'
p5613
S'The Beatnuts Featuring Big Punisher & Cuban Link'
p5614
sS'I Will Remember You'
p5615
S'Amy Grant'
p5616
sS'Girl On TV'
p5617
S'LFO'
p5618
sS'Sweet On U'
p5619
S'Lo-Key?'
p5620
sS'Happily Ever After'
p5621
S'Case'
p5622
sS'Weekend Thang'
p5623
S'Alfonzo Hunter'
p5624
sS'Connection'
p5625
S'Elastica'
p5626
sS'Beautiful Stranger'
p5627
S'Madonna'
p5628
sS'Rollercoaster'
p5629
S'B*Witched'
p5630
sS'Out Of My Head'
p5631
S'Fastball'
p5632
sS'Southernplayalisticadillacmuzik'
p5633
S'OutKast'
p5634
sS'Wannabe'
p5635
S'Spice Girls'
p5636
sS'Do You Feel Like I Feel?'
p5637
S'Belinda Carlisle'
p5638
sS'Real World'
p5639
S'matchbox 20'
p5640
sS'Be True To Yourself'
p5641
S'2nd II None'
p5642
sS'As Long As I Can Dream'
p5643
S'Expose'
p5644
sS'Cell Therapy'
p5645
S'Goodie Mob.'
p5646
sS'You Can t Get Away'
p5647
S'Shana'
p5648
sS'Giving Him Something He Can Feel'
p5649
S'En Vogue'
p5650
sS'Running Back To You'
p5651
S'Vanessa Williams'
p5652
sS"Shorty (You Keep Playin' With My Mind)"
p5653
S'Imajin Featuring Keith Murray'
p5654
sS'Forever In Your Eyes'
p5655
S'Mint Condition'
p5656
sS'Birmingham'
p5657
S'Amanda Marshall'
p5658
sS'Can t Get Enough'
p5659
S'Patty Loveless'
p5660
sS'Something To Believe In'
p5661
S'Poison'
p5662
sS'Hey Mr. D.J.'
p5663
S'Zhane'
p5664
sS"The Theme (It's Party Time)"
p5665
S'Tracey Lee'
p5666
sS'On A Sunday Afternoon'
p5667
S'Lighter Shade Of Brown'
p5668
sS'Strike It Up'
p5669
S'Black Box'
p5670
sS'Foolish Games/You Were Meant For Me'
p5671
S'Jewel'
p5672
sS'Would I Lie To You?'
p5673
S'Charles'
p5674
sS'Constantly'
p5675
S'Immature'
p5676
sS'Miss You Much'
p5677
S'Janet Jackson'
p5678
sS'Never A Time'
p5679
S'Genesis'
p5680
sS'I Don t Want To Lose Your Love'
p5681
S'B Angie B'
p5682
sS'Incarcerated Scarfaces/Ice Cream'
p5683
S'Raekwon'
p5684
sS'I Wanna Be Your Girl'
p5685
S'Icy Blu'
p5686
sS'Havana'
p5687
S'Kenny G'
p5688
sS'Comin  On Strong'
p5689
S'Sudden Change'
p5690
sS'Call It Poison'
p5691
S'The Escape Club'
p5692
sS'Cleopatra s Cat'
p5693
S'Spin Doctors'
p5694
sS"Can't Knock The Hustle"
p5695
S'Jay-Z'
p5696
sS'Get With U'
p5697
S'Lidell Townsell'
p5698
sS'You re Easy On The Eyes'
p5699
S'Terri Clark'
p5700
sS'1st Of Tha Month'
p5701
S'Bone Thugs-N-Harmony'
p5702
sS'Something Got Me Started'
p5703
S'Simply Red'
p5704
sS'Pretty Girl'
p5705
S'Jon B'
p5706
sS'We Can t Go Wrong'
p5707
S'The Cover Girls'
p5708
sS'Loungin'
p5709
S'LL Cool J'
p5710
sS'1-2-3'
p5711
S'The Chimes'
p5712
sS'On '
p5713
S'Erykah Badu'
p5714
sS'Please Forgive Me'
p5715
S'Bryan Adams'
p5716
sS'Nothing Broken But My Heart'
p5717
S'Celine Dion'
p5718
sS'First True Love'
p5719
S'Tiana'
p5720
sS'Rise To It'
p5721
S'Kiss'
p5722
sS'I Wanna Get Next To You'
p5723
S'Christion'
p5724
sS'Your Loving Arms'
p5725
S'Billie Ray Martin'
p5726
sS'Friends'
p5727
S'John Michael Montgomery'
p5728
sS'Get Together'
p5729
S'Big Mountain'
p5730
sS'Don t Walk Away'
p5731
S'Jade'
p5732
sS'Sweet Sensual Love'
p5733
S'Big Mountain'
p5734
sS'What\'s Love Got To Do With It (From "Supercop")'
p5735
S'Warren G Featuring Adina Howard'
p5736
sS'The Sound Of My Tears'
p5737
S'Deborah Cox'
p5738
sS'Paparazzi'
p5739
S'Xzibit'
p5740
sS'Come Over To My Place'
p5741
S'Davina'
p5742
sS'I ve Been Thinking About You'
p5743
S'Jocelyn Enriquez'
p5744
sS"Please Don't Go"
p5745
S'No Mercy'
p5746
sS'It Ain t Hard To Tell'
p5747
S'NAS'
p5748
sS'Guilty (From "Seven")'
p5749
S'Gravity Kills'
p5750
sS'Owwww!'
p5751
S'Chunky A'
p5752
sS'Missing You'
p5753
S'Brooks'
p5754
sS'The Arms Of Orion'
p5755
S'Prince (With Sheena Easton)'
p5756
sS'The Unforgiven'
p5757
S'Metallica'
p5758
sS'L-L-Lies'
p5759
S'Diana King'
p5760
sS'Power Of Love/Love Power'
p5761
S'Luther Vandross'
p5762
sS'Deadly Zone'
p5763
S'Bounty Killer Featuring Mobb Deep'
p5764
sS'Deeper'
p5765
S'Boss'
p5766
sS'Never, Never Gonna Give You Up'
p5767
S'Lisa Stansfield'
p5768
sS'Money Ain t A Thang'
p5769
S'JD Featuring Jay-Z'
p5770
sS'Never Lie'
p5771
S'Immature'
p5772
sS'You Said'
p5773
S'Mona Lisa'
p5774
sS'The One'
p5775
S'Elton John'
p5776
sS'One'
p5777
S'Creed'
p5778
sS'Warm It Up'
p5779
S'Kris Kross'
p5780
sS'Macarena'
p5781
S'Los Del Rio'
p5782
sS'Blame It On The Rain'
p5783
S'Milli Vanilli'
p5784
sS'Hello L.O.V.E.'
p5785
S'John Michael Montgomery'
p5786
sS'I Saw Red'
p5787
S'Warrant'
p5788
sS'Why Can t You Come Home'
p5789
S'Ex-Girlfriend'
p5790
sS'Hey Leonardo (She Likes Me For Me)'
p5791
S'Blessid Union Of Souls'
p5792
sS'Suavemente'
p5793
S'Elvis Crespo'
p5794
sS'Thuggish Ruggish Bone'
p5795
S'Bone Thugs-N-Harmony'
p5796
sS'My Own Worst Enemy'
p5797
S'Lit'
p5798
sS'Secret Garden'
p5799
S'Bruce Springsteen'
p5800
sS'It Never Rains (In Southern California)'
p5801
S'Tony Toni Tone'
p5802
sS'Supernatural'
p5803
S'Wild Orchid'
p5804
sS'Waiting For Wednesday'
p5805
S'Lisa Loeb & Nine Stories'
p5806
sS'Rhythm Is A Dancer'
p5807
S'Snap'
p5808
sS'The Sweetest Days'
p5809
S'Vanessa Williams'
p5810
sS'Every Little Thing I Do'
p5811
S'Soul For Real'
p5812
sS'Living In Sin'
p5813
S'Bon Jovi'
p5814
sS'Things ll Never Change/Rapper s Ball'
p5815
S'E-40 Featuring Bo-Rock'
p5816
sS'Back To The Hotel'
p5817
S'N2Deep'
p5818
sS'Any Time, Any Place/And On And On'
p5819
S'Janet Jackson'
p5820
sS'Stupid Girl'
p5821
S'Garbage'
p5822
sS"Somethin' 4 Da Honeyz"
p5823
S'Montell Jordan'
p5824
sS'Fast As You'
p5825
S'Dwight Yoakam'
p5826
sS'Both Sides Of The Story'
p5827
S'Phil Collins'
p5828
sS'When A Woman s Fed Up'
p5829
S'R. Kelly'
p5830
sS'Sweet November'
p5831
S'Troop'
p5832
sS'2 Legit 2 Quit'
p5833
S'M.C. Hammer'
p5834
sS'Understand This Groove'
p5835
S'Sound Factory'
p5836
sS'The Chemicals Between Us'
p5837
S'Bush'
p5838
sS'I Won t Give Up On You'
p5839
S'TKA'
p5840
sS'Quality Time'
p5841
S'Hi-Five'
p5842
sS"Mary Jane's Last Dance"
p5843
S'Tom Petty And The Heartbreakers'
p5844
sS'Fly (The Angel Song)'
p5845
S'The Wilkinsons'
p5846
sS'Miami'
p5847
S'Will Smith'
p5848
sS'Pictures Of You'
p5849
S'The Cure'
p5850
sS'Loser'
p5851
S'Beck'
p5852
sS'The Freshmen'
p5853
S'The Verve Pipe'
p5854
sS'The Most Beautiful Girl In The World'
p5855
S'Prince'
p5856
sS'Steamy Windows'
p5857
S'Tina Turner'
p5858
sS'Can t Stop Falling Into Love'
p5859
S'Cheap Trick'
p5860
sS'Already Missing You'
p5861
S'Gerald Levert & Eddie Levert, Sr.'
p5862
sS'Mother'
p5863
S'Danzig'
p5864
sS'Pickup Man'
p5865
S'Joe Diffie'
p5866
sS"That's What Love Is For"
p5867
S'Amy Grant'
p5868
sS'Glaciers Of Ice/Criminology'
p5869
S'Chef Raekwon'
p5870
sS'I Wanna Rock'
p5871
S'Luke'
p5872
sS'Sweet Potatoe Pie'
p5873
S'Domino'
p5874
sS'Don t Let The Sun Go Down On Me'
p5875
S'George Michael/Elton John'
p5876
sS'I Believe In You And Me (From "The Preacher\'s Wife")'
p5877
S'Whitney Houston'
p5878
sS'Feels Good'
p5879
S'Tony Toni Tone'
p5880
sS'Love Me Just For Me'
p5881
S'Special Generation'
p5882
sS'The Street Mix'
p5883
S'Mag 7'
p5884
sS'Young, Sad And Blue'
p5885
S'Lysette'
p5886
sS'Lookin  At Me'
p5887
S'Mase Featuring Puff Daddy'
p5888
sS'I Wanna Get With U'
p5889
S'Guy'
p5890
sS'The Way It Is'
p5891
S'Tesla'
p5892
sS'Whenever You Come Around'
p5893
S'Vince Gill'
p5894
sS"Nothing 'Bout Me"
p5895
S'Sting'
p5896
sS'Good Heart'
p5897
S'Starship'
p5898
sS'I Wanna Get Back With You'
p5899
S'Louie Louie'
p5900
sS'I Miss You'
p5901
S'N II U'
p5902
sS'I Still Love You'
p5903
S'Next'
p5904
sS'Big Gun (From "Last Action Hero")'
p5905
S'AC/DC'
p5906
sS'Livin  On The Edge'
p5907
S'Aerosmith'
p5908
sS'Come Back To Me'
p5909
S'Janet Jackson'
p5910
sS'A Mover La Colita'
p5911
S'Artie The 1 Man Party'
p5912
sS'It s All About U'
p5913
S'SWV'
p5914
sS'Where I Wanna Be Boy'
p5915
S'Missjones'
p5916
sS'Sin So Well'
p5917
S'Rebekah'
p5918
sS"Somebody's Crying"
p5919
S'Chris Isaak'
p5920
sS'Come Undone'
p5921
S'Duran Duran'
p5922
sS'U Send Me Swingin '
p5923
S'Mint Condition'
p5924
sS'Tell Me What You Want Me To Do'
p5925
S'Tevin Campbell'
p5926
sS'Got Me Waiting'
p5927
S'Heavy D'
p5928
sS'Just The Way (Playas Play)'
p5929
S'Alfonzo Hunter'
p5930
sS'I Love The Way You Love Me'
p5931
S'John Michael Montgomery'
p5932
sS'Silver Thunderbird'
p5933
S'Marc Cohn'
p5934
sS'Jump Around'
p5935
S'House Of Pain'
p5936
sS"What's Stopping You"
p5937
S"The O'Jays"
p5938
sS'Baby'
p5939
S'Brandy'
p5940
sS'Games People Play'
p5941
S'Inner Circle'
p5942
sS'What You Give'
p5943
S'Tesla'
p5944
sS'Really Doe'
p5945
S'Ice Cube'
p5946
sS'Better Than You'
p5947
S'Lisa Keith'
p5948
sS'Without Love'
p5949
S'Donna Lewis'
p5950
sS"Don't Want To Be A Fool"
p5951
S'Luther Vandross'
p5952
sS'Barrel Of A Gun'
p5953
S'Depeche Mode'
p5954
sS"There's Your Trouble"
p5955
S'Dixie Chicks'
p5956
sS"The Cup Of Life (The Official Song Of The World Cup, France '98)"
p5957
S'Ricky Martin'
p5958
sS'(Meet) The Flintstones (From "The Flintstones")'
p5959
S'The B.C. 52 s'
p5960
sS'You Don t Know Nothin '
p5961
S'For Real'
p5962
sS'Feed The Tree'
p5963
S'Belly'
p5964
sS'Heaven Knows'
p5965
S'Luther Vandross'
p5966
sS'I Wanna B With U'
p5967
S'Fun Factory'
p5968
sS'Here We Go Again'
p5969
S'Aretha Franklin'
p5970
sS'Misled'
p5971
S'Celine Dion'
p5972
sS'Fall Down'
p5973
S'Toad The Wet Sprocket'
p5974
sS'Please Don t Go'
p5975
S'No Mercy'
p5976
sS"Release Yo' Delf"
p5977
S'Method Man'
p5978
sS'Found Out About You'
p5979
S'Gin Blossoms'
p5980
sS'Let Me Know'
p5981
S'Cam Ron'
p5982
sS'Objects In The Rear View Mirror May Appear Closer Than...'
p5983
S'Meat Loaf'
p5984
sS"People Don't Believe"
p5985
S'Scarface Feat. Ice Cube'
p5986
sS"It's The Things You Do"
p5987
S'Five'
p5988
sS'We Will Rock You/We Are The Champions'
p5989
S'Queen'
p5990
sS'You Lied To Me'
p5991
S'Cathy Dennis'
p5992
sS'The Party Continues'
p5993
S'JD Featuring Da Brat'
p5994
sS'Jump'
p5995
S'Kris Kross'
p5996
sS'Banned In The U.S.A.'
p5997
S'Luke Featuring The 2 Live Crew'
p5998
sS'I ll Give All My Love To You'
p5999
S'Keith Sweat'
p6000
sS'You Mean The World To Me'
p6001
S'Toni Braxton'
p6002
sS'Street Of Dreams'
p6003
S'Nia Peeples'
p6004
sS'Top Of The World'
p6005
S'Van Halen'
p6006
sS'Wild Wild West'
p6007
S'Will Smith Featuring Dru Hill'
p6008
sS'Baby You Know'
p6009
S"The O'Jays"
p6010
sS'When You Love A Woman'
p6011
S'Journey'
p6012
sS'Back That Thang Up'
p6013
S"Juvenile Featuring Mannie Fresh & Lil' Wayne"
p6014
sS'Love II Love'
p6015
S'Damage'
p6016
sS'So Anxious'
p6017
S'Ginuwine'
p6018
sS'Hip Hop Ride'
p6019
S'Da Youngsta s'
p6020
sS'The Way You Do The Things You Do'
p6021
S'UB40'
p6022
sS'I Miss You (Come Back Home) (From "New York Undercover")'
p6023
S'Monifah'
p6024
sS'Raise The Roof'
p6025
S'Luke Featuring No Good But So Good'
p6026
sS'Money s Just A Touch Away'
p6027
S'Mack 10 Featuring Gerald Levert'
p6028
sS'Just A Little Bit Longer'
p6029
S'Maxi Priest'
p6030
sS'Fields Of Gray'
p6031
S'Bruce Hornsby'
p6032
sS'King Nothing'
p6033
S'Metallica'
p6034
sS'Love You All My Lifetime'
p6035
S'Chaka Khan'
p6036
sS'360 Degrees (What Goes Around)'
p6037
S'Grand Puba'
p6038
sS'Everything About You'
p6039
S'Ugly Kid Joe'
p6040
sS'How  Bout Us (From "True Love")'
p6041
S'Grayson Hugh'
p6042
sS"Love The One You're With/Going In Circles"
p6043
S'Luther Vandross'
p6044
sS'It Hit Me Like A Hammer'
p6045
S'Huey Lewis'
p6046
sS'So Many Ways (From "High School High")'
p6047
S'The Braxtons'
p6048
sS'She s Gone (Lady)'
p6049
S'Steelheart'
p6050
sS'That Thing You Do! (From "That Thing You Do!")'
p6051
S'The Wonders'
p6052
sS'Something In My Heart'
p6053
S'Michel le'
p6054
sS'It s All Good'
p6055
S'M.C. Hammer'
p6056
sS'If You Had My Love'
p6057
S'Jennifer Lopez'
p6058
sS'I Like'
p6059
S'Kut Klose'
p6060
sS'Picture Postcards From L.A.'
p6061
S'Joshua Kadison'
p6062
sS'There She Goes'
p6063
S'Sixpence None The Richer'
p6064
sS'Where Do We Go From Here (From "Eraser")'
p6065
S'Vanessa Williams'
p6066
sS'Can t Forget You'
p6067
S'Gloria Estefan'
p6068
sS'Digging In The Dirt'
p6069
S'Peter Gabriel'
p6070
sS'Joey'
p6071
S'Concrete Blonde'
p6072
sS'The Deeper The Love'
p6073
S'Whitesnake'
p6074
sS'Down With The King'
p6075
S'Run-D.M.C.'
p6076
sS'Good Ol  Days'
p6077
S'Levert'
p6078
sS'What Ya Want'
p6079
S'EVE'
p6080
sS'Still A G Thang'
p6081
S'Snoop Dogg'
p6082
sS'Regulate (From "Above The Rim")'
p6083
S'Warren G'
p6084
sS'Up & Down'
p6085
S'Billy Lawrence'
p6086
sS'Ray Of Light'
p6087
S'Madonna'
p6088
sS'On My Own'
p6089
S'Peach Union'
p6090
sS'Pump Up The Jam'
p6091
S'Technotronic'
p6092
sS'I Love You'
p6093
S'Martina McBride'
p6094
sS'No More Lies'
p6095
S'Michel le'
p6096
sS'Sympathy For The Devil ("Interview With The Vampire")'
p6097
S"Guns N' Roses"
p6098
sS'Until It Sleeps'
p6099
S'Metallica'
p6100
sS'Dirty Love'
p6101
S'Thunder'
p6102
sS'Really Into You'
p6103
S'Around The Way'
p6104
sS'One More Chance/Stay With Me'
p6105
S'The Notorious B.I.G.'
p6106
sS'Take A Bow'
p6107
S'Madonna'
p6108
sS'The Power'
p6109
S'Snap'
p6110
sS'Love Of A Lifetime'
p6111
S'Firehouse'
p6112
sS'Angel Of Mine'
p6113
S'Monica'
p6114
sS'The Best Things In Life Are Free'
p6115
S'Luther Vandross And Janet Jackson'
p6116
sS'Funk Dat/Why Is It?'
p6117
S'Sagat'
p6118
sS'The Dream Is Still Alive'
p6119
S'Wilson Phillips'
p6120
sS'We Trying To Stay Alive'
p6121
S'Wyclef Jean Featuring Refugee Allstars'
p6122
sS'Very Special'
p6123
S'Big Daddy Kane Feat. Spinderella, L. Williams & K. Anderson'
p6124
sS'Hurricane'
p6125
S'The Click'
p6126
sS'Love Is Strong'
p6127
S'The Rolling Stones'
p6128
sS'My Love Is A Fire'
p6129
S'Donny Osmond'
p6130
sS'One Boy, One Girl'
p6131
S'Collin Raye'
p6132
sS'Lollipop (Candyman)'
p6133
S'Aqua'
p6134
sS'Can t Get You Out Of My Mind'
p6135
S'Lil Suzy'
p6136
sS'Try A Little Tenderness'
p6137
S'The Commitments'
p6138
sS'Wanna Dance'
p6139
S'Yasmin'
p6140
sS'Nobody Does It Better'
p6141
S'Nate Dogg Featuring Warren G'
p6142
sS'Love Gets Me Every Time'
p6143
S'Shania Twain'
p6144
sS"I'm Afraid Of Americans"
p6145
S'David Bowie'
p6146
sS'For You'
p6147
S'Kenny Lattimore'
p6148
sS'I m Alright'
p6149
S'Jo Dee Messina'
p6150
sS'Out Of Sight (YO)'
p6151
S'Rufus Blaq'
p6152
sS'Tick Tock'
p6153
S'Vaughan Brothers'
p6154
sS'Secret'
p6155
S'Madonna'
p6156
sS'If You Needed Somebody'
p6157
S'Bad Company'
p6158
sS'O.P.P.'
p6159
S'Naughty By Nature'
p6160
sS'Here It Comes'
p6161
S'MC Serch'
p6162
sS"Say You'll Stay"
p6163
S'KAI'
p6164
sS'Strong Enough'
p6165
S'Cher'
p6166
sS'Flex'
p6167
S'Mad Cobra'
p6168
sS'Take It Back'
p6169
S'Pink Floyd'
p6170
sS'Power Of Love'
p6171
S'Deee-Lite'
p6172
sS"You're Makin' Me High/Let It Flow"
p6173
S'Toni Braxton'
p6174
sS'I Don t Want To/I Love Me Some Him'
p6175
S'Toni Braxton'
p6176
sS'From This Moment On'
p6177
S'Shania Twain'
p6178
sS'Tennessee'
p6179
S'Arrested Development'
p6180
sS'Does Anybody Really Fall In Love Anymore?'
p6181
S'Kane Roberts'
p6182
sS'Fast Life'
p6183
S'Kool G Rap'
p6184
sS'DJ Girl'
p6185
S'Katalina'
p6186
sS'(Can t Live Without Your) Love And Affection'
p6187
S'Nelson'
p6188
sS'Colour Of Love'
p6189
S'Amber'
p6190
sS'Rhythm Of Love'
p6191
S'DJ Company'
p6192
sS'Love Me All Up'
p6193
S'Stacy Earl'
p6194
sS'Slow And Easy'
p6195
S'Zapp'
p6196
sS'Get Money'
p6197
S'Junior M.A.F.I.A. Featuring The Notorious B.I.G.'
p6198
sS'A Girl Like You (From "Empire Records")'
p6199
S'Edwyn Collins'
p6200
sS'In These Arms'
p6201
S'Bon Jovi'
p6202
sS'Juicy/Unbelievable'
p6203
S'The Notorious B.I.G.'
p6204
sS'You Don t Love Me (No, No, No)'
p6205
S'Dawn Penn'
p6206
sS'Too Much Information'
p6207
S'Duran Duran'
p6208
sS'Whateva Man'
p6209
S'Redman'
p6210
sS'Foe Life'
p6211
S'Mack 10'
p6212
sS'Daysleeper'
p6213
S'R.E.M.'
p6214
sS'Papa z Song'
p6215
S'2Pac Duet With Mopreme'
p6216
sS'...Baby One More Time'
p6217
S'Britney Spears'
p6218
sS'Gett Off'
p6219
S'Prince And The N.P.G.'
p6220
sS'(I Know I Got) Skillz'
p6221
S'Shaquille O Neal'
p6222
sS'Twilight Zone'
p6223
S'2 Unlimited'
p6224
sS'Freakit'
p6225
S'Das EFX'
p6226
sS'High'
p6227
S'The Cure'
p6228
sS'500 Miles'
p6229
S'Hooters'
p6230
sS'Blessed'
p6231
S'Elton John'
p6232
sS"We've Got It Goin' On"
p6233
S'Backstreet Boys'
p6234
sS'No Doubt About It'
p6235
S'Neal McCoy'
p6236
sS'Everlasting Love'
p6237
S'Gloria Estefan'
p6238
sS'Summer Girls'
p6239
S'LFO'
p6240
sS'Push The Feeling On'
p6241
S'Nightcrawlers'
p6242
sS'How To Dance'
p6243
S'Bingo Boys Featuring Princessa'
p6244
sS'So What cha Want'
p6245
S'Beastie Boys'
p6246
sS'Nicety'
p6247
S'Michel le'
p6248
sS'White Men Can t Jump'
p6249
S'Riff'
p6250
sS'Can You Stop The Rain'
p6251
S'Peabo Bryson'
p6252
sS'Ninety Nine [Flash The Message]'
p6253
S'John Forte'
p6254
sS'No Pigeons'
p6255
S'Sporty Thievz Featuring Mr. Woods'
p6256
sS'Dear Mama/Old School'
p6257
S'2Pac'
p6258
sS'Faded Pictures'
p6259
S'Case'
p6260
sS'Nuttin  But Love'
p6261
S'Heavy D'
p6262
sS"Heaven's What I Feel"
p6263
S'Gloria Estefan'
p6264
sS'I ll Be'
p6265
S'Edwin McCain'
p6266
sS'Rock My World (Little Country Girl)'
p6267
S'Brooks'
p6268
sS'Do Not Pass Me By'
p6269
S'M.C. Hammer'
p6270
sS'Cry For You'
p6271
S'Jodeci'
p6272
sS'Opposites Attract'
p6273
S'Paula Abdul (Duet With The Wild Pair)'
p6274
sS'All I Want'
p6275
S'Susanna Hoffs'
p6276
sS'Give Me One Reason'
p6277
S'Tracy Chapman'
p6278
sS'I m Not In Love'
p6279
S'Will To Power'
p6280
sS'1-Luv'
p6281
S'E-40 (Featuring Leviti)'
p6282
sS'Good Times'
p6283
S'Edie Brickell'
p6284
sS'Iesha'
p6285
S'Another Bad Creation'
p6286
sS'Word Is Bond'
p6287
S'Brand Nubian'
p6288
sS'Miles Away'
p6289
S'Winger'
p6290
sS'Here s Your Sign (Get The Picture)'
p6291
S'Bill Engvall With Special Guest Travis Tritt'
p6292
sS'Motownphilly'
p6293
S'Boyz II Men'
p6294
sS'Stranded'
p6295
S'Heart'
p6296
sS'Not The Only One'
p6297
S'Bonnie Raitt'
p6298
sS'Love Makes Things Happen'
p6299
S'Pebbles'
p6300
sS'How High (From "The Show")'
p6301
S'Redman/Method Man'
p6302
sS'Serious Kinda Girl'
p6303
S'Christopher Max'
p6304
sS'Another You, Another Me'
p6305
S'Brady Seals'
p6306
sS'Move It Like This'
p6307
S'K7'
p6308
sS'The Day That She Left Tulsa (In A Chevy)'
p6309
S'Wade Hayes'
p6310
sS'I Ain t Havin  That'
p6311
S'Heltah Skeltah Featuring Starang Wondah Of O.G.C.'
p6312
sS'Will You Be There (In The Morning)'
p6313
S'Heart'
p6314
sS'The World I Know'
p6315
S'Collective Soul'
p6316
sS'What s The Frequency, Kenneth?'
p6317
S'R.E.M.'
p6318
sS'Hungah'
p6319
S'Karyn White'
p6320
sS"Can't Stop This Thing We Started"
p6321
S'Bryan Adams'
p6322
sS'Feel The Funk (From "Dangerous Minds")'
p6323
S'Immature'
p6324
sS'Bust A Move'
p6325
S'Young MC'
p6326
sS'Electric Barbarella'
p6327
S'Duran Duran'
p6328
sS'I Finally Found Someone (From "The Mirror Has Two Faces")'
p6329
S'Barbra Streisand & Bryan Adams'
p6330
sS'Now That I Found You'
p6331
S'Terri Clark'
p6332
sS'Bohemian Rhapsody (From "High School High")'
p6333
S'The Braids'
p6334
sS'It Doesn t Matter'
p6335
S'Tyler Collins'
p6336
sS'Enjoy The Silence'
p6337
S'Depeche Mode'
p6338
sS'So Many Tears'
p6339
S'2Pac'
p6340
sS'All You ve Got'
p6341
S'RTZ'
p6342
sS'Everything Falls Apart/Small Wonders'
p6343
S"dog's eye view"
p6344
sS'Get It Wet'
p6345
S'Twista'
p6346
sS'Where Does My Heart Beat Now'
p6347
S'Celine Dion'
p6348
sS'Whutcha Want?'
p6349
S'Nine'
p6350
sS'Un-Break My Heart'
p6351
S'Toni Braxton'
p6352
sS'Passion'
p6353
S'K5'
p6354
sS'Whatcha Wanna Do?'
p6355
S'Mia X Featuring Charlie Wilson'
p6356
sS'3-2-1 Pump'
p6357
S'Redhead Kingpin'
p6358
sS'Larger Than Life'
p6359
S'Backstreet Boys'
p6360
sS'Keepin  Up'
p6361
S'Alabama'
p6362
sS'Wishes (From "Kazaam")'
p6363
S'Nathan Morris'
p6364
sS'Falling To Pieces'
p6365
S'Faith No More'
p6366
sS'Father'
p6367
S'LL Cool J'
p6368
sS'Do You Miss Me'
p6369
S'Jocelyn Enriquez'
p6370
sS'Good'
p6371
S'Better Than Ezra'
p6372
sS"We're Not Making Love No More"
p6373
S'Dru Hill'
p6374
sS'When I Fall In Love (From "Sleepless In Seattle")'
p6375
S'Celine Dion And Clive Griffin'
p6376
sS'Mr. Loverman (From "Deep Cover")'
p6377
S'Shabba Ranks'
p6378
sS'A Day In My Life (Without You)'
p6379
S'Lisette Melendez'
p6380
sS'That s Not Her Style'
p6381
S'Billy Joel'
p6382
sS"It's All About Me"
p6383
S'Mya & Sisqo'
p6384
sS'All N My Grill'
p6385
S'Missy "Misdemeanor" Elliott Featuring Big Boi'
p6386
sS'A Thin Line Between Love & Hate (From "A Thin Line...")'
p6387
S'H-Town'
p6388
sS'Boom Bye Yae'
p6389
S'Reiss Featuring Special Guest Michie Mee'
p6390
sS'I Should Be Laughing'
p6391
S'Patty Smyth'
p6392
sS'Higher'
p6393
S'Creed'
p6394
sS'Fading Like A Flower (Every Time You Leave)'
p6395
S'Roxette'
p6396
sS'Runaway Love'
p6397
S'Johnny O'
p6398
sS'Smack My Bitch Up'
p6399
S'Prodigy'
p6400
sS'Elevators (Me & You)'
p6401
S'OutKast'
p6402
sS"Player's Anthem"
p6403
S'Junior M.A.F.I.A.'
p6404
sS'Downtown Venus'
p6405
S'P.M. Dawn'
p6406
sS'4, 5, 6'
p6407
S'Sole Featuring JT Money & Kandi'
p6408
sS'Practice What You Preach'
p6409
S'Barry White'
p6410
sS'Gitty Up'
p6411
S'Salt-N-Pepa'
p6412
sS'Send My Love/Send One Your Love'
p6413
S'Born Jamericans'
p6414
sS'Tryin  To Get Over You'
p6415
S'Vince Gill'
p6416
sS"Don't Say"
p6417
S'Jon B'
p6418
sS'Freedom (From "Panther")'
p6419
S'Various Artists'
p6420
sS'Money Don t Matter 2 Night'
p6421
S'Prince And The N.P.G.'
p6422
sS'Don t You Come Cryin '
p6423
S'Linear'
p6424
sS'Barely Breathing'
p6425
S'Duncan Sheik'
p6426
sS'Crazy Love (From "Jason\'s Lyric")'
p6427
S'Brian McKnight'
p6428
sS'Keep It Comin '
p6429
S'Keith Sweat'
p6430
sS'Return Of The Mack'
p6431
S'Mark Morrison'
p6432
sS'C U When U Get There (From "Nothing To Lose")'
p6433
S'Coolio Featuring 40 Thevz'
p6434
sS'Strange Currencies'
p6435
S'R.E.M.'
p6436
sS'Give It Up, Turn It Loose'
p6437
S'En Vogue'
p6438
sS'Rush Rush'
p6439
S'Paula Abdul'
p6440
sS'If Wishes Came True'
p6441
S'Sweet Sensation'
p6442
sS'Stay (Faraway, So Close!)'
p6443
S'U2'
p6444
sS'None Of Ur Friends Business'
p6445
S'Ginuwine'
p6446
sS"I'll Make Love To You"
p6447
S'Boyz II Men'
p6448
sS'Delicious'
p6449
S'Pure Sugar'
p6450
sS"I Can't Sleep Baby (If I)"
p6451
S'R. Kelly'
p6452
sS'I Should Cheat On You'
p6453
S'J Son'
p6454
sS'Let Me Clear My Throat'
p6455
S'DJ Kool'
p6456
sS'Feel The Groove'
p6457
S'Cartouche'
p6458
sS'Dreamer'
p6459
S"Livin' Joy"
p6460
sS'Do You Want Me'
p6461
S'Salt-N-Pepa'
p6462
sS'You Gotta Be'
p6463
S"Des'ree"
p6464
sS'Friend Of Mine'
p6465
S'Kelly Price'
p6466
sS'Who Am I'
p6467
S'Beenie Man'
p6468
sS'Sexy MF'
p6469
S'Prince And The N.P.G.'
p6470
sS'Come On'
p6471
S'Billy Lawrence Featuring MC Lyte'
p6472
sS'Lily Was Here'
p6473
S'David A. Stewart Introducing Candy Dulfer'
p6474
sS'Dream About You/Funky Melody'
p6475
S'Stevie B'
p6476
sS'Just Another Dream'
p6477
S'Cathy Dennis'
p6478
sS'In A Dream'
p6479
S'Rockell'
p6480
sS'Finally'
p6481
S'CeCe Peniston'
p6482
sS'All Alone On Christmas (From "Home Alone 2")'
p6483
S'Darlene Love'
p6484
sS'Low'
p6485
S'Cracker'
p6486
sS'Tell Me What You Dream'
p6487
S'Restless Heart Featuring Warren Hill'
p6488
sS'I ll Be Your Shelter'
p6489
S'Taylor Dayne'
p6490
sS'I Wanna Love You (From "Class Act")'
p6491
S'Jade'
p6492
sS'Boom Shak A-Tack'
p6493
S'Born Jamericans'
p6494
sS'Love At First Sight'
p6495
S'Styx'
p6496
sS'How About That'
p6497
S'Bad Company'
p6498
sS'Don t Know Much'
p6499
S'Linda Ronstadt (Featuring Aaron Neville)'
p6500
sS'Mint Car'
p6501
S'The Cure'
p6502
sS'No One Else On Earth'
p6503
S'Wynonna'
p6504
sS'In The Hood'
p6505
S'Donell Jones'
p6506
sS'Don t Stop Movin '
p6507
S'Livin  Joy'
p6508
sS'C Mon And Get My Love'
p6509
S'D-Mob With Cathy Dennis'
p6510
sS'Captain Save A Hoe'
p6511
S'E-40'
p6512
sS'Stroke You Up'
p6513
S'Changing Faces'
p6514
sS'One On One'
p6515
S'To Be Continued...'
p6516
sS'They Reminisce Over You (T.R.O.Y.)'
p6517
S'Pete Rock'
p6518
sS'Bow Wow Wow'
p6519
S'Funkdoobiest'
p6520
sS'You Must Love Me (From "Evita")'
p6521
S'Madonna'
p6522
sS'Two To Make It Right'
p6523
S'Seduction'
p6524
sS'Look Into My Eyes (From "Batman & Robin")'
p6525
S'Bone Thugs-N-Harmony'
p6526
sS'No Sunshine'
p6527
S'Kid Frost'
p6528
sS'Then The Morning Comes'
p6529
S'Smash Mouth'
p6530
sS'Tearin  Up My Heart'
p6531
S'N Sync'
p6532
sS'Treat  Em Right'
p6533
S'Chubb Rock'
p6534
sS'Hot Boyz'
p6535
S'Missy "Misdemeanor" Elliott Featuring NAS, EVE & Q-Tip'
p6536
sS'Ooh Aah... Just A Little Bit'
p6537
S'Gina G'
p6538
sS'Just Tah Let U Know'
p6539
S'Eazy-E'
p6540
sS'Moving On Up'
p6541
S'M People'
p6542
sS"Cleopatra's Theme"
p6543
S'Cleopatra'
p6544
sS'My Heart Is Failing Me'
p6545
S'Riff'
p6546
sS'Silent Prayer'
p6547
S'Shanice'
p6548
sS'Talk To Me'
p6549
S'Wild Orchid'
p6550
sS'If You Think I m Jiggy'
p6551
S'The Lox'
p6552
sS'Human Touch/Better Days'
p6553
S'Bruce Springsteen'
p6554
sS'Bill'
p6555
S'Peggy Scott-Adams'
p6556
sS'None Of Your Business'
p6557
S'Salt-N-Pepa'
p6558
sS'Angels Would Fall'
p6559
S'Melissa Etheridge'
p6560
sS'Groove Thang'
p6561
S'Zhane'
p6562
sS'I Remember You'
p6563
S'Skid Row'
p6564
sS'I See Your Smile'
p6565
S'Gloria Estefan'
p6566
sS'Given To Fly'
p6567
S'Pearl Jam'
p6568
sS'Bump N  Grind'
p6569
S'R. Kelly'
p6570
sS'You'
p6571
S'Jesse Powell'
p6572
sS'Fool For Your Loving'
p6573
S'Whitesnake'
p6574
sS'Sweet Lullaby'
p6575
S'Deep Forest'
p6576
sS'Love Shack'
p6577
S'The B-52 s'
p6578
sS'I ll Be Your Everything'
p6579
S'Youngstown'
p6580
sS'After 12, Before 6'
p6581
S'Sam Salter'
p6582
sS'Lithium'
p6583
S'Nirvana'
p6584
sS'It s Gonna Be A Lovely Day'
p6585
S'The S.O.U.L. S.Y.S.T.E.M.'
p6586
sS'Jigga What...'
p6587
S'Jay-Z Featuring Big Jaz'
p6588
sS'Sweet Dreams'
p6589
S'La Bouche'
p6590
sS'Your Love Keeps Working On Me'
p6591
S'Jody Watley'
p6592
sS'Something To Talk About'
p6593
S'Bonnie Raitt'
p6594
sS'Turn It Up [Remix]/Fire It Up'
p6595
S'Busta Rhymes'
p6596
sS'She Talks To Angels'
p6597
S'The Black Crowes'
p6598
sS'Wicked Game'
p6599
S'Chris Isaak'
p6600
sS'Sometimes She Cries'
p6601
S'Warrant'
p6602
sS'All That She Wants'
p6603
S'Ace Of Base'
p6604
sS'How Bad Do You Want It?'
p6605
S'Don Henley'
p6606
sS"Money Ain't A Thang"
p6607
S'JD Featuring Jay-Z'
p6608
sS"I'll Be There For You/You're All I Need To Get By"
p6609
S'Method Man Featuring Mary J. Blige'
p6610
sS'Waiting For Tonight'
p6611
S'Jennifer Lopez'
p6612
sS'Inside Out'
p6613
S'Eve 6'
p6614
sS'He Can t Love U'
p6615
S'Jagged Edge'
p6616
sS'Back Seat (Of My Jeep)'
p6617
S'LL Cool J'
p6618
sS'I Got Id/Long Road'
p6619
S'Pearl Jam'
p6620
sS'Till You Love Me'
p6621
S'Reba McEntire'
p6622
sS'Hungry'
p6623
S'Lita Ford'
p6624
sS'If I Never Stop Loving You'
p6625
S'David Kersh'
p6626
sS'5-4-3-2 (Yo! Time Is Up)'
p6627
S'Jade'
p6628
sS'You Won t See Me Cry'
p6629
S'Wilson Phillips'
p6630
sS'Big Big World'
p6631
S'Emilia'
p6632
sS'Light In Your Eyes'
p6633
S'Blessid Union Of Souls'
p6634
sS'Shorty (You Keep Playin  With My Mind)'
p6635
S'Imajin Featuring Keith Murray'
p6636
sS'The Ghetto'
p6637
S'Too Short'
p6638
sS'Wild Women Do (From "Pretty Woman")'
p6639
S'Natalie Cole'
p6640
sS'I m Free'
p6641
S'Jon Secada'
p6642
sS'Doll Parts'
p6643
S'Hole'
p6644
sS'Anyone Else'
p6645
S'Collin Raye'
p6646
sS'Colors Of The Wind (From "Pocahontas")'
p6647
S'Vanessa Williams'
p6648
sS'Set Me Free'
p6649
S'Clubland Featuring Zemya Hamilton'
p6650
sS'The Morning Papers'
p6651
S'Prince And The New Power Generation'
p6652
sS"Say You'll Be There"
p6653
S'Spice Girls'
p6654
sS'Show Me The Way'
p6655
S'Styx'
p6656
sS'Primal Scream'
p6657
S'Motley Crue'
p6658
sS'Stand By Me'
p6659
S'4 The Cause'
p6660
sS'Fantasy'
p6661
S'Mariah Carey'
p6662
sS'Silent All These Years'
p6663
S'Tori Amos'
p6664
sS'Hooked On You'
p6665
S'Silk'
p6666
sS'The Secret Garden'
p6667
S'Quincy Jones'
p6668
sS'I Need Your Love'
p6669
S'Boston'
p6670
sS'I Like It, I Love It'
p6671
S'Tim McGraw'
p6672
sS'Cumbersome'
p6673
S'Seven Mary Three'
p6674
sS'I m A Player'
p6675
S'Too Short'
p6676
sS'How Forever Feels'
p6677
S'Kenny Chesney'
p6678
sS'Faithful'
p6679
S'Go West'
p6680
sS'Two Steps Behind (From "Last Action Hero")'
p6681
S'Def Leppard'
p6682
sS'What s On Tonight'
p6683
S'Montell Jordan'
p6684
sS'Who You Are'
p6685
S'Pearl Jam'
p6686
sS'93  Til Infinity'
p6687
S'Souls Of Mischief'
p6688
sS'Return Of The Crooklyn Dodgers (From "Clockers")'
p6689
S"Crooklyn Dodgers '95"
p6690
sS'I Wonder If Heaven Got A Ghetto'
p6691
S'2Pac'
p6692
sS'Just Like Jesse James'
p6693
S'Cher'
p6694
sS'Dazzey Duks'
p6695
S'Duice'
p6696
sS'Let Me Return The Favor'
p6697
S'Andrea Martin'
p6698
sS'By The Time This Night Is Over'
p6699
S'Kenny G With Peabo Bryson'
p6700
sS'The Right Kinda Lover'
p6701
S'Patti LaBelle'
p6702
sS'I m Gonna Get You'
p6703
S'Bizarre Inc'
p6704
sS'Simon Says'
p6705
S'Pharoahe Monch'
p6706
sS'Cruising For Bruising'
p6707
S'Basia'
p6708
sS'Unbelievable'
p6709
S'Diamond Rio'
p6710
sS"You'll Be Mine (Party Time)"
p6711
S'Gloria Estefan'
p6712
sS'Walk On The Ocean'
p6713
S'Toad The Wet Sprocket'
p6714
sS'I Love You/You Bring Me Joy'
p6715
S'Mary J. Blige'
p6716
sS'Glycerine'
p6717
S'Bush'
p6718
sS'Everyday & Everynight'
p6719
S'Yvette Michele'
p6720
sS'Rescue Me'
p6721
S'Madonna'
p6722
sS'Shelter Me'
p6723
S'Cinderella'
p6724
sS'Thank U'
p6725
S'Alanis Morissette'
p6726
sS'For A Little While'
p6727
S'Tim McGraw'
p6728
sS'Lightning Does The Work'
p6729
S'Chad Brock'
p6730
sS'Don t Say You Love Me'
p6731
S'M2M'
p6732
sS'Everything You Want'
p6733
S'Ray J'
p6734
sS'Woman In Chains'
p6735
S'Tears For Fears'
p6736
sS'You Could Be Mine'
p6737
S'Guns N  Roses'
p6738
sS'That Don t Impress Me Much'
p6739
S'Shania Twain'
p6740
sS'Hey Now Now'
p6741
S'Swirl 360'
p6742
sS'This House'
p6743
S'Tracie Spencer'
p6744
sS'NAStradamus'
p6745
S'Nas'
p6746
sS'Keep The Faith'
p6747
S'Bon Jovi'
p6748
sS'Before You Walk Out Of My Life/Like This And Like That'
p6749
S'Monica'
p6750
sS"What I Didn't Know"
p6751
S'Athenaeum'
p6752
sS'Love Gets Rough'
p6753
S'Troy Newman'
p6754
sS'Whoot, There It Is'
p6755
S'95 South'
p6756
sS'It s On'
p6757
S'Naughty By Nature'
p6758
sS'Roxanne `97 - Puff Daddy Remix'
p6759
S'Sting & The Police'
p6760
sS'Let s Forget About It'
p6761
S'Lisa Loeb'
p6762
sS'Mega Medley'
p6763
S'Zapp & Roger'
p6764
sS'Timeless Love (From "Shocker")'
p6765
S'Saraya'
p6766
sS'Bug A Boo'
p6767
S"Destiny's Child"
p6768
sS'When Can I See You'
p6769
S'Babyface'
p6770
sS'Diamonds And Pearls'
p6771
S'Prince And The N.P.G.'
p6772
sS'Boom! Shake The Room'
p6773
S'Jazzy Jeff & The Fresh Prince'
p6774
sS'Do For Love'
p6775
S'2Pac Featuring Eric Williams'
p6776
sS'In My Nature'
p6777
S'Nuttin  Nyce'
p6778
sS'Should ve Been A Cowboy'
p6779
S'Toby Keith'
p6780
sS'Always In My Heart'
p6781
S'Tevin Campbell'
p6782
sS'At Your Best (You Are Love)'
p6783
S'Aaliyah'
p6784
sS"That's How It Is (It's Like That)"
p6785
S'Redman Featuring K-Solo'
p6786
sS'Walk In The Sun'
p6787
S'Bruce Hornsby'
p6788
sS'Fulton St.'
p6789
S'Leschea'
p6790
sS'Spending My Time'
p6791
S'Roxette'
p6792
sS'Creep'
p6793
S'TLC'
p6794
sS'Foe Tha Love Of $'
p6795
S'Bone Thugs-N-Harmony Featuring Eazy-E'
p6796
sS'Tic Tic Tac'
p6797
S'Fruit De La Passion'
p6798
sS'Exhale (Shoop Shoop) (From "Waiting To Exhale")'
p6799
S'Whitney Houston'
p6800
sS'Until The End Of Time'
p6801
S'Foreigner'
p6802
sS'I Wanna Make Love To You (From "Innocent Blood")'
p6803
S'Rhythm Syndicate'
p6804
sS'Natural One (From "Kids")'
p6805
S'Folk Implosion'
p6806
sS"Don't Go Away"
p6807
S'Fun Factory'
p6808
sS'Kiss Of Life'
p6809
S'Sade'
p6810
sS'Kitty Kitty'
p6811
S'69 Boyz'
p6812
sS'Informer'
p6813
S'Snow'
p6814
sS'Brooklyn Zoo'
p6815
S"Ol' Dirty Bastard"
p6816
sS"Can't Get You Out Of My Mind"
p6817
S'Lil Suzy'
p6818
sS'Seal Our Fate'
p6819
S'Gloria Estefan'
p6820
sS'Think Of You'
p6821
S'Usher'
p6822
sS"Tell Me (I'll Be Around)"
p6823
S'Shades'
p6824
sS'Can I Touch You...There?'
p6825
S'Michael Bolton'
p6826
sS'Did I Shave My Legs For This?'
p6827
S'Deana Carter'
p6828
sS'In The Closet'
p6829
S'Michael Jackson'
p6830
sS'Killer'
p6831
S'Seal'
p6832
sS"Let's Play House"
p6833
S"Tha Dogg Pound Featuring Michel'le"
p6834
sS'When I See You Smile'
p6835
S'Bad English'
p6836
sS'Purple Medley'
p6837
S'Prince'
p6838
sS'Got A Love For You'
p6839
S'Jomanda'
p6840
sS'Move This'
p6841
S'Technotronic Featuring Ya Kid K'
p6842
sS'The Secret Of Life'
p6843
S'Faith Hill'
p6844
sS"Doin' Time"
p6845
S'Sublime'
p6846
sS'Another Sad Love Song'
p6847
S'Toni Braxton'
p6848
sS'In My Bed'
p6849
S'Dru Hill'
p6850
sS'So Into You'
p6851
S'Tamia'
p6852
sS'I Can Do That'
p6853
S'Montell Jordan'
p6854
sS'Down Low (Nobody Has To Know)'
p6855
S'R. Kelly Featuring Ronald Isley'
p6856
sS'Heaven'
p6857
S'Nu Flavor'
p6858
sS'Booti Call'
p6859
S'BLACKstreet'
p6860
sS'T.L.C.'
p6861
S'Linear'
p6862
sS'Close To Me'
p6863
S'The Cure'
p6864
sS'You Can Make History (Young Again)'
p6865
S'Elton John'
p6866
sS'Don t Shut Me Out'
p6867
S'Kevin Paige'
p6868
sS'The Earth, The Sun, The Rain'
p6869
S'Color Me Badd'
p6870
sS'Hip Hop Hooray'
p6871
S'Naughty By Nature'
p6872
sS'Step By Step (From "The Preacher\'s Wife")'
p6873
S'Whitney Houston'
p6874
sS'Real Hip Hop'
p6875
S'Das EFX'
p6876
sS'Spend My Life With You'
p6877
S'Eric Benet Featuring Tamia'
p6878
sS'Sweet Sexy Thing'
p6879
S'Nu Flavor Featuring Roger'
p6880
sS'Alone'
p6881
S'Bee Gees'
p6882
sS'You Suck'
p6883
S'The Murmurs'
p6884
sS'No Ordinary Love'
p6885
S'Sade'
p6886
sS'It s The Things You Do'
p6887
S'Five'
p6888
sS'Smells Like Teen Spirit'
p6889
S'Nirvana'
p6890
sS'The Girl I Used To Know'
p6891
S'Brother Beyond'
p6892
sS'December'
p6893
S'Collective Soul'
p6894
sS'Joyride'
p6895
S'Roxette'
p6896
sS'All Nite'
p6897
S'Entouch Featuring Keith Sweat'
p6898
sS'Life Goes On'
p6899
S'Poison'
p6900
sS'I Wanna Love You Forever'
p6901
S'Jessica Simpson'
p6902
sS'Oooh This I Need'
p6903
S'Elisa Fiorillo'
p6904
sS'Girlfriend/Boyfriend'
p6905
S'BLACKstreet With Janet'
p6906
sS'Spirit Of A Boy, Wisdom Of A Man'
p6907
S'Randy Travis'
p6908
sS'The Crying Game (From "The Crying Game")'
p6909
S'Boy George'
p6910
sS'Ghetto Love'
p6911
S'Da Brat Featuring T-Boz'
p6912
sS'Supermodel (You Better Work)'
p6913
S'RuPaul'
p6914
sS"She's All I Ever Had"
p6915
S'Ricky Martin'
p6916
sS'She s In Love'
p6917
S'Mark Wills'
p6918
sS'Fly Like An Eagle (From "Space Jam")'
p6919
S'Seal'
p6920
sS'Crimson And Clover'
p6921
S'SF Spanish Fly'
p6922
sS'Not On Your Love'
p6923
S'Jeff Carson'
p6924
sS'Live And Let Die'
p6925
S'Guns N  Roses'
p6926
sS'This Is The Right Time'
p6927
S'Lisa Stansfield'
p6928
sS'I Love Music (From "Carlito\'s Way")'
p6929
S'Rozalla'
p6930
sS'Now You re Gone'
p6931
S'Whitesnake'
p6932
sS'How Can We Be Lovers'
p6933
S'Michael Bolton'
p6934
sS'Club At The End Of The Street'
p6935
S'Elton John'
p6936
sS'I Can Love You Better'
p6937
S'Dixie Chicks'
p6938
sS'Tonight The Heartache s On Me'
p6939
S'Dixie Chicks'
p6940
sS'Touch Me Tease Me (From "The Nutty Professor")'
p6941
S'Case Featuring Foxxy Brown'
p6942
sS'Love Me Or Leave Me Alone'
p6943
S'Brand Nubian'
p6944
sS'When Boy Meets Girl'
p6945
S'Total'
p6946
sS"1, 2, 3, 4 (Sumpin' New)"
p6947
S'Coolio'
p6948
sS'The Mummers  Dance'
p6949
S'Loreena McKennitt'
p6950
sS'I Get Lonely'
p6951
S'Janet Featuring BLACKstreet'
p6952
sS"How's It Going To Be"
p6953
S'Third Eye Blind'
p6954
sS'Hillbilly Shoes'
p6955
S'Montgomery Gentry'
p6956
sS'Got To Get It'
p6957
S'Sisqo Featuring Make It Hot'
p6958
sS'Make Love Like A Man'
p6959
S'Def Leppard'
p6960
sS'Body '
p6961
S'Anita Baker'
p6962
sS'Janie s Got A Gun'
p6963
S'Aerosmith'
p6964
sS'All Things Considered'
p6965
S'Yankee Grey'
p6966
sS'Bomdigi'
p6967
S'Erick Sermon'
p6968
sS'Anniversary'
p6969
S'Tony Toni Tone'
p6970
sS'Do Your Thing'
p6971
S'7 Mile'
p6972
sS'I See It Now'
p6973
S'Tracy Lawrence'
p6974
sS'I m Leaving'
p6975
S'Aaron Tippin'
p6976
sS'Cowboy Take Me Away'
p6977
S'Dixie Chicks'
p6978
sS'You re The Story Of My Life'
p6979
S'Desmond Child'
p6980
sS'You Let Your Heart Go Too Fast'
p6981
S'Spin Doctors'
p6982
sS'Sleeping Satellite'
p6983
S'Tasmin Archer'
p6984
sS'Tonight, Tonight'
p6985
S'The Smashing Pumpkins'
p6986
sS'With Every Beat Of My Heart'
p6987
S'Taylor Dayne'
p6988
sS'Gold'
p6989
S'Prince'
p6990
sS"I Don't Want To Miss A Thing"
p6991
S'Aerosmith'
p6992
sS'My Way'
p6993
S'Usher'
p6994
sS"You're The One"
p6995
S'SWV'
p6996
sS'Prayer For The Dying'
p6997
S'Seal'
p6998
sS'Just Be Straight With Me'
p6999
S'Silkk The Shocker Featuring Master P, Destiny s Child, O Dell, Mo'
p7000
sS'Only Happy When It Rains'
p7001
S'Garbage'
p7002
sS'When She Cries'
p7003
S'Restless Heart'
p7004
sS'Another Night'
p7005
S'Real McCoy'
p7006
sS"I'm Real"
p7007
S'Kris Kross'
p7008
sS'Back To Life'
p7009
S'Soul II Soul'
p7010
sS'Don t Let Go (Love) (From "Set It Off")'
p7011
S'En Vogue'
p7012
sS'Without You/Never Forget You'
p7013
S'Mariah Carey'
p7014
sS'On Bended Knee'
p7015
S'Boyz II Men'
p7016
sS'Fortunate'
p7017
S'Maxwell'
p7018
sS'I Kissed A Girl'
p7019
S'Jill Sobule'
p7020
sS'Girl, You\'ll Be A Woman Soon (From "Pulp Fiction")'
p7021
S'Urge Overkill'
p7022
sS'Dre Day'
p7023
S'Dr. Dre'
p7024
sS'Dancehall Queen (From "Dancehall Queen")'
p7025
S'Beenie Man Featuring Chevelle Franklyn'
p7026
sS'In The Heart Of A Woman'
p7027
S'Billy Ray Cyrus'
p7028
sS'Avenues'
p7029
S'Refugee Camp All Stars Featuring Pras (With Ky-mani)'
p7030
sS'Close To You'
p7031
S'Fun Factory'
p7032
sS'Written All Over Your Face'
p7033
S'The Rude Boys'
p7034
sS'One More Night'
p7035
S'Amber'
p7036
sS'Thinkin  Back'
p7037
S'Color Me Badd'
p7038
sS'Stay The Same'
p7039
S'Joey McIntyre'
p7040
sS'Sunshine'
p7041
S'Coko'
p7042
sS'Yesterday'
p7043
S'Debelah Morgan'
p7044
sS'Remedy'
p7045
S'The Black Crowes'
p7046
sS"When You're Gone/Free To Decide"
p7047
S'The Cranberries'
p7048
sS'Mouth'
p7049
S'Merril Bainbridge'
p7050
sS"Happenin' All Over Again"
p7051
S'Lonnie Gordon'
p7052
sS'In The House Of Stone And Light'
p7053
S'Martin Page'
p7054
sS'Listen To Your Heart'
p7055
S'Roxette'
p7056
sS'Kissing The Wind'
p7057
S'Nia Peeples'
p7058
sS'Don t Close Your Eyes'
p7059
S'Kix'
p7060
sS'Maria'
p7061
S'Blondie'
p7062
sS'Automatic Lover (Call For Love)'
p7063
S'Real McCoy'
p7064
sS'Play My Funk (From "Sugar Hill")'
p7065
S'Simple E'
p7066
sS'A Song For Mama'
p7067
S'Boyz II Men'
p7068
sS'Down So Long'
p7069
S'Jewel'
p7070
sS'November Rain'
p7071
S'Guns N  Roses'
p7072
sS'Let Me Be The One'
p7073
S'Blessid Union Of Souls'
p7074
sS'I Wanna Love Like That'
p7075
S'Tony Thompson'
p7076
sS'It s Not Right But It s Okay'
p7077
S'Whitney Houston'
p7078
sS'What They Do'
p7079
S'The Roots'
p7080
sS'Barbie Girl'
p7081
S'Aqua'
p7082
sS'Right Down To It'
p7083
S'Damian Dame'
p7084
sS'Tha Hop'
p7085
S'Kinsu'
p7086
sS'All Through The Night'
p7087
S'Tone-Loc'
p7088
sS'Hero Of The Day'
p7089
S'Metallica'
p7090
sS'I m Your Angel'
p7091
S'R. Kelly'
p7092
sS'Always Be My Baby'
p7093
S'Mariah Carey'
p7094
sS'Wildside'
p7095
S'Marky Mark'
p7096
sS'Learning To Fly'
p7097
S'Tom Petty And The Heartbreakers'
p7098
sS'Back To The Bullet'
p7099
S'Saraya'
p7100
s.