(dp1
S'Violet Hill'
p2
S'Coldplay'
p3
sS"We Can't Be Friends"
p4
S'Deborah Cox With R.L.'
p5
sS'Christmas Lights'
p6
S'Coldplay'
p7
sS'If Something Should Happen'
p8
S'Darryl Worley'
p9
sS'Dangerously In Love'
p10
S'Beyonce'
p11
sS"Gettin' You Home"
p12
S'Chris Young'
p13
sS'She Is Love'
p14
S'Parachute'
p15
sS'Lolli Lolli (Pop That Body)'
p16
S'Three 6 Mafia Featuring Project Pat, Young D & Superpower'
p17
sS'Shut It Down'
p18
S'Pitbull Featuring Akon'
p19
sS'If I Am'
p20
S'Nine Days'
p21
sS'Girl All The Bad Guys Want'
p22
S'Bowling For Soup'
p23
sS'Give It To Me'
p24
S'Timbaland Featuring Nelly Furtado & Justin Timberlake'
p25
sS'Cupid Shuffle'
p26
S'Cupid'
p27
sS"There You'll Be"
p28
S'Faith Hill'
p29
sS'Moment 4 Life'
p30
S'Nicki Minaj Featuring Drake'
p31
sS'Mad Season'
p32
S'matchbox twenty'
p33
sS'Stickwitu'
p34
S'The Pussycat Dolls'
p35
sS'If You Ever Stop Loving Me'
p36
S'Montgomery Gentry'
p37
sS'Under Pressure'
p38
S'The Used And My Chemical Romance'
p39
sS'God Bless The USA'
p40
S'Lee Greenwood'
p41
sS'Umbrella'
p42
S'Rihanna Featuring Jay-Z'
p43
sS'5 Star'
p44
S'Yo Gotti'
p45
sS'POWER'
p46
S'Kanye West'
p47
sS'Teach Me How To Dougie'
p48
S'Cali Swag District'
p49
sS'Never Leave You - Uh Oooh, Uh Oooh!'
p50
S'Lumidee'
p51
sS'Butterfly Fly Away'
p52
S'Miley Cyrus & Billy Ray Cyrus'
p53
sS'Everybody Wants To Go To Heaven'
p54
S'Kenny Chesney With The Wailers'
p55
sS'Sooner Or Later'
p56
S'Michelle Branch'
p57
sS'Lessons Learned'
p58
S'Tracy Lawrence'
p59
sS'Somewhere Only We Know'
p60
S'Keane'
p61
sS'Nobody But Me'
p62
S'Blake Shelton'
p63
sS'She Bangs'
p64
S'Ricky Martin'
p65
sS'Marry You'
p66
S'Bruno Mars'
p67
sS'Hold Up My Heart'
p68
S'Brooke White'
p69
sS"I'm With You"
p70
S'Avril Lavigne'
p71
sS'Cater 2 U'
p72
S"Destiny's Child"
p73
sS'Forgot About Dre'
p74
S'Dr. Dre Featuring Eminem'
p75
sS'Drowning'
p76
S'Backstreet Boys'
p77
sS'Love The Way You Lie'
p78
S'Eminem Featuring Rihanna'
p79
sS'Dig In'
p80
S'Lenny Kravitz'
p81
sS'Shut Up And Let Me Go'
p82
S'The Ting Tings'
p83
sS'Behind Blue Eyes'
p84
S'Limp Bizkit'
p85
sS'Get By'
p86
S'Talib Kweli'
p87
sS'I Don t Wanna'
p88
S'Aaliyah'
p89
sS"When It's Over"
p90
S'Sugar Ray'
p91
sS'Ms. Jackson'
p92
S'OutKast'
p93
sS'Notice Me'
p94
S'NB Ridaz Featuring Angelina'
p95
sS'Love Me If You Can'
p96
S'Toby Keith'
p97
sS'Real Live Woman'
p98
S'Trisha Yearwood'
p99
sS'Quitame Ese Hombre'
p100
S'Pilar Montenegro'
p101
sS'Steam'
p102
S'Ty Herndon'
p103
sS'Bad Boy This Bad Boy That'
p104
S"Bad Boy's Da Band"
p105
sS"Feels Good (Don't Worry Bout A Thing)"
p106
S'Naughty By Nature Featuring 3LW'
p107
sS'Last Resort'
p108
S'Papa Roach'
p109
sS'4 Ever'
p110
S"Lil' Mo Featuring Fabolous"
p111
sS'Soundtrack To Your Life'
p112
S'Ashley Parker Angel'
p113
sS'Hung Up'
p114
S'Madonna'
p115
sS'Sk8er Boi'
p116
S'Avril Lavigne'
p117
sS'Me Against The Music'
p118
S'Glee Cast'
p119
sS'Bigger'
p120
S'Justin Bieber'
p121
sS'Best Of You'
p122
S'Foo Fighters'
p123
sS'Phantom Limb'
p124
S'The Shins'
p125
sS'Wanted Dead Or Alive'
p126
S'Chris Daughtry'
p127
sS"I Won't Tell"
p128
S'Fat Joe Featuring J. Holiday'
p129
sS'This Everyday Love'
p130
S'Rascal Flatts'
p131
sS'Trust'
p132
S'Keyshia Cole Duet With Monica'
p133
sS'Are You Gonna Be My Girl'
p134
S'Jet'
p135
sS'Come To Me'
p136
S'Diddy Featuring Nicole Scherzinger'
p137
sS'Jigga'
p138
S'Jay-Z'
p139
sS'Where My Girls At?'
p140
S'702'
p141
sS"Pumpin' Up The Party"
p142
S'Hannah Montana'
p143
sS'Nightmare'
p144
S'Avenged Sevenfold'
p145
sS"When I'm Gone"
p146
S'Eminem'
p147
sS'Epiphany'
p148
S'Chrisette Michele'
p149
sS'Overprotected'
p150
S'Britney Spears'
p151
sS'Sneakernight'
p152
S'Vanessa Hudgens'
p153
sS'Good Time'
p154
S'Alan Jackson'
p155
sS'Breaking Free'
p156
S'Zac Efron, Andrew Seeley & Vanessa Anne Hudgens'
p157
sS'Got Ur Self A...'
p158
S'Nas'
p159
sS"Cryin' Like A Bitch"
p160
S'Godsmack'
p161
sS"Livin' It Up"
p162
S'Ja Rule Featuring Case'
p163
sS"Movin' On"
p164
S'Elliott Yamin'
p165
sS'Come In With The Rain'
p166
S'Taylor Swift'
p167
sS'Bouncing Off The Ceiling (Upside Down)'
p168
S'A*Teens'
p169
sS'Twisted Transistor'
p170
S'Korn'
p171
sS'Fireman'
p172
S'Lil Wayne'
p173
sS'He Could Be The One'
p174
S'Hannah Montana'
p175
sS'Wetter (Calling You Daddy)'
p176
S'Twista Featuring Erika Shevon'
p177
sS"Don't Cry For Me Argentina (Lea Michele Version)"
p178
S'Glee Cast'
p179
sS'I Lost It'
p180
S'Kenny Chesney'
p181
sS'Splash Waterfalls'
p182
S'Ludacris'
p183
sS'Crazier'
p184
S'Taylor Swift'
p185
sS'Where Are You Going'
p186
S'Dave Matthews Band'
p187
sS'Presidential'
p188
S'YoungBloodZ'
p189
sS'One Night Stand'
p190
S'J-Shin Featuring LaTocha Scott'
p191
sS'Photograph'
p192
S'Nickelback'
p193
sS'Concrete Angel'
p194
S'Martina McBride'
p195
sS'Drop It Low'
p196
S'Ester Dean Featuring Chris Brown'
p197
sS'Dark Fantasy'
p198
S'Kanye West Featuring Teyana Taylor, Nicki Minaj & Bon Iver'
p199
sS'Dreams Collide'
p200
S'Colbie Caillat'
p201
sS'You Rock My World'
p202
S'Michael Jackson'
p203
sS'Still D.R.E.'
p204
S'Dr. Dre Featuring Snoop Dogg'
p205
sS'Kissin U'
p206
S'Miranda Cosgrove'
p207
sS'I Am'
p208
S'Mary J. Blige'
p209
sS'Addicted'
p210
S'Saving Abel'
p211
sS'Come Over'
p212
S'Aaliyah'
p213
sS'Hell Breaks Loose'
p214
S'Eminem Featuring Dr. Dre'
p215
sS'My Heart Is Lost To You'
p216
S'Brooks & Dunn'
p217
sS'My Band'
p218
S'D12'
p219
sS'Sounds Like Life To Me'
p220
S'Darryl Worley'
p221
sS'Shake That Sh**'
p222
S'Shawnna Featuring Ludacris'
p223
sS'Downfall'
p224
S'TRUSTcompany'
p225
sS'Last Name'
p226
S'Carrie Underwood'
p227
sS'Family Affair'
p228
S'Mary J. Blige'
p229
sS'As We Lay'
p230
S'Kelly Price'
p231
sS'Hush'
p232
S'LL Cool J Featuring 7 Aurelius'
p233
sS"She's All I Got"
p234
S'Jimmy Cozier'
p235
sS'My Immortal'
p236
S'Evanescence'
p237
sS"Couldn't Last A Moment"
p238
S'Collin Raye'
p239
sS'Ten Rounds With Jose Cuervo'
p240
S'Tracy Byrd'
p241
sS'Home'
p242
S'Glee Cast Featuring Kristin Chenoweth'
p243
sS'Aaron s Party (Come Get It)'
p244
S'Aaron Carter'
p245
sS'Chillin'
p246
S'Wale Featuring Lady Gaga'
p247
sS'Cold'
p248
S'Crossfade'
p249
sS'Absolute'
p250
S'The Fray'
p251
sS'Everything To Me'
p252
S'Monica'
p253
sS'DJ Play A Love Song'
p254
S'Jamie Foxx Featuring Twista'
p255
sS'Take Me Out'
p256
S'Franz Ferdinand'
p257
sS'Lighters Up'
p258
S"Lil' Kim"
p259
sS'Youth Of The Nation'
p260
S'P.O.D.'
p261
sS'I Wanna Be With You'
p262
S'Mandy Moore'
p263
sS'Candy Shop'
p264
S'50 Cent Featuring Olivia'
p265
sS'The Way I Am'
p266
S'Ingrid Michaelson'
p267
sS'I Do Not Hook Up'
p268
S'Kelly Clarkson'
p269
sS'Nine In The Afternoon'
p270
S'Panic At The Disco'
p271
sS'Sick'
p272
S'New Hollow'
p273
sS'La Camisa Negra'
p274
S'Juanes'
p275
sS'About You Now'
p276
S'Miranda Cosgrove'
p277
sS'Toca s Miracle'
p278
S'Fragma'
p279
sS'Meanwhile Back At The Ranch'
p280
S'The Clark Family Experience'
p281
sS"I'll Wait For You"
p282
S'Joe Nichols'
p283
sS'Get It On Tonite'
p284
S'Montell Jordan'
p285
sS'One Day At A Time'
p286
S'Tupac With Eminem Featuring The Outlawz'
p287
sS'Start The Commotion'
p288
S'The Wiseguys'
p289
sS'3 Little Words'
p290
S'Nu Flavor'
p291
sS'Back Like That'
p292
S'Ghostface Killah Featuring Ne-Yo'
p293
sS'I Got It From My Mama'
p294
S'will.i.am'
p295
sS'Love In This Club Part II'
p296
S'Usher Featuring Beyonce & Lil Wayne'
p297
sS'Stay'
p298
S'Miley Cyrus'
p299
sS'Hush Hush'
p300
S'The Pussycat Dolls Featuring Nicole Scherzinger'
p301
sS'Rock Your Body'
p302
S'Justin Timberlake'
p303
sS'Mr. Mom'
p304
S'Lonestar'
p305
sS'Stan'
p306
S'Eminem Featuring Dido'
p307
sS'Break The Ice'
p308
S'Britney Spears'
p309
sS"Poppin'"
p310
S'Chris Brown Featuring Jay Biz'
p311
sS"I'm A Slave 4 U"
p312
S'Glee Cast'
p313
sS'The One You Love'
p314
S'Paulina Rubio'
p315
sS'A Little Gasoline'
p316
S'Terri Clark'
p317
sS'Your Love'
p318
S'Nicki Minaj'
p319
sS"Gettin' Over You"
p320
S'David Guetta & Chris Willis Featuring Fergie & LMFAO'
p321
sS'He Wasn t Man Enough'
p322
S'Toni Braxton'
p323
sS'Intuition'
p324
S'Jewel'
p325
sS'Charlie Last Name: Wilson'
p326
S'Charlie Wilson'
p327
sS'Chicken Noodle Soup.'
p328
S'Webstar & Young B Featuring The Voice Of Harlem'
p329
sS'Caramel'
p330
S'City High Featuring Eve'
p331
sS'Call Me'
p332
S'Tweet'
p333
sS"Before It's Too Late (Sam And Mikaela's Theme)"
p334
S'Goo Goo Dolls'
p335
sS'This Is War'
p336
S'Thirty Seconds To Mars'
p337
sS'Crash And Burn'
p338
S'Savage Garden'
p339
sS'You Give Love A Bad Name'
p340
S'Blake Lewis'
p341
sS'The Way I Are'
p342
S'Timbaland Featuring Keri Hilson'
p343
sS'Shake Ya Ass'
p344
S'Mystikal'
p345
sS'L.O.V.E.'
p346
S'Ashlee Simpson'
p347
sS'Crazy'
p348
S'Gnarls Barkley'
p349
sS'Stranger In My House'
p350
S'Tamia'
p351
sS'Ayo Technology'
p352
S'50 Cent Featuring Justin Timberlake & Timbaland'
p353
sS"I Don't Wanna Know"
p354
S'Mario Winans Featuring Enya & P. Diddy'
p355
sS'Oh Yeah!'
p356
S'Big Tymers Featuring Tateeze, Boo & Gotti'
p357
sS'Peaches & Cream'
p358
S'112'
p359
sS'Gots Ta Be'
p360
S'B2K'
p361
sS'Get Over Yourself'
p362
S"Eden's Crush"
p363
sS"Startin' With Me"
p364
S'Jake Owen'
p365
sS"G.R.I.N.D. (Get Ready It's A New Day)"
p366
S'Asher Roth'
p367
sS"Feelin' Way Too Damn Good"
p368
S'Nickelback'
p369
sS'The Chemicals Between Us'
p370
S'Bush'
p371
sS'This Is How We Do'
p372
S'Big Tymers'
p373
sS"I Can't Unlove You"
p374
S'Kenny Rogers'
p375
sS'The Time (Dirty Bit)'
p376
S'The Black Eyed Peas'
p377
sS'Homewrecker'
p378
S'Gretchen Wilson'
p379
sS'Chrome'
p380
S'Trace Adkins'
p381
sS'Would You Go With Me'
p382
S'Josh Turner'
p383
sS'Find A Way'
p384
S'Dwele'
p385
sS'Cowboys Like Us'
p386
S'George Strait'
p387
sS"These Boots Are Made For Walkin'"
p388
S'Jessica Simpson'
p389
sS"Baby, It's Cold Outside"
p390
S'Glee Cast'
p391
sS'Before He Cheats'
p392
S'Carrie Underwood'
p393
sS'Young Forever'
p394
S'Jay-Z + Mr. Hudson'
p395
sS'Like Whoa'
p396
S'Aly & AJ'
p397
sS'There You Are'
p398
S'Martina McBride'
p399
sS'Lost One'
p400
S'Jay-Z Featuring Chrisette Michele'
p401
sS"Rubberneckin'"
p402
S'Elvis Presley'
p403
sS'Somebody Like You'
p404
S'Keith Urban'
p405
sS'Vitamin R (Leading Us Along)'
p406
S'Chevelle'
p407
sS'Inside Your Heaven'
p408
S'Carrie Underwood'
p409
sS'Raining On Sunday'
p410
S'Keith Urban'
p411
sS'Safety Dance'
p412
S'Glee Cast'
p413
sS"Tell Me (What's Goin' On)"
p414
S'Smilez & Southstar'
p415
sS'Swear It Again'
p416
S'Westlife'
p417
sS'Take A Picture'
p418
S'Filter'
p419
sS'Now Or Never'
p420
S'High School Musical 3 Cast'
p421
sS'The Real Slim Shady'
p422
S'Eminem'
p423
sS'Loverboy'
p424
S'Mariah Carey Featuring Cameo'
p425
sS'Pray For You'
p426
S'Jaron And The Long Road To Love'
p427
sS'Between Me And You'
p428
S'Ja Rule Featuring Christina Milian'
p429
sS'Digital Girl'
p430
S'Jamie Foxx Featuring Drake, Kanye West & The-Dream'
p431
sS"This Woman's Work"
p432
S'Maxwell'
p433
sS'Always Strapped'
p434
S'Birdman Featuring Lil Wayne'
p435
sS'Greatest Time Of Year'
p436
S'Aly & AJ'
p437
sS'Whatever It Is'
p438
S'Zac Brown Band'
p439
sS'Gonorrhea'
p440
S'Lil Wayne Featuring Drake'
p441
sS'Top Of The World'
p442
S'The Pussycat Dolls'
p443
sS'My Sacrifice'
p444
S'Creed'
p445
sS'Leave (Get Out)'
p446
S'JoJo'
p447
sS'Just The Way You Are'
p448
S'Bruno Mars'
p449
sS"Why Don't We Fall In Love"
p450
S'Amerie'
p451
sS'Whoknows'
p452
S'Musiq'
p453
sS'Tough'
p454
S'Craig Morgan'
p455
sS'Welcome 2 Detroit'
p456
S'Trick-Trick Featuring Eminem'
p457
sS'Wake Up Call'
p458
S'Maroon 5'
p459
sS'Welcome To The Future'
p460
S'Brad Paisley'
p461
sS'Empire State Of Mind (Part II) Broken Down'
p462
S'Alicia Keys'
p463
sS'Big Deal'
p464
S'LeAnn Rimes'
p465
sS'Come A Little Closer'
p466
S'Dierks Bentley'
p467
sS'Right Thurr'
p468
S'Chingy'
p469
sS'Get Low'
p470
S'Lil Jon & The East Side Boyz Featuring Ying Yang Twins'
p471
sS"Pickin' Wildflowers"
p472
S'Keith Anderson'
p473
sS'Window Shopper'
p474
S'50 Cent'
p475
sS'U Understand'
p476
S'Juvenile'
p477
sS'The Baby'
p478
S'Blake Shelton'
p479
sS'Sick Of Being Lonely'
p480
S'Field Mob'
p481
sS'A Broken Wing'
p482
S'Jordin Sparks'
p483
sS'Endless Love'
p484
S'Glee Cast'
p485
sS'Walk Away'
p486
S'Kelly Clarkson'
p487
sS'Give Me The Light'
p488
S'Sean Paul'
p489
sS'Suga Suga'
p490
S'Baby Bash Featuring Frankie J'
p491
sS'Wind It Up'
p492
S'Gwen Stefani'
p493
sS'The Great Escape'
p494
S'Boys Like Girls'
p495
sS'Deja Vu'
p496
S'3OH!3'
p497
sS'Balla Baby'
p498
S'Chingy'
p499
sS'By The Way'
p500
S'Red Hot Chili Peppers'
p501
sS'Inconsolable'
p502
S'Backstreet Boys'
p503
sS'Slow Motion'
p504
S'Juvenile Featuring Soulja Slim'
p505
sS'Hot Revolver'
p506
S'Lil Wayne'
p507
sS'Hero'
p508
S'Christopher Wilde'
p509
sS'Start A Band'
p510
S'Brad Paisley Duet With Keith Urban'
p511
sS'I Can Transform Ya'
p512
S'Chris Brown Featuring Lil Wayne & Swizz Beatz'
p513
sS'American Honey'
p514
S'Lady Antebellum'
p515
sS'Most Girls'
p516
S'Pink'
p517
sS'Here'
p518
S'Rascal Flatts'
p519
sS"Travelin' Soldier"
p520
S'Dixie Chicks'
p521
sS'Fatty Girl'
p522
S'Ludacris, LL Cool J & Keith Murray'
p523
sS'Lips Of An Angel'
p524
S'Jack Ingram'
p525
sS'Loca'
p526
S'Shakira Featuring El Cata or Dizzee Rascal'
p527
sS'Underneath Your Clothes'
p528
S'Shakira'
p529
sS'In My Life'
p530
S'Juvenile Featuring Mannie Fresh'
p531
sS'This Is My Now'
p532
S'Jordin Sparks'
p533
sS'Mercy'
p534
S'Duffy'
p535
sS'Hey Baby (Drop It To The Floor)'
p536
S'Pitbull Featuring T-Pain'
p537
sS"What's A Guy Gotta Do"
p538
S'Joe Nichols'
p539
sS'Survivor'
p540
S"Destiny's Child"
p541
sS'Do It'
p542
S'Nelly Furtado'
p543
sS"Where Are We Runnin'?"
p544
S'Lenny Kravitz'
p545
sS'How You Remind Me'
p546
S'Nickelback'
p547
sS"Cryin' For Me (Wayman's Song)"
p548
S'Toby Keith'
p549
sS'Coffee Shop'
p550
S'Yung Joc Featuring Gorilla Zoe'
p551
sS'Solitaire'
p552
S'Clay Aiken'
p553
sS'Show Me The Money'
p554
S'Petey Pablo'
p555
sS'One Step At A Time'
p556
S'Jordin Sparks'
p557
sS'She Misses Him'
p558
S'Tim Rushlow'
p559
sS'Papa Can You Hear Me?'
p560
S'Glee Cast'
p561
sS'Control'
p562
S'Puddle Of Mudd'
p563
sS'Someday'
p564
S'Rob Thomas'
p565
sS'Dem Boyz'
p566
S'Boyz N Da Hood'
p567
sS'Here It Goes Again'
p568
S'OK Go'
p569
sS"Billy's Got His Beer Goggles On"
p570
S'Neal McCoy'
p571
sS'Sorry, Blame It On Me'
p572
S'Akon'
p573
sS'Please Excuse My Hands'
p574
S'Plies Featuring Jamie Foxx & The-Dream'
p575
sS'Purple Hills'
p576
S'D12'
p577
sS'Left, Right, Left'
p578
S'Drama'
p579
sS'Holler Back'
p580
S'The Lost Trailers'
p581
sS'Teardrops On My Guitar'
p582
S'Taylor Swift'
p583
sS'Rock Star'
p584
S'Hannah Montana'
p585
sS'Stars'
p586
S'Switchfoot'
p587
sS"I'm Me"
p588
S'Lil Wayne'
p589
sS'Paranoid'
p590
S'Jonas Brothers'
p591
sS'Miss California'
p592
S'Dante Thomas Featuring Pras'
p593
sS'Winner'
p594
S'Jamie Foxx Featuring Justin Timberlake & T .I.'
p595
sS'Beth'
p596
S'Glee Cast'
p597
sS"You'll Always Be Loved By Me"
p598
S'Brooks & Dunn'
p599
sS'Famous In A Small Town'
p600
S'Miranda Lambert'
p601
sS'Cyclone'
p602
S'Baby Bash Featuring T-Pain'
p603
sS'First Dance'
p604
S'Justin Bieber Featuring Usher'
p605
sS'Hollaback Girl'
p606
S'Gwen Stefani'
p607
sS'Girls Dem Sugar'
p608
S'Beenie Man Featuring Mya'
p609
sS'Pop Bottles'
p610
S'Birdman Featuring Lil Wayne'
p611
sS'How To Save A Life'
p612
S'The Fray'
p613
sS'Steve McQueen'
p614
S'Sheryl Crow'
p615
sS'The Ghost Of You'
p616
S'My Chemical Romance'
p617
sS'Hurt'
p618
S'Christina Aguilera'
p619
sS'Man To Man'
p620
S'Gary Allan'
p621
sS"A Feelin' Like That"
p622
S'Gary Allan'
p623
sS'Everywhere'
p624
S'Michelle Branch'
p625
sS'Waking Up In Vegas'
p626
S'Katy Perry'
p627
sS"Let's Ride"
p628
S'The Game'
p629
sS'The Kill (Bury Me)'
p630
S'30 Seconds To Mars'
p631
sS'Emotional Rollercoaster'
p632
S'Vivian Green'
p633
sS'Wild At Heart'
p634
S'Gloriana'
p635
sS'Yeah Yeah U Know It'
p636
S'Keith Murray Featuring Def Squad'
p637
sS'Welcome To Atlanta'
p638
S'Jermaine Dupri & Ludacris'
p639
sS'No One'
p640
S'Alicia Keys'
p641
sS'Crowded'
p642
S'Jeannie Ortega Featuring Papoose'
p643
sS'I Wish'
p644
S'Jo Dee Messina'
p645
sS'Turn Off The Light'
p646
S'Nelly Furtado'
p647
sS'Scars'
p648
S'Papa Roach'
p649
sS"Blowin' Me Up (With Her Love)"
p650
S'JC Chasez'
p651
sS'Just Dance'
p652
S"Lady Gaga Featuring Colby O'Donis"
p653
sS'Girls Lie Too'
p654
S'Terri Clark'
p655
sS'Every Day'
p656
S'Rascal Flatts'
p657
sS'Change Me'
p658
S'Ruben Studdard'
p659
sS'She Will Be Loved'
p660
S'Maroon5'
p661
sS'Enough Cryin'
p662
S'Mary J. Blige Featuring Brook-Lyn'
p663
sS'Break Your Heart'
p664
S'Taio Cruz Featuring Ludacris'
p665
sS'You Be Killin Em'
p666
S'Fabolous'
p667
sS"Ridin'"
p668
S'Chamillionaire Featuring Krayzie Bone'
p669
sS'My Friends Over You'
p670
S'New Found Glory'
p671
sS'Beat It'
p672
S'Fall Out Boy Featuring John Mayer'
p673
sS'This Love'
p674
S'Maroon5'
p675
sS"God's Will"
p676
S'Martina McBride'
p677
sS"I'm A Believer"
p678
S'Smash Mouth'
p679
sS'Beautiful Liar'
p680
S'Beyonce & Shakira'
p681
sS'Praying For Time'
p682
S'Carrie Underwood'
p683
sS'Shackles (Praise You)'
p684
S'Mary Mary'
p685
sS'Left '
p686
S'D Angelo Featuring Method Man And Redman'
p687
sS'Original Prankster'
p688
S'The Offspring'
p689
sS'Human'
p690
S'The Killers'
p691
sS'Uprising'
p692
S'Muse'
p693
sS'Girlfriend'
p694
S'Bow Wow & Omarion'
p695
sS'Looking For You'
p696
S'Kirk Franklin'
p697
sS'West Side Story'
p698
S'LFO'
p699
sS'Troublemaker'
p700
S'Akon & Sweet Rush'
p701
sS'Labios Compartidos'
p702
S'Mana'
p703
sS'Me And My Gang'
p704
S'Rascal Flatts'
p705
sS'There Goes My Baby'
p706
S'Usher'
p707
sS"Won't Back Down"
p708
S'Eminem Featuring Pink'
p709
sS'Get The Party Started'
p710
S'Pink'
p711
sS'Morning After Dark'
p712
S'Timbaland Featuring Nelly Furtado & SoShy'
p713
sS"Nothin 'Bout Love Makes Sense"
p714
S'LeAnn Rimes'
p715
sS'American Boy'
p716
S'Estelle Featuring Kanye West'
p717
sS'(You Drive Me) Crazy'
p718
S'Britney Spears'
p719
sS'Breaking The Habit'
p720
S'Linkin Park'
p721
sS'Love Of A Woman'
p722
S'Travis Tritt'
p723
sS'High Maintenance Woman'
p724
S'Toby Keith'
p725
sS'More Than That'
p726
S'Backstreet Boys'
p727
sS'Mamacita'
p728
S'Public Announcement'
p729
sS"Fallin'"
p730
S'Alicia Keys'
p731
sS'Ch-Check It Out'
p732
S'Beastie Boys'
p733
sS'The Way I Live'
p734
S'Baby Boy Da Prince Featuring Lil Boosie'
p735
sS"That's What You Get"
p736
S'Paramore'
p737
sS'Fearless'
p738
S'Taylor Swift'
p739
sS'What Goes Around...Comes Around'
p740
S'Justin Timberlake'
p741
sS'If Nobody Believed In You'
p742
S'Joe Nichols'
p743
sS'Get It Shawty'
p744
S'Lloyd'
p745
sS'Welcome To My Life'
p746
S'Simple Plan'
p747
sS'I Go Back'
p748
S'Kenny Chesney'
p749
sS"What's Left Of Me"
p750
S'Nick Lachey'
p751
sS"Can't Let Go"
p752
S'Anthony Hamilton'
p753
sS'All-American Girl'
p754
S'Carrie Underwood'
p755
sS'The Only Exception'
p756
S'Paramore'
p757
sS'I Will Be'
p758
S'Leona Lewis'
p759
sS'Girls, Girls, Girls'
p760
S'Jay-Z'
p761
sS'I Know'
p762
S'Sunday'
p763
sS"I'll Walk"
p764
S'Bucky Covington'
p765
sS'Boulevard Of Broken Dreams'
p766
S'Green Day'
p767
sS"Can't Deny It"
p768
S'Fabolous Featuring Nate Dogg'
p769
sS'Try Again'
p770
S'Aaliyah'
p771
sS'All Because Of You'
p772
S'Marques Houston Featuring Young Rome'
p773
sS'Step Daddy'
p774
S'Hitman Sammy Sam'
p775
sS"Sgt. Pepper's Lonely Hearts Club Band"
p776
S'Paul McCartney With U2'
p777
sS'For All Time'
p778
S'Soluna'
p779
sS'Do U Wanna Roll (Dolittle Theme)'
p780
S"R.L., Snoop Dogg & Lil' Kim"
p781
sS'Stick To The Status Quo'
p782
S'High School Musical Cast'
p783
sS'I Like It'
p784
S'Enrique Iglesias Featuring Pitbull'
p785
sS'Nada Es Para Siempre'
p786
S'Luis Fonsi'
p787
sS'Game Over (Flip)'
p788
S"Lil' Flip"
p789
sS'Like Glue'
p790
S'Sean Paul'
p791
sS'Maybe This Time'
p792
S'Glee Cast'
p793
sS'Another Dumb Blonde'
p794
S'Hoku'
p795
sS'Shine On'
p796
S'Ryan Cabrera'
p797
sS'Hurry Home'
p798
S'Jason Michael Carroll'
p799
sS'I Love My B****'
p800
S'Busta Rhymes Featuring will.i.am & Kelis'
p801
sS'Gigolo'
p802
S'Nick Cannon Featuring R. Kelly'
p803
sS'Last Of A Dying Breed'
p804
S'Ludacris Co-Starring Lil Wayne'
p805
sS'Somebody To Love'
p806
S'Justin Bieber Featuring Usher'
p807
sS'Sweetest Girl (Dollar Bill)'
p808
S'Wyclef Jean Featuring Akon, Lil Wayne & Niia'
p809
sS'The Real Thing'
p810
S'Bo Bice'
p811
sS'Chicken Fried'
p812
S'Zac Brown Band'
p813
sS'Panic Switch'
p814
S'Silversun Pickups'
p815
sS'Every Other Time'
p816
S'LFO'
p817
sS'The Red'
p818
S'Chevelle'
p819
sS'Morris Brown'
p820
S'OutKast Featuring Scar & Sleepy Brown'
p821
sS'My President'
p822
S'Young Jeezy Featuring Nas'
p823
sS"Shuttin' Detroit Down"
p824
S'John Rich'
p825
sS'Baby I Love U'
p826
S'Jennifer Lopez'
p827
sS'Can I Have This Dance'
p828
S'Zac Efron & Vanessa Hudgens'
p829
sS'Gal Yuh Ah Lead'
p830
S'T.O.K.'
p831
sS'Size Matters (Someday)'
p832
S'Joe Nichols'
p833
sS'Could It Be'
p834
S'Jaheim'
p835
sS'Dream On'
p836
S'Glee Cast Featuring Neil Patrick Harris'
p837
sS'Working Class Hero'
p838
S'Green Day'
p839
sS"Let's Get Dirty (I Can't Get In Da Club)"
p840
S'Redman Featuring DJ Kool'
p841
sS'Mine'
p842
S'Taylor Swift'
p843
sS'Decode'
p844
S'Paramore'
p845
sS'On A Night Like This'
p846
S'Trick Pony'
p847
sS'Just Like You'
p848
S'Hannah Montana'
p849
sS'Something Special'
p850
S'Colbie Caillat'
p851
sS'F.U.R.B.'
p852
S'Frankee'
p853
sS'Fade'
p854
S'Staind'
p855
sS'Playa Cardz Right'
p856
S'Keyshia Cole Featuring 2Pac'
p857
sS'Angels'
p858
S'David Archuleta'
p859
sS'Unbroken'
p860
S'Tim McGraw'
p861
sS'Then'
p862
S'Brad Paisley'
p863
sS'Love You Out Loud'
p864
S'Rascal Flatts'
p865
sS'Remember The Name'
p866
S'Fort Minor Featuring Styles Of Beyond'
p867
sS'Up On The Ridge'
p868
S'Dierks Bentley'
p869
sS'My Little Girl'
p870
S'Tim McGraw'
p871
sS"Nothin' Better To Do"
p872
S'LeAnn Rimes'
p873
sS'Desert Rose'
p874
S'Sting Featuring Cheb Mami'
p875
sS'Viva La Vida'
p876
S'Coldplay'
p877
sS'Do It Well'
p878
S'Jennifer Lopez'
p879
sS'Hot & Wet'
p880
S'112 Featuring Ludacris'
p881
sS'What You Know'
p882
S'T.I.'
p883
sS'Couldn t Last A Moment'
p884
S'Collin Raye'
p885
sS'A Few Questions'
p886
S'Clay Walker'
p887
sS'Gallery'
p888
S'Mario Vazquez'
p889
sS'I Like The Way She Do It'
p890
S'G Unit'
p891
sS"Don't Stop The Music"
p892
S'Rihanna'
p893
sS'Stolen'
p894
S'Dashboard Confessional'
p895
sS"I Don't Need A Man"
p896
S'The Pussycat Dolls'
p897
sS'Our Song'
p898
S'Taylor Swift'
p899
sS'Untitled (How Does It Feel)'
p900
S'D Angelo'
p901
sS'Push It'
p902
S'Rick Ross'
p903
sS'Ride Wit U'
p904
S'Joe Featuring G-Unit'
p905
sS'Good Morning Beautiful'
p906
S'Steve Holy'
p907
sS"Game's Pain"
p908
S'The Game Featuring Keyshia Cole'
p909
sS'Made You Look'
p910
S'Nas'
p911
sS'Thinking Of You'
p912
S'Katy Perry'
p913
sS'I Know You Want Me (Calle Ocho)'
p914
S'Pitbull'
p915
sS'The Big Bang'
p916
S'RockMafia'
p917
sS'Another Nine Minutes'
p918
S'Yankee Grey'
p919
sS'Be Yourself'
p920
S'Audioslave'
p921
sS'Encore'
p922
S'Eminem Featuring Dr. Dre & 50 Cent'
p923
sS'Holidae In'
p924
S'Chingy Featuring Ludacris & Snoop Dogg'
p925
sS'Magic Stick'
p926
S"Lil' Kim Featuring 50 Cent"
p927
sS'I Do (Wanna Get Close To You)'
p928
S'3LW Featuring P. Diddy & Loon'
p929
sS'So Cold'
p930
S'Breaking Benjamin'
p931
sS"I'll Be Waiting"
p932
S'Lenny Kravitz'
p933
sS"U Don't Know Me"
p934
S'T.I.'
p935
sS'Suspicions'
p936
S'Tim McGraw'
p937
sS'All Falls Down'
p938
S'Kanye West Featuring Syleena Johnson'
p939
sS"I Don't Care"
p940
S'Apocalyptica Featuring Adam Gontier'
p941
sS'Starstrukk'
p942
S'3OH!3 Featuring Katy Perry'
p943
sS"I Won't Let Go"
p944
S'Rascal Flatts'
p945
sS'Lose Control'
p946
S'Missy Elliott Featuring Ciara & Fat Man Scoop'
p947
sS'You Look Good In My Shirt'
p948
S'Keith Urban'
p949
sS'Got Beef'
p950
S'Snoop Dogg Presents Tha Eastsidaz Featuring Jayo Felony And Blaqthoven'
p951
sS'Bow Wow (That s My Name)'
p952
S'Lil Bow Wow'
p953
sS'Trying To Find Atlantis'
p954
S"Jamie O'Neal"
p955
sS'Flavor Of The Weak'
p956
S'American Hi-Fi'
p957
sS'Get Busy'
p958
S'Sean Paul'
p959
sS'Rise Above This'
p960
S'Seether'
p961
sS"I'm Really Hot"
p962
S'Missy Elliott'
p963
sS'Crush Tonight'
p964
S'Fat Joe Featuring Ginuwine'
p965
sS'The Space Between'
p966
S'Dave Matthews Band'
p967
sS'Say OK'
p968
S'Vanessa Hudgens'
p969
sS'Take It Off'
p970
S'Ke$ha'
p971
sS'Stay The Night'
p972
S'IMx'
p973
sS"What's Wrong With Them"
p974
S'Lil Wayne Featuring Nicki Minaj'
p975
sS'The Voice Within'
p976
S'Christina Aguilera'
p977
sS'Set It Off'
p978
S'Juvenile'
p979
sS'Paradise'
p980
S'LL Cool J Featuring Amerie'
p981
sS'4 In The Morning'
p982
S'Gwen Stefani'
p983
sS'Waiting For The End'
p984
S'Linkin Park'
p985
sS'Some Beach'
p986
S'Blake Shelton'
p987
sS'Objection (Tango)'
p988
S'Shakira'
p989
sS'Que Hiciste'
p990
S'Jennifer Lopez'
p991
sS'Right Thru Me'
p992
S'Nicki Minaj'
p993
sS"Playa's Only"
p994
S'R. Kelly Featuring The Game'
p995
sS'Beautiful Love'
p996
S'The Afters'
p997
sS'Music Is My Hot Hot Sex'
p998
S'CSS'
p999
sS'Because Of You'
p1000
S'Reba McEntire Duet With Kelly Clarkson'
p1001
sS'Free'
p1002
S'Zac Brown Band'
p1003
sS'When You Lie Next To Me'
p1004
S'Kellie Coffey'
p1005
sS'Hot Mess'
p1006
S'Cobra Starship'
p1007
sS'Whip My Hair'
p1008
S'Willow'
p1009
sS'If You re Gone'
p1010
S'matchbox twenty'
p1011
sS'La Bomba'
p1012
S'Azul Azul'
p1013
sS'In The Kitchen'
p1014
S'R. Kelly'
p1015
sS'Shake My'
p1016
S'Three 6 Mafia Featuring Kalenna'
p1017
sS'Black And Yellow'
p1018
S'Wiz Khalifa'
p1019
sS"What's It Like"
p1020
S'Jagged Edge'
p1021
sS'YAHHH!'
p1022
S"Soulja Boy Tell'em Featuring Arab"
p1023
sS'Waiting On The World To Change'
p1024
S'John Mayer'
p1025
sS'Over It'
p1026
S'Katharine McPhee'
p1027
sS'X'
S'Xzibit'
p1028
sS'www.memory'
p1029
S'Alan Jackson'
p1030
sS'A Different World'
p1031
S'Bucky Covington'
p1032
sS'Make Her Say'
p1033
S'Kid Cudi Featuring Kanye West & Common'
p1034
sS'Pocketful Of Sunshine'
p1035
S'Natasha Bedingfield'
p1036
sS"Break 'Em Off"
p1037
S"Paul Wall Featuring Lil' KeKe"
p1038
sS'Over'
p1039
S'Drake'
p1040
sS'Goodbye For Now'
p1041
S'P.O.D.'
p1042
sS'Johnny & June'
p1043
S'Heidi Newfield'
p1044
sS'Her Diamonds'
p1045
S'Rob Thomas'
p1046
sS'Clocks'
p1047
S'Coldplay'
p1048
sS'Mockingbird'
p1049
S'Rob Thomas'
p1050
sS'I Tried'
p1051
S'Bone Thugs-N-Harmony Featuring Akon'
p1052
sS"I'm So Hood"
p1053
S'DJ Khaled Featuring T-Pain, Trick Daddy, Rick Ross & Plies'
p1054
sS'If You Don t Wanna Love Me'
p1055
S'Tamar'
p1056
sS'Like You'
p1057
S'Bow Wow Featuring Ciara'
p1058
sS'Do You Want To'
p1059
S'Franz Ferdinand'
p1060
sS"Betcha Can't Do It Like Me"
p1061
S'D4L'
p1062
sS'Your Man'
p1063
S'Josh Turner'
p1064
sS'Lay Me Down'
p1065
S'The Dirty Heads Featuring Rome'
p1066
sS"If You're Reading This"
p1067
S'Tim McGraw'
p1068
sS'We Need A Resolution'
p1069
S'Aaliyah Featuring Timbaland'
p1070
sS'Perdidos'
p1071
S'Monchy & Alexandra'
p1072
sS'Shake Ya Tailfeather'
p1073
S'Nelly, P. Diddy & Murphy Lee'
p1074
sS'Who Dat'
p1075
S'J. Cole'
p1076
sS'Stop And Stare'
p1077
S'OneRepublic'
p1078
sS'LoveStoned'
p1079
S'Justin Timberlake'
p1080
sS'Come Clean'
p1081
S'Hilary Duff'
p1082
sS'Sex Room'
p1083
S'Ludacris Featuring Trey Songz'
p1084
sS'Hot Boyz'
p1085
S'Missy "Misdemeanor" Elliott Featuring NAS, EVE'
p1086
sS'Run'
p1087
S'George Strait'
p1088
sS'In Those Jeans'
p1089
S'Ginuwine'
p1090
sS'Grenade'
p1091
S'Bruno Mars'
p1092
sS'Water'
p1093
S'Brad Paisley'
p1094
sS'Unpretty'
p1095
S'TLC'
p1096
sS'Take It To Da House'
p1097
S'Trick Daddy Featuring The SNS Express'
p1098
sS'My Love Goes On And On'
p1099
S'Chris Cagle'
p1100
sS'Around The World (La La La La La)'
p1101
S'ATC'
p1102
sS'Not Like The Movies'
p1103
S'Katy Perry'
p1104
sS'Mighty "O"'
p1105
S'OutKast'
p1106
sS"Life's What You Make It"
p1107
S'Hannah Montana'
p1108
sS"Bouncin' Back (Bumpin' Me Against The Wall)"
p1109
S'Mystikal'
p1110
sS'Love You More'
p1111
S'Ginuwine'
p1112
sS"If It's Lovin' That You Want"
p1113
S'Rihanna'
p1114
sS'Same Script, Different Cast'
p1115
S'Whitney Houston'
p1116
sS'A Year Without Rain'
p1117
S'Selena Gomez & The Scene'
p1118
sS'Favorite Girl'
p1119
S'Justin Bieber'
p1120
sS'Lean Back'
p1121
S'Terror Squad'
p1122
sS'One In Every Crowd'
p1123
S'Montgomery Gentry'
p1124
sS'And Then What'
p1125
S'Young Jeezy Featuring Mannie Fresh'
p1126
sS"Makin' Good Love"
p1127
S'Avant'
p1128
sS'Somewhere I Belong'
p1129
S'Linkin Park'
p1130
sS"That's How Country Boys Roll"
p1131
S'Billy Currington'
p1132
sS'Chances'
p1133
S'Five For Fighting'
p1134
sS'Sensual Seduction'
p1135
S'Snoop Dogg'
p1136
sS'Blessed'
p1137
S'Martina McBride'
p1138
sS'He Loves U Not'
p1139
S'Dream'
p1140
sS"I Don't Want You To Go"
p1141
S'Carolyn Dawn Johnson'
p1142
sS'Show Me What You Got'
p1143
S'Jay-Z'
p1144
sS'I Want To Know What Love Is'
p1145
S'Mariah Carey'
p1146
sS'Witch Doctor (2007)'
p1147
S'Alvin And The Chipmunks Featuring Chris Classic'
p1148
sS'Got Some Teeth'
p1149
S'Obie Trice'
p1150
sS'Life Is A Highway'
p1151
S'Rascal Flatts'
p1152
sS"Goin' Crazy"
p1153
S'Natalie'
p1154
sS'If You Can Do Anything Else'
p1155
S'George Strait'
p1156
sS'Guilty Until Proven Innocent'
p1157
S'Jay-Z Featuring R. Kelly'
p1158
sS'One Last Breath'
p1159
S'Creed'
p1160
sS'Caught Out There'
p1161
S'Kelis'
p1162
sS'What I Do'
p1163
S'Chris Brown Featuring Plies'
p1164
sS'Closer'
p1165
S'Ne-Yo'
p1166
sS'Tha Block Is Hot'
p1167
S'Lil  Wayne Featuring Juvenile'
p1168
sS'Errtime'
p1169
S'Nelly Featuring Jung Tru & King Jacob'
p1170
sS'I Like That'
p1171
S'Houston Featuring Chingy, Nate Dogg & I-20'
p1172
sS'Bad Romance'
p1173
S'Lady Gaga'
p1174
sS"Swag Surfin'"
p1175
S'F.L.Y. (Fast Life Yungstaz)'
p1176
sS'Suffocate'
p1177
S'J. Holiday'
p1178
sS'All I Have'
p1179
S'Jennifer Lopez Featuring LL Cool J'
p1180
sS"(There's Gotta Be) More To Life"
p1181
S'Stacie Orrico'
p1182
sS"I'd Do Anything"
p1183
S'Simple Plan'
p1184
sS'An Honest Mistake'
p1185
S'The Bravery'
p1186
sS'Universal Mind Control'
p1187
S'Common Featuring Pharrell'
p1188
sS'Hole In The World'
p1189
S'Eagles'
p1190
sS'Rude Boy'
p1191
S'Rihanna'
p1192
sS"Let's Get Away"
p1193
S'T.I.'
p1194
sS'Breathe And Stop'
p1195
S'Q-Tip'
p1196
sS'I Am Not My Hair'
p1197
S'India.Arie'
p1198
sS'Gossip Folks'
p1199
S'Missy "Misdemeanor" Elliott Featuring Ludacris'
p1200
sS'All Things Considered'
p1201
S'Yankee Grey'
p1202
sS'Castles In The Sky'
p1203
S'Ian Van Dahl Featuring Marsha'
p1204
sS'You Know What It Is'
p1205
S'T.I. Featuring Wyclef Jean'
p1206
sS'Stanky Legg'
p1207
S'GS Boyz'
p1208
sS"I Got A Feelin'"
p1209
S'Billy Currington'
p1210
sS"That's Just Jessie"
p1211
S'Kevin Denney'
p1212
sS'In Love With A Girl'
p1213
S'Gavin DeGraw'
p1214
sS'Dem Jeans'
p1215
S'Chingy Featuring Jermaine Dupri'
p1216
sS'Georgia'
p1217
S'Ludacris & Field Mob Featuring Jamie Foxx'
p1218
sS"'Til Summer Comes Around"
p1219
S'Keith Urban'
p1220
sS'If You Only Knew'
p1221
S'Shinedown'
p1222
sS'My Kinda Party'
p1223
S'Jason Aldean'
p1224
sS'Flashing Lights'
p1225
S'Kanye West Featuring Dwele'
p1226
sS'Cry'
p1227
S'Faith Hill'
p1228
sS'Hey Baby'
p1229
S'No Doubt Featuring Bounty Killer'
p1230
sS'Shoulder Lean'
p1231
S'Young Dro Featuring T.I.'
p1232
sS'Thugz Mansion'
p1233
S'2Pac'
p1234
sS'Like A G6'
p1235
S'Far*East Movement Featuring Cataracs & Dev'
p1236
sS'Feels Like Love'
p1237
S'Vince Gill'
p1238
sS'Best Of Both Worlds'
p1239
S'Hannah Montana'
p1240
sS'Stand Up'
p1241
S'Ludacris Featuring Shawnna'
p1242
sS"She Thinks My Tractor's Sexy"
p1243
S'Kenny Chesney'
p1244
sS'Touchin On My'
p1245
S'3OH!3'
p1246
sS'Let Me Blow Ya Mind'
p1247
S'Eve Featuring Gwen Stefani'
p1248
sS"Don't Forget"
p1249
S'Demi Lovato'
p1250
sS'American Child'
p1251
S'Phil Vassar'
p1252
sS'One Less Bell To Answer / A House Is Not A Home'
p1253
S'Glee Cast Featuring Kristin Chenoweth'
p1254
sS'Over My Head (Cable Car)'
p1255
S'The Fray'
p1256
sS'Love All Over Me'
p1257
S'Monica'
p1258
sS'The Other Side Of The Door'
p1259
S'Taylor Swift'
p1260
sS'Brotha'
p1261
S'Angie Stone'
p1262
sS'Kick Push'
p1263
S'Lupe Fiasco'
p1264
sS'The Hardest Part Of Breaking Up (Is Getting Back Your Stuff)'
p1265
S'2Gether'
p1266
sS'I Dreamed A Dream'
p1267
S'Glee Cast Featuring Idina Menzel'
p1268
sS'Fat Lip'
p1269
S'Sum 41'
p1270
sS'One Love (People Get Ready)'
p1271
S'Glee Cast'
p1272
sS'Waka Waka (This Time For Africa)'
p1273
S'Shakira Featuring Freshlyground'
p1274
sS'99 Problems'
p1275
S'Jay-Z'
p1276
sS'Underneath It All'
p1277
S'No Doubt Featuring Lady Saw'
p1278
sS'Six-Pack Summer'
p1279
S'Phil Vassar'
p1280
sS'How Low'
p1281
S'Ludacris'
p1282
sS'Get My Drink On'
p1283
S'Toby Keith'
p1284
sS'Fly On The Wall'
p1285
S'Miley Cyrus'
p1286
sS"Papa Don't Preach"
p1287
S'Kelly Osbourne'
p1288
sS'Sleepwalker'
p1289
S'The Wallflowers'
p1290
sS'Just Might (Make Me Believe)'
p1291
S'Sugarland'
p1292
sS'This Woman Needs'
p1293
S'SheDaisy'
p1294
sS'Shawty Is A 10'
p1295
S'The-Dream'
p1296
sS'Make Her Feel Good'
p1297
S'Teairra Mari'
p1298
sS'Crazy In Love'
p1299
S'Beyonce Featuring Jay-Z'
p1300
sS'I Am Not A Human Being'
p1301
S'Lil Wayne'
p1302
sS'Honky Tonk Badonkadonk'
p1303
S'Trace Adkins'
p1304
sS'Come On Over Baby (All I Want Is You)'
p1305
S'Christina Aguilera'
p1306
sS'Breakaway'
p1307
S'Kelly Clarkson'
p1308
sS'That s The Way It Is'
p1309
S'Celine Dion'
p1310
sS'Hell On The Heart'
p1311
S'Eric Church'
p1312
sS'My Love Is Like... Wo'
p1313
S'Mya'
p1314
sS'Fiesta'
p1315
S'R. Kelly Featuring Jay-Z'
p1316
sS'Cleaning This Gun (Come On In Boy)'
p1317
S'Rodney Atkins'
p1318
sS'1st Time'
p1319
S'Yung Joc Featuring Marques Houston & Trey Songz'
p1320
sS'Take You Out'
p1321
S'Luther Vandross'
p1322
sS'Neva Eva'
p1323
S'Trillville'
p1324
sS'Kernkraft 400'
p1325
S'Zombie Nation'
p1326
sS'Die Another Day'
p1327
S'Madonna'
p1328
sS"Doesn't Really Matter"
p1329
S'Janet'
p1330
sS'Mr. Brightside'
p1331
S'The Killers'
p1332
sS'Every River'
p1333
S'Brooks & Dunn'
p1334
sS'Big Machine'
p1335
S'Goo Goo Dolls'
p1336
sS'Angelito'
p1337
S'Don Omar'
p1338
sS"You Ain't Got Nuthin"
p1339
S'Lil Wayne Featuring Juelz Santana & Fabolous'
p1340
sS"Love's Divine"
p1341
S'Seal'
p1342
sS"Young'n (Holla Back)"
p1343
S'Fabolous'
p1344
sS'Another Way to Die'
p1345
S'Jack White & Alicia Keys'
p1346
sS'Make Me Better'
p1347
S'Fabolous Featuring Ne-Yo'
p1348
sS'In A Little While'
p1349
S'Uncle Kracker'
p1350
sS"Poppin' My Collar"
p1351
S'Three 6 Mafia'
p1352
sS'Sugar'
p1353
S'Flo Rida Featuring Wynter'
p1354
sS'Maybe'
p1355
S'Sick Puppies'
p1356
sS'Want To'
p1357
S'Sugarland'
p1358
sS'Give A Little More'
p1359
S'Maroon 5'
p1360
sS'Run Joey Run'
p1361
S'Glee Cast Featuring Jonathan Groff'
p1362
sS'Alice'
p1363
S'Avril Lavigne'
p1364
sS'Daddy Won t Sell The Farm'
p1365
S'Montgomery Gentry'
p1366
sS'Upgrade U'
p1367
S'Beyonce Featuring Jay-Z'
p1368
sS'You Won t Be Lonely Now'
p1369
S'Billy Ray Cyrus'
p1370
sS'Stay With You'
p1371
S'Goo Goo Dolls'
p1372
sS'Angry All The Time'
p1373
S'Tim McGraw'
p1374
sS'Right Here'
p1375
S'Staind'
p1376
sS'Bling Bling'
p1377
S'B.G. Featuring Baby, Turk, Mannie Fresh, Juvenile'
p1378
sS'Pump It Up'
p1379
S'Joe Budden'
p1380
sS'Cop That Sh#!'
p1381
S'Timbaland & Magoo Featuring Missy Elliott'
p1382
sS'Feel That Fire'
p1383
S'Dierks Bentley'
p1384
sS'1973'
p1385
S'James Blunt'
p1386
sS'Do That...'
p1387
S'Baby Featuring P. Diddy'
p1388
sS'Bounce'
p1389
S'Sarah Connor'
p1390
sS'Goodbye To You'
p1391
S'Michelle Branch'
p1392
sS'Thong Song'
p1393
S'Sisqo'
p1394
sS'The Fear'
p1395
S'Lily Allen'
p1396
sS"Wish I Didn't Miss You"
p1397
S'Angie Stone'
p1398
sS"Nothin' To Lose"
p1399
S'Josh Gracin'
p1400
sS'Today Was A Fairytale'
p1401
S'Taylor Swift'
p1402
sS'This Is Me'
p1403
S'Demi Lovato & Joe Jonas'
p1404
sS"Ballin' Out Of Control"
p1405
S'Jermaine Dupri Featuring Nate Dogg'
p1406
sS'Breathe (2 A.M.)'
p1407
S'Anna Nalick'
p1408
sS"Stuntin' Like My Daddy"
p1409
S'Birdman & Lil Wayne'
p1410
sS'Good Luck Charm'
p1411
S'Jagged Edge'
p1412
sS"Settlin'"
p1413
S'Sugarland'
p1414
sS"Any Way You Want It/Lovin' Touchin' Squeezin'"
p1415
S'Glee Cast'
p1416
sS'The Jump Off'
p1417
S"Lil' Kim Featuring Mr. Cheeks"
p1418
sS'I Hope You Dance'
p1419
S'Lee Ann Womack With Sons Of The Desert'
p1420
sS'Too Much Of A Good Thing'
p1421
S'Alan Jackson'
p1422
sS'Lady Marmalade'
p1423
S"Christina Aguilera, Lil' Kim, Mya & Pink"
p1424
sS"Ridin' Solo"
p1425
S'Jason Derulo'
p1426
sS'Be Here'
p1427
S"Raphael Saadiq Featuring D'Angelo"
p1428
sS'I Miss My Friend'
p1429
S'Darryl Worley'
p1430
sS'When You Were Young'
p1431
S'The Killers'
p1432
sS"I Can't Stop Loving You"
p1433
S'Kem'
p1434
sS"I'm A Thug"
p1435
S'Trick Daddy'
p1436
sS'I Knew I Loved You'
p1437
S'Savage Garden'
p1438
sS'No Such Thing'
p1439
S'John Mayer'
p1440
sS'Happy'
p1441
S'Leona Lewis'
p1442
sS'My Baby You'
p1443
S'Marc Anthony'
p1444
sS'I Just Wanna Love U (Give It 2 Me)'
p1445
S'Jay-Z'
p1446
sS'Just Like Me'
p1447
S'Jamie Foxx Featuring T.I.'
p1448
sS'Put A Girl In It'
p1449
S'Brooks & Dunn'
p1450
sS'Just Stand Up!'
p1451
S'Artists Stand Up To Cancer'
p1452
sS'So Fresh, So Clean'
p1453
S'OutKast'
p1454
sS'The Boys Of Summer'
p1455
S'The Ataris'
p1456
sS'I Try'
p1457
S'Macy Gray'
p1458
sS'Sexy Lady'
p1459
S'Yung Berg Featuring Junior'
p1460
sS'Go Getta'
p1461
S'Young Jeezy Featuring R. Kelly'
p1462
sS'No More Drama'
p1463
S'Mary J. Blige'
p1464
sS'Fistful Of Tears'
p1465
S'Maxwell'
p1466
sS"How 'Bout You"
p1467
S'Eric Church'
p1468
sS'Felt Good On My Lips'
p1469
S'Tim McGraw'
p1470
sS'J**z In My Pants'
p1471
S'The Lonely Island'
p1472
sS'Halfway Gone'
p1473
S'Lifehouse'
p1474
sS'When I Grow Up'
p1475
S'The Pussycat Dolls'
p1476
sS'People Are Crazy'
p1477
S'Billy Currington'
p1478
sS'Another Side Of You'
p1479
S'Joe Nichols'
p1480
sS'Outta Control (Remix)'
p1481
S'50 Cent Feat. Mobb Deep'
p1482
sS'Modern Day Bonnie And Clyde'
p1483
S'Travis Tritt'
p1484
sS'Invisible'
p1485
S'Ashlee Simpson'
p1486
sS'Sexy Love'
p1487
S'Ne-Yo'
p1488
sS'Alyssa Lies'
p1489
S'Jason Michael Carroll'
p1490
sS'I Just Call You Mine'
p1491
S'Martina McBride'
p1492
sS'Hella Good'
p1493
S'No Doubt'
p1494
sS'Hands Up'
p1495
S'Lloyd Banks Featuring 50 Cent'
p1496
sS'Imitation Of Life'
p1497
S'R.E.M.'
p1498
sS'Escape'
p1499
S'Enrique Iglesias'
p1500
sS'Who We Be'
p1501
S'DMX'
p1502
sS"Hate (I Really Don't Like You)"
p1503
S"Plain White T's"
p1504
sS'So Much More'
p1505
S'Fat Joe'
p1506
sS'About Us'
p1507
S'Brooke Hogan Featuring Paul Wall'
p1508
sS'Like This'
p1509
S'Mims'
p1510
sS'No Me Doy Por Vencido'
p1511
S'Luis Fonsi'
p1512
sS"Beggin'"
p1513
S'Madcon'
p1514
sS'Teenagers'
p1515
S'My Chemical Romance'
p1516
sS'Echo'
p1517
S'Gorilla Zoe'
p1518
sS"America's Suitehearts"
p1519
S'Fall Out Boy'
p1520
sS"I Can't Wait"
p1521
S'Sleepy Brown Featuring OutKast'
p1522
sS'My Sweet Lord'
p1523
S'George Harrison'
p1524
sS'Whoa Now'
p1525
S'B Rich'
p1526
sS'Bridging The Gap'
p1527
S'Nas Featuring Olu Dara'
p1528
sS'Stole'
p1529
S'Kelly Rowland'
p1530
sS'Diamond In The Back'
p1531
S'Ludacris'
p1532
sS"Where I'm From"
p1533
S'Jason Michael Carroll'
p1534
sS'All The Small Things'
p1535
S'Blink-182'
p1536
sS'Again'
p1537
S'Faith Evans'
p1538
sS'Fast Cars And Freedom'
p1539
S'Rascal Flatts'
p1540
sS'Wild Horses'
p1541
S'Susan Boyle'
p1542
sS'Through The Rain'
p1543
S'Mariah Carey'
p1544
sS'From Tha Chuuuch To Da Palace'
p1545
S'Snoop Dogg'
p1546
sS'Rainy Dayz'
p1547
S'Mary J. Blige Featuring Ja Rule'
p1548
sS'What Goes Around...'
p1549
S'Justin Timberlake'
p1550
sS'Baby Boy'
p1551
S'Beyonce Featuring Sean Paul'
p1552
sS'Ladies Love Country Boys'
p1553
S'Trace Adkins'
p1554
sS'Beep'
p1555
S'Bobby V Featuring Yung Joc'
p1556
sS'One Thing'
p1557
S'Finger Eleven'
p1558
sS'Like Toy Soldiers'
p1559
S'Eminem'
p1560
sS'Give It 2 Me'
p1561
S'Madonna'
p1562
sS'E-Pro'
p1563
S'Beck'
p1564
sS'All I Want Is You'
p1565
S'Miguel Featuring J. Cole'
p1566
sS'Coconut Juice'
p1567
S'Tyga Featuring Travis McCoy'
p1568
sS'Light Your Ass On Fire'
p1569
S'Busta Rhymes'
p1570
sS'Too Bad'
p1571
S'Nickelback'
p1572
sS'Puppy Love'
p1573
S'Lil Bow Wow Featuring Jagged Edge'
p1574
sS'Dance With Me'
p1575
S'112'
p1576
sS'Nobody'
p1577
S'Wonder Girls'
p1578
sS'Little White Church'
p1579
S'Little Big Town'
p1580
sS'Finding My Way Back'
p1581
S'Jaheim'
p1582
sS'Unwritten'
p1583
S'Natasha Bedingfield'
p1584
sS'I Drove All Night'
p1585
S'Celine Dion'
p1586
sS'Free And Easy (Down The Road I Go)'
p1587
S'Dierks Bentley'
p1588
sS'Headstrong'
p1589
S'Trapt'
p1590
sS'I Wanna Know'
p1591
S'Joe'
p1592
sS'Celebration'
p1593
S'Madonna'
p1594
sS'Check On It'
p1595
S'Beyonce Featuring Slim Thug'
p1596
sS'Better Than Revenge'
p1597
S'Taylor Swift'
p1598
sS"This Ain't No Love Song"
p1599
S'Trace Adkins'
p1600
sS'Ta Da'
p1601
S'Lil  Mo'
p1602
sS'Somewhere Over The Rainbow'
p1603
S'Katharine McPhee'
p1604
sS'The Prayer (Live)'
p1605
S'Celine Dion & Josh Groban'
p1606
sS'Turn It Up'
p1607
S"Chamillionaire Featuring Lil' Flip"
p1608
sS'We Run This'
p1609
S'Missy Elliott'
p1610
sS'O...Saya'
p1611
S'M.I.A. & A R Rahman'
p1612
sS"It's Been Awhile"
p1613
S'Staind'
p1614
sS'Rodeo'
p1615
S'Juvenile'
p1616
sS'Yee Haw'
p1617
S'Jake Owen'
p1618
sS'Swing'
p1619
S"Savage Featuring Soulja Boy Tell'em"
p1620
sS'The Story Of Us'
p1621
S'Taylor Swift'
p1622
sS'Sleazy'
p1623
S'Ke$ha'
p1624
sS'The Bad Touch'
p1625
S'Bloodhound Gang'
p1626
sS'Crushcrushcrush'
p1627
S'Paramore'
p1628
sS'New Day'
p1629
S'Patti LaBelle'
p1630
sS'Note To God'
p1631
S'Charice'
p1632
sS'Holy Water'
p1633
S'Big & Rich'
p1634
sS'Down And Out'
p1635
S"Cam'ron Featuring Kanye West & Syleena Johnson"
p1636
sS"Ice Cream Freeze (Let's Chill)"
p1637
S'Hannah Montana'
p1638
sS'A Moment Like This'
p1639
S'Kelly Clarkson'
p1640
sS'Free Yourself'
p1641
S'Fantasia'
p1642
sS'I Will Possess Your Heart'
p1643
S'Death Cab For Cutie'
p1644
sS'A Great Big Sled'
p1645
S'The Killers Featuring Toni Halliday'
p1646
sS'The Christmas Song (Chestnuts Roasting On An Open Fire)'
p1647
S'Christina Aguilera'
p1648
sS'Roc The Mic'
p1649
S'Beanie Sigel & Freeway'
p1650
sS'Fireflies'
p1651
S'Owl City'
p1652
sS'Still'
p1653
S'Tim McGraw'
p1654
sS'It Happens'
p1655
S'Sugarland'
p1656
sS'Tattoo'
p1657
S'Jordin Sparks'
p1658
sS'Raise Your Glass'
p1659
S'P!nk'
p1660
sS'Step In The Name Of Love'
p1661
S'R. Kelly'
p1662
sS'Fly Like Me'
p1663
S'Chingy Featuring Amerie'
p1664
sS'Do You'
p1665
S'Ne-Yo'
p1666
sS"A Woman's Love"
p1667
S'Alan Jackson'
p1668
sS'Schism'
p1669
S'Tool'
p1670
sS'The Light'
p1671
S'Common'
p1672
sS'I Hate This Part'
p1673
S'The Pussycat Dolls'
p1674
sS'Cuddy Buddy'
p1675
S'Mike Jones Featuring Trey Songz & Twista'
p1676
sS'Swagga Like Us'
p1677
S'Jay-Z & T.I. Featuring Kanye West & Lil Wayne'
p1678
sS'Push It To The Limit'
p1679
S'Corbin Bleu'
p1680
sS'Act A Fool'
p1681
S'Ludacris'
p1682
sS'Ryde Or Die, Chick'
p1683
S'The Lox Featuring Timbaland And EVE'
p1684
sS'A La Primera Persona'
p1685
S'Alejandro Sanz'
p1686
sS'7 Days'
p1687
S'Craig David'
p1688
sS'Grind With Me'
p1689
S'Pretty Ricky'
p1690
sS'Come Home Soon'
p1691
S'SheDaisy'
p1692
sS'The Music Of The Night'
p1693
S'David Cook'
p1694
sS'U + Ur Hand'
p1695
S'Pink'
p1696
sS'Sour Girl'
p1697
S'Stone Temple Pilots'
p1698
sS'Rest In Pieces'
p1699
S'Saliva'
p1700
sS'Fall For You'
p1701
S'Secondhand Serenade'
p1702
sS'Cold Wind Blows'
p1703
S'Eminem'
p1704
sS'Marry For Money'
p1705
S'Trace Adkins'
p1706
sS'Hey Now (Mean Muggin)'
p1707
S'Xzibit Featuring Keri Hilson'
p1708
sS'New Soul'
p1709
S'Yael Naim'
p1710
sS'Break'
p1711
S'Three Days Grace'
p1712
sS'Beer For My Horses'
p1713
S'Toby Keith Duet With Willie Nelson'
p1714
sS'Ride Wit Me'
p1715
S'Nelly Featuring City Spud'
p1716
sS'Shots'
p1717
S'LMFAO Featuring Lil Jon'
p1718
sS"It's Like That"
p1719
S'Mariah Carey'
p1720
sS'Flowers On The Wall'
p1721
S'Eric Heatherly'
p1722
sS"Bia' Bia'"
p1723
S'Lil Jon & The East Side Boyz Featuring Ludacris, Too Short, Big Kap & Chyna Whyte'
p1724
sS'Bag Lady'
p1725
S'Erykah Badu'
p1726
sS"You're My Better Half"
p1727
S'Keith Urban'
p1728
sS'Ser O Parecer'
p1729
S'RBD'
p1730
sS'Disco Inferno'
p1731
S'50 Cent'
p1732
sS'Some Days You Gotta Dance'
p1733
S'Dixie Chicks'
p1734
sS'Beware Of The Boys (Mundian To Bach Ke)'
p1735
S'Panjabi MC Featuring Jay-Z'
p1736
sS'It Just Comes Natural'
p1737
S'George Strait'
p1738
sS'Redemption Song'
p1739
S'Rihanna'
p1740
sS"Like You'll Never See Me Again"
p1741
S'Alicia Keys'
p1742
sS'Rehab'
p1743
S'Glee Cast'
p1744
sS'Bill Gates'
p1745
S'Lil Wayne'
p1746
sS'Wait For You'
p1747
S'Elliott Yamin'
p1748
sS'Where Is The Love?'
p1749
S'Black Eyed Peas'
p1750
sS'Get Gone'
p1751
S'Ideal'
p1752
sS'Best Of Me'
p1753
S'Mya Featuring Jadakiss'
p1754
sS'Pretty Girl Rock'
p1755
S'Keri Hilson'
p1756
sS'Money Maker'
p1757
S'Ludacris Featuring Pharrell'
p1758
sS'Whiskey Girl'
p1759
S'Toby Keith'
p1760
sS'Put It On Me'
p1761
S"Ja Rule Featuring Lil' Mo & Vita"
p1762
sS'What Kinda Gone'
p1763
S'Chris Cagle'
p1764
sS'Solo'
p1765
S'Iyaz'
p1766
sS'Can I Have It Like That'
p1767
S'Pharrell Featuring Gwen Stefani'
p1768
sS'Bye Bye'
p1769
S'Mariah Carey'
p1770
sS'Last Train Home'
p1771
S'Lostprophets'
p1772
sS'Through The Wire'
p1773
S'Kanye West'
p1774
sS'Funny The Way It Is'
p1775
S'Dave Matthews Band'
p1776
sS'Lollipop'
p1777
S'Framing Hanley'
p1778
sS"I Don't Wanna Stop"
p1779
S'Ozzy Osbourne'
p1780
sS'One Mic'
p1781
S'Nas'
p1782
sS'Touch My Body'
p1783
S'Mariah Carey'
p1784
sS'Who Says'
p1785
S'John Mayer'
p1786
sS'Californication'
p1787
S'Red Hot Chili Peppers'
p1788
sS'Lifeline'
p1789
S'Papa Roach'
p1790
sS'Stealing Cinderella'
p1791
S'Chuck Wicks'
p1792
sS'Black Balloon'
p1793
S'Goo Goo Dolls'
p1794
sS'Mirror Mirror'
p1795
S'M2M'
p1796
sS'Crush'
p1797
S'David Archuleta'
p1798
sS'Damn!'
p1799
S'YoungBloodZ Featuring Lil Jon'
p1800
sS'The Way'
p1801
S'Jill Scott'
p1802
sS"Don't Happen Twice"
p1803
S'Kenny Chesney'
p1804
sS'Goodbye My Lover'
p1805
S'James Blunt'
p1806
sS'L.A. Song'
p1807
S'Beth Hart'
p1808
sS'In Another World'
p1809
S'Joe Diffie'
p1810
sS'Georgia Rain'
p1811
S'Trisha Yearwood'
p1812
sS'Why You Wanna'
p1813
S'T.I.'
p1814
sS'Opposite Of Adults'
p1815
S'Chiddy Bang'
p1816
sS'Headfirst Slide Into Cooperstown On A Bad Bet'
p1817
S'Fall Out Boy'
p1818
sS'Feel It Boy'
p1819
S'Beenie Man Featuring Janet'
p1820
sS"Let's Get Blown"
p1821
S'Snoop Dogg'
p1822
sS'Roll Out (My Business)'
p1823
S'Ludacris'
p1824
sS'Like Red On A Rose'
p1825
S'Alan Jackson'
p1826
sS'Running'
p1827
S'No Doubt'
p1828
sS"Frontin'"
p1829
S'Pharrell Featuring Jay-Z'
p1830
sS"Gettin' You Home (The Black Dress Song)"
p1831
S'Chris Young'
p1832
sS'Give Me That'
p1833
S'Webbie Featuring Bun B'
p1834
sS'Me Love'
p1835
S'Sean Kingston'
p1836
sS'Anything But Mine'
p1837
S'Kenny Chesney'
p1838
sS'Back When I Knew It All'
p1839
S'Montgomery Gentry'
p1840
sS'You Complete Me'
p1841
S'Keyshia Cole'
p1842
sS"You Can't Always Get What You Want"
p1843
S'Glee Cast Featuring Lea Michele, Cory Monteith, Kevin McHale & Amber Riley'
p1844
sS'More Than A Memory'
p1845
S'Garth Brooks'
p1846
sS"If I Fall You're Going Down With Me"
p1847
S'Dixie Chicks'
p1848
sS"You're A God"
p1849
S'Vertical Horizon'
p1850
sS'Drive'
p1851
S'Incubus'
p1852
sS'By Your Side'
p1853
S'Sade'
p1854
sS'Seasons Of Love'
p1855
S'Cast Of Rent'
p1856
sS"Hey Good Lookin'"
p1857
S'Jimmy Buffett With Clint Black, Kenny Chesney, Alan Jackson, Toby Keith & George Strait'
p1858
sS'I Wanna Do It All'
p1859
S'Terri Clark'
p1860
sS'Bat Country'
p1861
S'Avenged Sevenfold'
p1862
sS"Kryptonite (I'm On It)"
p1863
S'Purple Ribbon All-Stars'
p1864
sS'Given Up'
p1865
S'Linkin Park'
p1866
sS'God Love Her'
p1867
S'Toby Keith'
p1868
sS"Start Me Up / Livin' On A Prayer"
p1869
S'Glee Cast'
p1870
sS'Sound Of Madness'
p1871
S'Shinedown'
p1872
sS'A Public Affair'
p1873
S'Jessica Simpson'
p1874
sS"Don't Lie"
p1875
S'The Black Eyed Peas'
p1876
sS'The Ketchup Song (Hey Hah)'
p1877
S'Las Ketchup'
p1878
sS'Promiscuous'
p1879
S'Nelly Furtado Featuring Timbaland'
p1880
sS'Runaway'
p1881
S'Kanye West Featuring Pusha T'
p1882
sS"Don't Let Me Fall"
p1883
S'B.o.B'
p1884
sS'Find Your Love'
p1885
S'Drake'
p1886
sS'Right Where You Want Me'
p1887
S'Jesse McCartney'
p1888
sS'From The Bottom Of My Broken Heart'
p1889
S'Britney Spears'
p1890
sS'Me & U'
p1891
S'Cassie'
p1892
sS'Spanish Guitar'
p1893
S'Toni Braxton'
p1894
sS'Nobody Wants To Be Lonely'
p1895
S'Ricky Martin With Christina Aguilera'
p1896
sS'LOL :-)'
p1897
S"Trey Songz Featuring Gucci Mane & Soulja Boy Tell'em"
p1898
sS'Something In Your Mouth'
p1899
S'Nickelback'
p1900
sS'Say My Name'
p1901
S'Destiny s Child'
p1902
sS'Tricky, Tricky'
p1903
S'Lou Bega'
p1904
sS'Behind These Hazel Eyes'
p1905
S'Kelly Clarkson'
p1906
sS"That's The Way It Is"
p1907
S'Celine Dion'
p1908
sS'Soulmate'
p1909
S'Natasha Bedingfield'
p1910
sS"Soldier's Heart"
p1911
S'R. Kelly'
p1912
sS'What Happened To That Boy'
p1913
S'Baby Featuring Clipse'
p1914
sS"What's My Name?"
p1915
S'Rihanna Featuring Drake'
p1916
sS'Where You Are'
p1917
S'Jessica Simpson Featuring Nick Lachey'
p1918
sS'I Gotta Get To You'
p1919
S'George Strait'
p1920
sS'Cold Hard Bitch'
p1921
S'Jet'
p1922
sS'Red Dirt Road'
p1923
S'Brooks & Dunn'
p1924
sS'Burn'
p1925
S'Usher'
p1926
sS'Party To Damascus'
p1927
S'Wyclef Jean Featuring Missy Elliott'
p1928
sS"Say Somethin'"
p1929
S'Mariah Carey Featuring Snoop Dogg'
p1930
sS"The Party's Just Begun"
p1931
S'The Cheetah Girls'
p1932
sS'That Other Woman'
p1933
S'Changing Faces'
p1934
sS'Not Myself Tonight'
p1935
S'Christina Aguilera'
p1936
sS'The Zephyr Song'
p1937
S'Red Hot Chili Peppers'
p1938
sS'I Wanna Talk About Me'
p1939
S'Toby Keith'
p1940
sS'Truth Is'
p1941
S'Fantasia'
p1942
sS'U Don t Love Me'
p1943
S'Kumbia Kings Featuring A.B. Quintanilla'
p1944
sS'Chasing Cars'
p1945
S'Snow Patrol'
p1946
sS'I m Outta Love'
p1947
S'Anastacia'
p1948
sS'Anything'
p1949
S'Jaheim Featuring Next'
p1950
sS'Everytime'
p1951
S'Britney Spears'
p1952
sS'River Deep, Mountain High'
p1953
S'Glee Cast'
p1954
sS"What U Gon' Do"
p1955
S'Lil Jon & The East Side Boyz Featuring Lil Scrappy'
p1956
sS'It Feels So Good'
p1957
S'Sonique'
p1958
sS'Sweet Caroline'
p1959
S'Glee Cast Featuring Mark Salling'
p1960
sS'Sex On Fire'
p1961
S'Kings Of Leon'
p1962
sS'Roc Ya Body "Mic Check 1,2"'
p1963
S'M.V.P. (Most Valuable Playas) Featuring Stagga Lee'
p1964
sS"Ain't No Other Man"
p1965
S'Christina Aguilera'
p1966
sS'So Fly'
p1967
S'Slim Featuring Yung Joc'
p1968
sS'Smoke A Little Smoke'
p1969
S'Eric Church'
p1970
sS'Make A Movie'
p1971
S'Twista Featuring Chris Brown'
p1972
sS'Danger'
p1973
S'Erykah Badu'
p1974
sS'Across The Universe'
p1975
S'Various Artists'
p1976
sS'In Love Wit Chu'
p1977
S'Da Brat Featuring Cherish'
p1978
sS'Away From The Sun'
p1979
S'3 Doors Down'
p1980
sS'Paparazzi'
p1981
S'Lady Gaga'
p1982
sS"F**k It (I Don't Want You Back)"
p1983
S'Eamon'
p1984
sS'Say Something'
p1985
S'Timbaland Featuring Drake'
p1986
sS'Clumsy'
p1987
S'Fergie'
p1988
sS'Last Day Of My Life'
p1989
S'Phil Vassar'
p1990
sS'Jump To The Rhythm'
p1991
S'Jordan Pruitt'
p1992
sS'Mud On The Tires'
p1993
S'Brad Paisley'
p1994
sS'Fidelity'
p1995
S'Regina Spektor'
p1996
sS'Helena (So Long & Goodnight)'
p1997
S'My Chemical Romance'
p1998
sS'Lean On Me'
p1999
S'Sheryl Crow, Kid Rock & Keith Urban'
p2000
sS'Dancin '
p2001
S'Guy'
p2002
sS'Damaged'
p2003
S'Danity Kane'
p2004
sS'Amor Eterno'
p2005
S'Christian Castro'
p2006
sS'Working On A Dream'
p2007
S'Bruce Springsteen'
p2008
sS"I'm Gonna Getcha Good!"
p2009
S'Shania Twain'
p2010
sS'Sexy Can I'
p2011
S'Ray J & Yung Berg'
p2012
sS'Gravity'
p2013
S'John Mayer'
p2014
sS"Nothin' On You"
p2015
S'B.o.B Featuring Bruno Mars'
p2016
sS'Second Chance'
p2017
S'Shinedown'
p2018
sS"You'll Be There"
p2019
S'George Strait'
p2020
sS"I Wish I Wasn't"
p2021
S'Heather Headley'
p2022
sS'Love Is Free'
p2023
S'Sheryl Crow'
p2024
sS'Do I'
p2025
S'Luke Bryan'
p2026
sS'Take Me Away'
p2027
S'Fefe Dobson'
p2028
sS'Irreplaceable'
p2029
S'Beyonce'
p2030
sS'Been There'
p2031
S'Clint Black With Steve Wariner'
p2032
sS'Lady (Hear Me Tonight)'
p2033
S'Modjo'
p2034
sS'8th World Wonder'
p2035
S'Kimberley Locke'
p2036
sS'Wake Me Up When September Ends'
p2037
S'Green Day'
p2038
sS'Your Everything'
p2039
S'Keith Urban'
p2040
sS'More Than Words'
p2041
S'Frankie J'
p2042
sS'Roll With It'
p2043
S'Easton Corbin'
p2044
sS'Wherever You Will Go'
p2045
S'The Calling'
p2046
sS'The Love Song'
p2047
S'Jeff Bates'
p2048
sS"I'd Come For You"
p2049
S'Nickelback'
p2050
sS'9 AM In Dallas'
p2051
S'Drake'
p2052
sS"We'll Be A Dream"
p2053
S'WE the Kings Featuring Demi Lovato'
p2054
sS'Imagine'
p2055
S'Glee Cast'
p2056
sS'Alone'
p2057
S'Glee Cast'
p2058
sS'Freak On A Leash (Unplugged)'
p2059
S'Korn Featuring Amy Lee'
p2060
sS'True'
p2061
S'Ryan Cabrera'
p2062
sS'Hit The Floor'
p2063
S'Twista Featuring Pitbull'
p2064
sS'1234'
p2065
S'Feist'
p2066
sS'Get Buck'
p2067
S'Young Buck'
p2068
sS'Forever'
p2069
S'Drake Featuring Kanye West, Lil Wayne & Eminem'
p2070
sS'Anything Like Me'
p2071
S'Brad Paisley'
p2072
sS'Dip It Low'
p2073
S'Christina Milian'
p2074
sS'Gasolina'
p2075
S'Daddy Yankee'
p2076
sS'Citizen Soldier'
p2077
S'3 Doors Down'
p2078
sS"2012 (It Ain't The End)"
p2079
S'Jay Sean Featuring Nicki Minaj'
p2080
sS"Don't Worry 'Bout A Thing"
p2081
S'SheDaisy'
p2082
sS'Saturday (Oooh! Ooooh!)'
p2083
S'Ludacris Featuring Sleepy Brown'
p2084
sS"It's Not My Time"
p2085
S'3 Doors Down'
p2086
sS'One In A Million'
p2087
S'Ne-Yo'
p2088
sS'Right Above It'
p2089
S'Lil Wayne Featuring Drake'
p2090
sS'And I'
p2091
S'Ciara'
p2092
sS'All Good Things (Come To An End)'
p2093
S'Nelly Furtado'
p2094
sS'Barefoot And Crazy'
p2095
S'Jack Ingram'
p2096
sS'5 Star Chick'
p2097
S'Yo Gotti'
p2098
sS'LoveGame'
p2099
S'Lady Gaga'
p2100
sS'Kiss This'
p2101
S'Aaron Tippin'
p2102
sS'Again And Again'
p2103
S'Jewel'
p2104
sS'No Hands'
p2105
S'Waka Flocka Flame Featuring Roscoe Dash & Wale'
p2106
sS'Wrapped Around'
p2107
S'Brad Paisley'
p2108
sS"That's All She Wrote"
p2109
S'T.I. Featuring Eminem'
p2110
sS"Rockin' That Thang"
p2111
S'The-Dream'
p2112
sS'Just Another Day In Paradise'
p2113
S'Phil Vassar'
p2114
sS'B R Right'
p2115
S'Trina Featuring Ludacris'
p2116
sS'Make A Wave'
p2117
S"Disney's Friends For Change"
p2118
sS"Scotty Doesn't Know"
p2119
S'Lustra'
p2120
sS'Do It Just Like A Rockstar'
p2121
S'Freak Nasty Featuring Crazy Mike'
p2122
sS'The Best Day'
p2123
S'George Strait'
p2124
sS'Sober'
p2125
S'Pink'
p2126
sS"Get'cha Head In The Game"
p2127
S'Andrew Seeley'
p2128
sS"You're My Everything"
p2129
S'Anita Baker'
p2130
sS"How 'Bout Them Cowgirls"
p2131
S'George Strait'
p2132
sS'One Less Lonely Girl'
p2133
S'Justin Bieber'
p2134
sS"Don't Say You Love Me"
p2135
S'M2M'
p2136
sS"Don't Wait"
p2137
S'Dashboard Confessional'
p2138
sS'Erase Me'
p2139
S'Kid Cudi Featuring Kanye West'
p2140
sS"Keep On Lovin' You"
p2141
S'Steel Magnolia'
p2142
sS'Maneater'
p2143
S'Nelly Furtado'
p2144
sS'Beautiful Day'
p2145
S'Lee DeWyze'
p2146
sS'Bring Out The Freak In You'
p2147
S'Lil Rob'
p2148
sS'Stop! In The Name Of Love / Free Your Mind'
p2149
S'Glee Cast'
p2150
sS'Tambourine'
p2151
S'Eve'
p2152
sS'How You Gonna Act Like That'
p2153
S'Tyrese'
p2154
sS'Baby One More Time'
p2155
S'Glee Cast'
p2156
sS"When I Think About Cheatin'"
p2157
S'Gretchen Wilson'
p2158
sS'What A Catch, Donnie'
p2159
S'Fall Out Boy'
p2160
sS'A Milli'
p2161
S'Lil Wayne'
p2162
sS'Crawling In The Dark'
p2163
S'Hoobastank'
p2164
sS'Without Me'
p2165
S'Eminem'
p2166
sS'Read My Mind'
p2167
S'The Killers'
p2168
sS'Voices'
p2169
S'Chris Young'
p2170
sS'Still In Love'
p2171
S'Teena Marie Featuring Baby'
p2172
sS'Save Room'
p2173
S'John Legend'
p2174
sS'Differences'
p2175
S'Ginuwine'
p2176
sS'Hello'
p2177
S'Glee Cast Featuring Jonathan Groff & Lea Michele'
p2178
sS'See You Again'
p2179
S'Miley Cyrus'
p2180
sS'WooHoo'
p2181
S'Christina Aguilera Featuring Nicki Minaj'
p2182
sS"Don't Stand So Close To Me / Young Girl"
p2183
S'Glee Cast'
p2184
sS'Drift & Die'
p2185
S'Puddle Of Mudd'
p2186
sS'Gimmie That Girl'
p2187
S'Joe Nichols'
p2188
sS'(I Hate) Everything About You'
p2189
S'Three Days Grace'
p2190
sS'The Set Up'
p2191
S'Obie Trice Featuring Nate Dogg'
p2192
sS'What If'
p2193
S'Jason Derulo'
p2194
sS'Slow Down'
p2195
S'Bobby Valentino'
p2196
sS'Send It On'
p2197
S"Disney's Friends For Change"
p2198
sS'You Gets No Love'
p2199
S'Faith Evans'
p2200
sS"I Don't Wanna Be In Love (Dance Floor Anthem)"
p2201
S'Good Charlotte'
p2202
sS'2 Step'
p2203
S'Unk'
p2204
sS'Carlene'
p2205
S'Phil Vassar'
p2206
sS'Only God Knows Why'
p2207
S'Kid Rock'
p2208
sS'Bed'
p2209
S'J. Holiday'
p2210
sS'Cross The Border'
p2211
S"Philly's Most Wanted"
p2212
sS"That'd Be Alright"
p2213
S'Alan Jackson'
p2214
sS'Lost You Anyway'
p2215
S'Toby Keith'
p2216
sS"Don't Make Me"
p2217
S'Blake Shelton'
p2218
sS"Please Don't Leave Me"
p2219
S'Pink'
p2220
sS"She's More"
p2221
S'Andy Griggs'
p2222
sS'No More (Baby I ma Do Right)'
p2223
S'3LW'
p2224
sS'Borderline / Open Your Heart'
p2225
S'Glee Cast Featuring Lea Michele & Cory Monteith'
p2226
sS'Halfway There'
p2227
S'Big Time Rush'
p2228
sS'I Love This Bar'
p2229
S'Toby Keith'
p2230
sS'I Still Miss You'
p2231
S'Keith Anderson'
p2232
sS'Goodies'
p2233
S'Ciara Featuring Petey Pablo'
p2234
sS'Video'
p2235
S'India.Arie'
p2236
sS'Excuse Me Miss'
p2237
S'Jay-Z'
p2238
sS"Grown Men Don't Cry"
p2239
S'Tim McGraw'
p2240
sS'Miss Me Baby'
p2241
S'Chris Cagle'
p2242
sS'Tu Amor'
p2243
S'RBD'
p2244
sS'Down'
p2245
S'Jay Sean Featuring Lil Wayne'
p2246
sS'Something About The Sunshine'
p2247
S'Christopher Wilde & Anna Margaret'
p2248
sS'La La La'
p2249
S'Auburn Featuring Iyaz'
p2250
sS'No Love'
p2251
S'Eminem Featuring Lil Wayne'
p2252
sS'Float On'
p2253
S'Modest Mouse'
p2254
sS'Party Like A Rockstar'
p2255
S'Shop Boyz'
p2256
sS'Work It'
p2257
S'Missy "Misdemeanor" Elliott'
p2258
sS"DJ Got Us Fallin' In Love"
p2259
S'Usher Featuring Pitbull'
p2260
sS'No One Knows'
p2261
S'Queens Of The Stone Age'
p2262
sS"Cupid's Chokehold"
p2263
S'Gym Class Heroes Featuring Patrick Stump'
p2264
sS'Imma Be'
p2265
S'The Black Eyed Peas'
p2266
sS'Never Again'
p2267
S'Kelly Clarkson'
p2268
sS'Passenger Seat'
p2269
S'SheDaisy'
p2270
sS'Work In Progress'
p2271
S'Alan Jackson'
p2272
sS'Get Buck In Here'
p2273
S'DJ Felli Fel Featuring Diddy, Akon, Ludacris & Lil Jon'
p2274
sS"What If She's An Angel"
p2275
S'Tommy Shane Steiner'
p2276
sS"You Know You're Right"
p2277
S'Nirvana'
p2278
sS'Runnin (Dying To Live)'
p2279
S'Tupac Featuring The Notorious B.I.G.'
p2280
sS'Jumpin , Jumpin '
p2281
S'Destiny s Child'
p2282
sS'Starry Eyed Surprise'
p2283
S'Oakenfold Featuring Shifty Shellshock'
p2284
sS'This Is The Night'
p2285
S'Clay Aiken'
p2286
sS'Doe Boy Fresh'
p2287
S'Three 6 Mafia Featuring Chamillionaire'
p2288
sS'Tipsy'
p2289
S'J-Kwon'
p2290
sS'You Raise Me Up'
p2291
S"Josh Groban & The African Children's Choir"
p2292
sS'Here Without You'
p2293
S'3 Doors Down'
p2294
sS'Remember When'
p2295
S'Alan Jackson'
p2296
sS'Good Vibrations'
p2297
S'Glee Cast'
p2298
sS'La La Land'
p2299
S'Demi Lovato'
p2300
sS'BedRock'
p2301
S'Young Money Featuring Lloyd'
p2302
sS'The Christmas Shoes'
p2303
S'NewSong'
p2304
sS"Time's Up!"
p2305
S'Jadakiss Featuring Nate Dogg'
p2306
sS'Spin'
p2307
S'Lifehouse'
p2308
sS'Why'
p2309
S'Jason Aldean'
p2310
sS'Last One Standing'
p2311
S'Emerson Drive'
p2312
sS'My Life'
p2313
S'The Game Featuring Lil Wayne'
p2314
sS'143'
p2315
S'Bobby Brackins Featuring Ray J'
p2316
sS'Always'
p2317
S'Saliva'
p2318
sS'Bother'
p2319
S'Stone Sour'
p2320
sS'Shake'
p2321
S'Jesse McCartney'
p2322
sS'These Are My People'
p2323
S'Rodney Atkins'
p2324
sS'Son Of A Gun'
p2325
S'Janet Featuring Missy Elliott, P. Diddy & Carly Simon'
p2326
sS'Ugly'
p2327
S'Bubba Sparxxx'
p2328
sS'Into The Night'
p2329
S'Santana Featuring Chad Kroeger'
p2330
sS'Milkshake'
p2331
S'Kelis'
p2332
sS'Lookin Boy'
p2333
S'Hot Stylz Featuring Yung Joc'
p2334
sS'Hot 2Nite'
p2335
S'New Edition'
p2336
sS'Always On Time'
p2337
S'Ja Rule Featuring Ashanti'
p2338
sS'Thank You In Advance'
p2339
S'Boyz II Men'
p2340
sS'Hey Ma'
p2341
S"Cam'ron Featuring Juelz Santana, Freekey Zekey & Toya"
p2342
sS"She's Like The Wind"
p2343
S'Lumidee Featuring Tony Sunshine'
p2344
sS"Feelin' Freaky"
p2345
S'Nick Cannon Featuring B2K'
p2346
sS'Welcome Christmas'
p2347
S'Glee Cast'
p2348
sS'The Streets'
p2349
S'WC Featuring Nate Dogg'
p2350
sS"Why Don't We Just Dance"
p2351
S'Josh Turner'
p2352
sS'4 My Town (Play Ball)'
p2353
S'Birdman Featuring Drake & Lil Wayne'
p2354
sS'Salt Shaker'
p2355
S'Ying Yang Twins Featuring Lil Jon & The East Side Boyz'
p2356
sS'All The Things She Said'
p2357
S't.A.T.u.'
p2358
sS'When I Look At You'
p2359
S'Miley Cyrus'
p2360
sS'Work It (Reinvention)'
p2361
S'Nelly'
p2362
sS'Calling All Angels'
p2363
S'Train'
p2364
sS"Damned If I Do Ya (Damned If I Don't)"
p2365
S'All Time Low'
p2366
sS'Wanna Get To Know You'
p2367
S'G-Unit Featuring Joe'
p2368
sS'Why, Why, Why'
p2369
S'Billy Currington'
p2370
sS'Last Night'
p2371
S'Diddy Featuring Keyshia Cole'
p2372
sS'Bust It Baby (Part 2)'
p2373
S'Plies Featuring Ne-Yo'
p2374
sS'What Chu Like'
p2375
S'Da Brat Featuring Tyrese'
p2376
sS'A Little Less Conversation'
p2377
S'Elvis Presley vs JXL'
p2378
sS'Got Your Back'
p2379
S'T.I. Featuring Keri Hilson'
p2380
sS'Satisfy You'
p2381
S'Puff Daddy Featuring R. Kelly'
p2382
sS"It's Alright, It's OK"
p2383
S'Ashley Tisdale'
p2384
sS'Tim McGraw'
p2385
S'Taylor Swift'
p2386
sS'Ignorance'
p2387
S'Paramore'
p2388
sS'Bump, Bump, Bump'
p2389
S'B2K & P. Diddy'
p2390
sS"It's A Business Doing Pleasure With You"
p2391
S'Tim McGraw'
p2392
sS'Lucky Man'
p2393
S'Montgomery Gentry'
p2394
sS'Love You'
p2395
S'Jack Ingram'
p2396
sS'Ella Y Yo'
p2397
S'Aventura Featuring Don Omar'
p2398
sS'Touch The Sky'
p2399
S'Kanye West Featuring Lupe Fiasco'
p2400
sS'Mambo No. 5 (A Little Bit Of...)'
p2401
S'Lou Bega'
p2402
sS'Just A Lil Bit'
p2403
S'50 Cent'
p2404
sS'Country Comes To Town'
p2405
S'Toby Keith'
p2406
sS'Blurry'
p2407
S'Puddle Of Mudd'
p2408
sS'Higher'
p2409
S'Taio Cruz Featuring Travie McCoy'
p2410
sS"Move (If You 'W'anna)"
p2411
S'Mims'
p2412
sS'Like A Stone'
p2413
S'Audioslave'
p2414
sS'This Time Around'
p2415
S'Hanson'
p2416
sS'The Chain Of Love'
p2417
S'Clay Walker'
p2418
sS'Roll Wit M.V.P.'
p2419
S'Stagga Lee'
p2420
sS"It Only Hurts When I'm Breathing"
p2421
S'Shania Twain'
p2422
sS'Collide'
p2423
S'Howie Day'
p2424
sS'Piece Of Me'
p2425
S'Britney Spears'
p2426
sS'Auld Lang Syne'
p2427
S'Kenny G'
p2428
sS'Luv U Better'
p2429
S'LL Cool J'
p2430
sS'Into You'
p2431
S'Fabolous Featuring Tamia Or Ashanti'
p2432
sS'Summer Rain'
p2433
S'Carl Thomas'
p2434
sS'Long Road To Ruin'
p2435
S'Foo Fighters'
p2436
sS'Check It Out'
p2437
S'will.i.am & Nicki Minaj'
p2438
sS'All Good?'
p2439
S'De La Soul Featuring Chaka Khan'
p2440
sS'You & Me'
p2441
S'J-Kwon Featuring Sadiyyah'
p2442
sS'Ring The Alarm'
p2443
S'Beyonce'
p2444
sS'Suds In The Bucket'
p2445
S'Sara Evans'
p2446
sS'Waiting For Tonight'
p2447
S'Jennifer Lopez'
p2448
sS'Juicebox'
p2449
S'The Strokes'
p2450
sS'Say Aah'
p2451
S'Trey Songz Featuring Fabolous'
p2452
sS'Life In A Northern Town'
p2453
S'Sugarland Featuring Little Big Town & Jake Owen'
p2454
sS'On Fire'
p2455
S'Lil Wayne'
p2456
sS'Last Kiss'
p2457
S'Taylor Swift'
p2458
sS'Lo Que Me Gusta A Mi'
p2459
S'Juanes'
p2460
sS'Amazed'
p2461
S'Lonestar'
p2462
sS'Anyone Else But You'
p2463
S'Michael Cera & Ellen Page'
p2464
sS'The Way I Loved You'
p2465
S'Taylor Swift'
p2466
sS'Freak The Freak Out'
p2467
S'Victorious Cast Featuring Victoria Justice'
p2468
sS'Badaboom'
p2469
S'B2K Featuring Fabolous'
p2470
sS'Migrate'
p2471
S'Mariah Carey Featuring T-Pain'
p2472
sS'Some People Change'
p2473
S'Montgomery Gentry'
p2474
sS"That's What It's All About"
p2475
S'Brooks & Dunn'
p2476
sS'In The Sun'
p2477
S'Michael Stipe'
p2478
sS'Yellow'
p2479
S'Coldplay'
p2480
sS'Half Of My Heart'
p2481
S'John Mayer'
p2482
sS"Can't Let You Go"
p2483
S"Fabolous Featuring Mike Shorey & Lil' Mo"
p2484
sS"You'll Always Find Your Way Back Home"
p2485
S'Hannah Montana'
p2486
sS'My Town'
p2487
S'Montgomery Gentry'
p2488
sS'Famous Last Words'
p2489
S'My Chemical Romance'
p2490
sS'In Color'
p2491
S'Jamey Johnson'
p2492
sS'Dreaming With A Broken Heart'
p2493
S'John Mayer'
p2494
sS'She Thinks My Tractor s Sexy'
p2495
S'Kenny Chesney'
p2496
sS'Show Me How To Live'
p2497
S'Audioslave'
p2498
sS'This Gift'
p2499
S'98 Degrees'
p2500
sS'Only Prettier'
p2501
S'Miranda Lambert'
p2502
sS'Dude'
p2503
S'Beenie Man Featuring Ms. Thing'
p2504
sS'Chain Hang Low'
p2505
S'Jibbs'
p2506
sS'When You Tell Me That You Love Me'
p2507
S'American Idol Finalists Season 4'
p2508
sS'Deep Inside Of You'
p2509
S'Third Eye Blind'
p2510
sS'Be With You'
p2511
S'Enrique Iglesias'
p2512
sS'Back Then'
p2513
S'Mike Jones'
p2514
sS'Somewhere Out There'
p2515
S'Our Lady Peace'
p2516
sS'OMG'
p2517
S'Usher Featuring will.i.am'
p2518
sS'American Pie'
p2519
S'Madonna'
p2520
sS"You're A Jerk"
p2521
S'New Boyz'
p2522
sS'Daughters'
p2523
S'John Mayer'
p2524
sS'Laredo'
p2525
S'Chris Cagle'
p2526
sS'We Will Become Silhouettes'
p2527
S'The Postal Service'
p2528
sS'Another Way To Die'
p2529
S'Disturbed'
p2530
sS'Pull Over'
p2531
S'Trina'
p2532
sS'Yeah Ya Know (Takers)'
p2533
S'T.I.'
p2534
sS'Successful'
p2535
S'Drake Featuring Trey Songz & Lil Wayne'
p2536
sS'We Danced'
p2537
S'Brad Paisley'
p2538
sS'Watch The Wind Blow By'
p2539
S'Tim McGraw'
p2540
sS'Whataya Want From Me'
p2541
S'Adam Lambert'
p2542
sS'I Changed My Mind'
p2543
S'Keyshia Cole Featuring Shyne'
p2544
sS'American Baby'
p2545
S'Dave Matthews Band'
p2546
sS'Untouched'
p2547
S'The Veronicas'
p2548
sS'BB Good'
p2549
S'Jonas Brothers'
p2550
sS"I'm Throwed"
p2551
S'Paul Wall Featuring Jermaine Dupri'
p2552
sS'Hell Yeah'
p2553
S'Montgomery Gentry'
p2554
sS'Forget You'
p2555
S'Glee Cast Featuring Gwyneth Paltrow'
p2556
sS'The Whole World'
p2557
S'OutKast Featuring Killer Mike'
p2558
sS'Good Ride Cowboy'
p2559
S'Garth Brooks'
p2560
sS'Little Lion Man'
p2561
S'Mumford & Sons'
p2562
sS'Neutron Star Collision (Love Is Forever)'
p2563
S'Muse'
p2564
sS'What About Us?'
p2565
S'Brandy'
p2566
sS'Money To Blow'
p2567
S'Birdman Featuring Lil Wayne & Drake'
p2568
sS'Sexy Chick'
p2569
S'David Guetta Featuring Akon'
p2570
sS'Move Ya Body'
p2571
S'Nina Sky Featuring Jabba'
p2572
sS'Honky Tonk U'
p2573
S'Toby Keith'
p2574
sS'Nude'
p2575
S'Radiohead'
p2576
sS'Smooth'
p2577
S'Santana Featuring Rob Thomas'
p2578
sS'Ride For You'
p2579
S'Danity Kane'
p2580
sS'Every Day Is Exactly The Same'
p2581
S'Nine Inch Nails'
p2582
sS'Redneck Yacht Club'
p2583
S'Craig Morgan'
p2584
sS'I Love College'
p2585
S'Asher Roth'
p2586
sS'Stand'
p2587
S'Rascal Flatts'
p2588
sS'Impossible'
p2589
S'Shontelle'
p2590
sS'Somewhere With You'
p2591
S'Kenny Chesney'
p2592
sS'Doesn t Really Matter'
p2593
S'Janet'
p2594
sS"No One's Gonna Change You"
p2595
S'Reina'
p2596
sS'White & Nerdy'
p2597
S'Weird Al Yankovic'
p2598
sS'We No Speak Americano'
p2599
S'Yolanda Be Cool & Dcup'
p2600
sS'Pimp Juice'
p2601
S'Nelly'
p2602
sS'Beamer, Benz, Or Bentley'
p2603
S'Lloyd Banks Featuring Juelz Santana'
p2604
sS'Thinking About You'
p2605
S'Norah Jones'
p2606
sS'Make Some Noise'
p2607
S'Hannah Montana'
p2608
sS'Promise'
p2609
S'Ciara'
p2610
sS'After Party'
p2611
S'Koffee Brown'
p2612
sS'Touch'
p2613
S'Omarion'
p2614
sS"Buzzin'"
p2615
S'Shwayze Featuring Cisco Adler'
p2616
sS"It's Getting Better All The Time"
p2617
S'Brooks & Dunn'
p2618
sS'Did My Time'
p2619
S'Korn'
p2620
sS'Family Portrait'
p2621
S'Pink'
p2622
sS'Speak'
p2623
S'Godsmack'
p2624
sS'Pon de Replay'
p2625
S'Rihanna'
p2626
sS'King Of The Dancehall'
p2627
S'Beenie Man'
p2628
sS'These Words'
p2629
S'Natasha Bedingfield'
p2630
sS"Signs Of Love Makin'"
p2631
S'Tyrese'
p2632
sS'I Just Wanna Live'
p2633
S'Good Charlotte'
p2634
sS'One Of Us'
p2635
S'Glee Cast'
p2636
sS'Taking You Home'
p2637
S'Don Henley'
p2638
sS'Whatever It Takes'
p2639
S'Lifehouse'
p2640
sS'See You In My Nightmares'
p2641
S'Kanye West Featuring Lil Wayne'
p2642
sS'We Are The World 25: For Haiti'
p2643
S'Artists For Haiti'
p2644
sS'What You Waiting For?'
p2645
S'Gwen Stefani'
p2646
sS'We Rock'
p2647
S'Cast Of Camp Rock'
p2648
sS'The Itch'
p2649
S'Vitamin C'
p2650
sS"It's Me Snitches"
p2651
S'Swizz Beatz'
p2652
sS'Stay Gone'
p2653
S'Jimmy Wayne'
p2654
sS'Baby Mama'
p2655
S'Fantasia'
p2656
sS'Hollywood'
p2657
S'Michael Buble'
p2658
sS'Seventeen Forever'
p2659
S'Metro Station'
p2660
sS'Awake And Alive'
p2661
S'Skillet'
p2662
sS'Separated'
p2663
S'Avant'
p2664
sS'Culo'
p2665
S'Pitbull Featuring Lil Jon'
p2666
sS'The Game Of Love'
p2667
S'Santana Featuring Michelle Branch'
p2668
sS'Never Scared'
p2669
S'Bone Crusher Featuring Killer Mike & T.I.'
p2670
sS'Just A Little While'
p2671
S'Janet Jackson'
p2672
sS'Candyman'
p2673
S'Christina Aguilera'
p2674
sS'The Story'
p2675
S'Brandi Carlile'
p2676
sS'Oh Santa!'
p2677
S'Mariah Carey'
p2678
sS'Diva'
p2679
S'Beyonce'
p2680
sS'Leave Out All The Rest'
p2681
S'Linkin Park'
p2682
sS'If I Could Go!'
p2683
S"Angie Martinez Featuring Lil' Mo & Sacario"
p2684
sS'Summer Nights'
p2685
S'Rascal Flatts'
p2686
sS'A Little Too Late'
p2687
S'Toby Keith'
p2688
sS'Headsprung'
p2689
S'LL Cool J'
p2690
sS'Eight Second Ride'
p2691
S'Jake Owen'
p2692
sS'Feel Good Inc'
p2693
S'Gorillaz'
p2694
sS'Tarantula'
p2695
S'The Smashing Pumpkins'
p2696
sS"Probably Wouldn't Be This Way"
p2697
S'LeAnn Rimes'
p2698
sS'What About Now'
p2699
S'Daughtry'
p2700
sS"It's A Man's, Man's Man's World"
p2701
S'Glee Cast'
p2702
sS'God Must Be Busy'
p2703
S'Brooks & Dunn'
p2704
sS'Best Friend'
p2705
S'50 Cent & Olivia'
p2706
sS'How We Do'
p2707
S'The Game Featuring 50 Cent'
p2708
sS'Love Me Or Hate Me (F**k You!!!!)'
p2709
S'Lady Sovereign'
p2710
sS'This Is The Life'
p2711
S'Hannah Montana'
p2712
sS'Naked'
p2713
S'Marques Houston'
p2714
sS"I Don't Have To Be Me ('Til Monday)"
p2715
S'Steve Azar'
p2716
sS'Only Time'
p2717
S'Enya'
p2718
sS'Snoop Dogg'
p2719
S'Snoop Dogg'
p2720
sS'Battlefield'
p2721
S'Jordin Sparks'
p2722
sS'Falls Apart'
p2723
S'Sugar Ray'
p2724
sS'Love'
p2725
S'Keyshia Cole'
p2726
sS'Scott Mescudi Vs. The World'
p2727
S'Kid Cudi Featuring Cee-Lo'
p2728
sS'Alejandro'
p2729
S'Lady Gaga'
p2730
sS'Hello Tomorrow'
p2731
S'Squeak E. Clean Featuring Karen O.'
p2732
sS'Mad World'
p2733
S'Adam Lambert'
p2734
sS'Ching-A-Ling'
p2735
S'Missy Elliott'
p2736
sS'Rock That Body'
p2737
S'The Black Eyed Peas'
p2738
sS'Last Time'
p2739
S'Trey Songz'
p2740
sS'Stay With Me (Brass Bed)'
p2741
S'Josh Gracin'
p2742
sS'Pump It'
p2743
S'The Black Eyed Peas'
p2744
sS'Rock The Boat'
p2745
S'Aaliyah'
p2746
sS'Love Like Winter'
p2747
S'AFI'
p2748
sS"What Up, What's Haapnin'"
p2749
S'T.I.'
p2750
sS'The Rockafeller Skank'
p2751
S'Fatboy Slim'
p2752
sS"The Quittin' Kind"
p2753
S'Joe Diffie'
p2754
sS'Torn'
p2755
S'LeToya'
p2756
sS'Here Comes Goodbye'
p2757
S'Rascal Flatts'
p2758
sS'The Lazy Song'
p2759
S'Bruno Mars'
p2760
sS'T-Shirt'
p2761
S'Shontelle'
p2762
sS'Trailerhood'
p2763
S'Toby Keith'
p2764
sS"Didn't You Know How Much I Loved You"
p2765
S'Kellie Pickler'
p2766
sS'High School Never Ends'
p2767
S'Bowling For Soup'
p2768
sS'Got Your Money'
p2769
S'Ol  Dirty Bastard Featuring Kelis'
p2770
sS'Better As A Memory'
p2771
S'Kenny Chesney'
p2772
sS"The World's Greatest"
p2773
S'R. Kelly'
p2774
sS"I Can't Sleep"
p2775
S'Clay Walker'
p2776
sS'Thnks Fr Th Mmrs'
p2777
S'Fall Out Boy'
p2778
sS"Baby Don't Go"
p2779
S'Fabolous Featuring Jermaine Dupri'
p2780
sS'Fall Into Me'
p2781
S'Emerson Drive'
p2782
sS'Get Like Me'
p2783
S'David Banner Featuring Chris Brown'
p2784
sS'Lovers And Friends'
p2785
S'Lil Jon & The East Side Boyz Featuring Usher & Ludacris'
p2786
sS'Baby U Are'
p2787
S'Gerald Levert'
p2788
sS'Breathe, Stretch, Shake'
p2789
S'Mase Featuring P. Diddy'
p2790
sS'Devils & Dust'
p2791
S'Bruce Springsteen'
p2792
sS'Me Neither'
p2793
S'Brad Paisley'
p2794
sS'What You Got'
p2795
S"Colby O'Donis Featuring Akon"
p2796
sS'Let Me Go'
p2797
S'3 Doors Down'
p2798
sS'Fabulous'
p2799
S'Ashley Tisdale And Lucas Grabeel'
p2800
sS'Play My Music'
p2801
S'Jonas Brothers'
p2802
sS'I Should Be...'
p2803
S'Dru Hill'
p2804
sS'Why Wait'
p2805
S'Rascal Flatts'
p2806
sS"She'll Leave You With A Smile"
p2807
S'George Strait'
p2808
sS'Bad Day'
p2809
S'Alvin And The Chipmunks'
p2810
sS'Is That Your Chick'
p2811
S'Memphis Bleek Featuring Jay-Z & Missy Elliott'
p2812
sS"Who's Your Daddy?"
p2813
S'Toby Keith'
p2814
sS"X Gon' Give It To Ya"
p2815
S'DMX'
p2816
sS'The Hand Clap'
p2817
S'Hurricane Chris Featuring Big Poppa'
p2818
sS'Rocketeer'
p2819
S'Far*East Movement Featuring Ryan Tedder'
p2820
sS'We Fly High'
p2821
S'Jim Jones'
p2822
sS'Hip Hop Is Dead'
p2823
S'Nas Featuring will.i.am'
p2824
sS'London Bridge'
p2825
S'Fergie'
p2826
sS"Call Me When You're Sober"
p2827
S'Evanescence'
p2828
sS'Hillbilly Deluxe'
p2829
S'Brooks & Dunn'
p2830
sS'Butterflies'
p2831
S'Michael Jackson'
p2832
sS"I Would've Loved You Anyway"
p2833
S'Trisha Yearwood'
p2834
sS'dontchange'
p2835
S'Musiq'
p2836
sS'Why Do You Love Me'
p2837
S'Garbage'
p2838
sS'Beer In Mexico'
p2839
S'Kenny Chesney'
p2840
sS'Love Of My Life'
p2841
S'Brian McKnight'
p2842
sS'Pieces Of Me'
p2843
S'Ashlee Simpson'
p2844
sS'Check Yes Juliet (Run Baby Run)'
p2845
S'WE the Kings'
p2846
sS'The Other Side Of Me'
p2847
S'Hannah Montana'
p2848
sS'So Far Away'
p2849
S'Staind'
p2850
sS'Sexy Movimiento'
p2851
S'Wisin & Yandel'
p2852
sS"Don't Blink"
p2853
S'Kenny Chesney'
p2854
sS"When You're Gone"
p2855
S'Avril Lavigne'
p2856
sS'No Mercy'
p2857
S'Ty Herndon'
p2858
sS'Never Gonna Be Alone'
p2859
S'Nickelback'
p2860
sS'Living In Fast Forward'
p2861
S'Kenny Chesney'
p2862
sS"B.M.F. (Blowin' Money Fast)"
p2863
S'Rick Ross Featuring Styles P'
p2864
sS"19 Somethin'"
p2865
S'Mark Wills'
p2866
sS'Since U Been Gone'
p2867
S'Kelly Clarkson'
p2868
sS'All The Above'
p2869
S'Maino Featuring T-Pain'
p2870
sS'Gotta Find You'
p2871
S'Joe Jonas'
p2872
sS'Ocean Avenue'
p2873
S'Yellowcard'
p2874
sS'Love Is Gone'
p2875
S'David Guetta & Chris Willis'
p2876
sS'We Made You'
p2877
S'Eminem'
p2878
sS'Rock The Party'
p2879
S'Benzino'
p2880
sS'Faithfully'
p2881
S'Glee Cast'
p2882
sS'The Boy Is Mine'
p2883
S'Glee Cast'
p2884
sS"Hush Lil' Lady"
p2885
S"Corey Featuring Lil' Romeo"
p2886
sS'Number One'
p2887
S'R. Kelly Featuring Keri Hilson'
p2888
sS'World Wide Suicide'
p2889
S'Pearl Jam'
p2890
sS"I'm Gonna Be Alright"
p2891
S'Jennifer Lopez Featuring Nas'
p2892
sS'Emotional'
p2893
S'Carl Thomas'
p2894
sS'Smile'
p2895
S'Uncle Kracker'
p2896
sS'Break Ya Neck'
p2897
S'Busta Rhymes'
p2898
sS'The Diary Of Jane'
p2899
S'Breaking Benjamin'
p2900
sS'Roll'
p2901
S'Flo Rida Featuring Sean Kingston'
p2902
sS'21 Guns'
p2903
S'Green Day'
p2904
sS'Breathe'
p2905
S'Taylor Swift'
p2906
sS"It Wasn't Me"
p2907
S'Shaggy Featuring Ricardo "RikRok" Ducent'
p2908
sS'Run It!'
p2909
S'Chris Brown'
p2910
sS"If It's Love"
p2911
S'Train'
p2912
sS'Two People Fell In Love'
p2913
S'Brad Paisley'
p2914
sS'Rhythm of Love'
p2915
S"Plain White T's"
p2916
sS'Country Man'
p2917
S'Luke Bryan'
p2918
sS'The Middle'
p2919
S'Jimmy Eat World'
p2920
sS'Pretty Wings'
p2921
S'Maxwell'
p2922
sS'The Saints Are Coming'
p2923
S'U2 & Green Day'
p2924
sS"I Don't Want To Be"
p2925
S'Gavin DeGraw'
p2926
sS'Diary'
p2927
S'Alicia Keys Featuring Tony! Toni! Tone!'
p2928
sS'Bring It All To Me'
p2929
S'Blaque'
p2930
sS'Take That'
p2931
S'Torrey Carter Featuring Missy "Misdemeanor" Elliott'
p2932
sS'Sunday Morning'
p2933
S'Maroon5'
p2934
sS'Ready To Love Again'
p2935
S'Lady Antebellum'
p2936
sS'Get Ur Freak On'
p2937
S'Missy "Misdemeanor" Elliott'
p2938
sS'Feels Just Like It Should'
p2939
S'Pat Green'
p2940
sS'Stays In Mexico'
p2941
S'Toby Keith'
p2942
sS"The Chipmunk Song (Christmas Don't Be Late) (2007)"
p2943
S'Alvin And The Chipmunks'
p2944
sS"I'm Still A Guy"
p2945
S'Brad Paisley'
p2946
sS'Snap Yo Fingers'
p2947
S'Lil Jon Featuring E-40 & Sean Paul Of The YoungBloodZ'
p2948
sS'Who Said'
p2949
S'Hannah Montana'
p2950
sS"Look What You've Done"
p2951
S'Jet'
p2952
sS'Welcome To The Black Parade'
p2953
S'My Chemical Romance'
p2954
sS'Feel Good Time'
p2955
S'Pink Featuring William Orbit'
p2956
sS'Unpredictable'
p2957
S'Jamie Foxx Featuring Ludacris'
p2958
sS'Get Right'
p2959
S'Jennifer Lopez'
p2960
sS"Don't Know Why"
p2961
S'Norah Jones'
p2962
sS'Go D.J.'
p2963
S'Lil Wayne'
p2964
sS'I Just Wanna Be Mad'
p2965
S'Terri Clark'
p2966
sS'Dey Know'
p2967
S'Shawty Lo'
p2968
sS'F**k Today'
p2969
S'Lil Wayne Featuring Gudda'
p2970
sS'In My Mind'
p2971
S'Heather Headley'
p2972
sS'Angel'
p2973
S'Akon'
p2974
sS'No Shoes, No Shirt, No Problems'
p2975
S'Kenny Chesney'
p2976
sS'Big Chips'
p2977
S'R. Kelly & Jay-Z'
p2978
sS'Up To The Mountain'
p2979
S'Crystal Bowersox'
p2980
sS'Jump Then Fall'
p2981
S'Taylor Swift'
p2982
sS'Bounce With Me'
p2983
S'Lil Bow Wow Featuring Xscape'
p2984
sS'Grace Kelly'
p2985
S'MIKA'
p2986
sS'Chop Suey'
p2987
S'System Of A Down'
p2988
sS'The Hand That Feeds'
p2989
S'Nine Inch Nails'
p2990
sS'Feel The Girl'
p2991
S'Ms. Jade'
p2992
sS'Coo-Coo Chee'
p2993
S'Ric-A-Che'
p2994
sS'Jesus Walks'
p2995
S'Kanye West'
p2996
sS'My Old Friend'
p2997
S'Tim McGraw'
p2998
sS'#1'
p2999
S'Nelly'
p3000
sS'Babylon'
p3001
S'David Gray'
p3002
sS'With Arms Wide Open'
p3003
S'Creed'
p3004
sS'Get On Your Boots'
p3005
S'U2'
p3006
sS'We Can t Be Friends'
p3007
S'Deborah Cox With R.L.'
p3008
sS'Boots On'
p3009
S'Randy Houser'
p3010
sS"You're Gonna Go Far, Kid"
p3011
S'The Offspring'
p3012
sS'Without You'
p3013
S'Hinder'
p3014
sS'24/7'
p3015
S'Kevon Edmonds'
p3016
sS'The Rising'
p3017
S'Bruce Springsteen'
p3018
sS'All I Want To Do'
p3019
S'Sugarland'
p3020
sS'Forgive'
p3021
S'Rebecca Lynn Howard'
p3022
sS'Introducing Me'
p3023
S'Nick Jonas'
p3024
sS'Wetter'
p3025
S'Twista'
p3026
sS'3'
S'Britney Spears'
p3027
sS"Lookin' For A Good Time"
p3028
S'Lady Antebellum'
p3029
sS'Just Another Girl'
p3030
S'Monica'
p3031
sS'Sweet And Low'
p3032
S'Augustana'
p3033
sS'All You Wanted'
p3034
S'Michelle Branch'
p3035
sS"Lot Of Leavin' Left To Do"
p3036
S'Dierks Bentley'
p3037
sS'Just The Girl'
p3038
S'The Click Five'
p3039
sS'Who The F*** Is That?'
p3040
S'Dolla Featuring T-Pain & Tay Dizm'
p3041
sS"Sissy's Song"
p3042
S'Alan Jackson'
p3043
sS'Living For The Night'
p3044
S'George Strait'
p3045
sS'Dear John'
p3046
S'Taylor Swift'
p3047
sS'Always On Your Side'
p3048
S'Sheryl Crow & Sting'
p3049
sS"I'm Going In"
p3050
S'Drake Featuring Lil Wayne & Young Jeezy'
p3051
sS'Who Knew'
p3052
S'Pink'
p3053
sS'You Can Get It All'
p3054
S'Bow Wow Featuring Johnta Austin'
p3055
sS'Toes'
p3056
S'Zac Brown Band'
p3057
sS'The Outsider'
p3058
S'A Perfect Circle'
p3059
sS'Once In A Lifetime'
p3060
S'Keith Urban'
p3061
sS"I'll Stand By You"
p3062
S'Glee Cast'
p3063
sS'Sweetness'
p3064
S'Jimmy Eat World'
p3065
sS'Clap Back'
p3066
S'Ja Rule'
p3067
sS'Marijuana'
p3068
S'Kid Cudi'
p3069
sS'Insane'
p3070
S'Eminem'
p3071
sS'I Run To You'
p3072
S'Lady Antebellum'
p3073
sS'Paralyzer'
p3074
S'Finger Eleven'
p3075
sS'Anything Goes'
p3076
S'Randy Houser'
p3077
sS'Big Yellow Taxi'
p3078
S'Counting Crows Featuring Vanessa Carlton'
p3079
sS'Steal My Sunshine'
p3080
S'Len'
p3081
sS'Sexy Bitch'
p3082
S'David Guetta Featuring Akon'
p3083
sS'Driving Me Crazy'
p3084
S'Sam Adams'
p3085
sS'Happy?'
p3086
S'Mudvayne'
p3087
sS"Halle Berry (She's Fine)"
p3088
S'Hurricane Chris Featuring SupaSTAAR'
p3089
sS'Keep Your Mind Wide Open'
p3090
S'AnnaSophia Robb'
p3091
sS'Where Do We Go From Here'
p3092
S'Filter'
p3093
sS'Everyday'
p3094
S'Zac Efron/Vanessa Anne Hudgens'
p3095
sS'Kush'
p3096
S'Dr. Dre Featuring Snoop Dogg & Akon'
p3097
sS'I Can Only Imagine'
p3098
S'MercyMe'
p3099
sS'Pour Me'
p3100
S'Trick Pony'
p3101
sS"Don't Phunk With My Heart"
p3102
S'The Black Eyed Peas'
p3103
sS'Green Light'
p3104
S'John Legend Featuring Andre 3000'
p3105
sS"Can't Leave 'Em Alone"
p3106
S'Ciara Featuring 50 Cent'
p3107
sS'A Rose By Any Other Name'
p3108
S'Teena Marie Featuring Gerald Levert'
p3109
sS'Woohoo'
p3110
S'Christina Aguilera Featuring Nicki Minaj'
p3111
sS'Inside The Fire'
p3112
S'Disturbed'
p3113
sS'Price To Play'
p3114
S'Staind'
p3115
sS'Bet On It'
p3116
S'Zac Efron'
p3117
sS'Beautiful Mess'
p3118
S'Diamond Rio'
p3119
sS'Imagine That'
p3120
S'LL Cool J'
p3121
sS'Blame It'
p3122
S'Jamie Foxx Featuring T-Pain'
p3123
sS'Pain'
p3124
S'Three Days Grace'
p3125
sS'The Seashores Of Old Mexico'
p3126
S'George Strait'
p3127
sS'When You Need My Love'
p3128
S'Darryl Worley'
p3129
sS'Love Song'
p3130
S'Sara Bareilles'
p3131
sS'Red High Heels'
p3132
S'Kellie Pickler'
p3133
sS'Online'
p3134
S'Brad Paisley'
p3135
sS'Pop Lock And Drop It'
p3136
S'Huey'
p3137
sS'Where The Hood At?'
p3138
S'DMX'
p3139
sS'Killa'
p3140
S'Cherish Featuring Yung Joc'
p3141
sS'Southside'
p3142
S'Lloyd Featuring Ashanti'
p3143
sS"It's Good To Be Us"
p3144
S'Bucky Covington'
p3145
sS'Dumb Love'
p3146
S'Sean Kingston'
p3147
sS"I'll Take That As A Yes (The Hot Tub Song)"
p3148
S'Phil Vassar'
p3149
sS'Never Too Far/Hero (Medley)'
p3150
S'Mariah Carey'
p3151
sS'Million Dollar Bill'
p3152
S'Whitney Houston'
p3153
sS"F**kin' Perfect"
p3154
S'P!nk'
p3155
sS'No Better Love'
p3156
S'Young Gunz Featuring Rell'
p3157
sS'These Are The Days'
p3158
S'O-Town'
p3159
sS'I Gotta Feeling'
p3160
S'The Black Eyed Peas'
p3161
sS'In Da Club'
p3162
S'50 Cent'
p3163
sS'Hell Of A Life'
p3164
S'T.I.'
p3165
sS'Whiskey Lullaby'
p3166
S'Brad Paisley Featuring Alison Krauss'
p3167
sS'Rapture (Tastes So Sweet)'
p3168
S'iio'
p3169
sS'Tighten Up'
p3170
S'The Black Keys'
p3171
sS'Chariot'
p3172
S'Gavin DeGraw'
p3173
sS'She Thinks She Needs Me'
p3174
S'Andy Griggs'
p3175
sS'Dance, Dance'
p3176
S'Fall Out Boy'
p3177
sS"Free Fallin'"
p3178
S'John Mayer'
p3179
sS'I Am The Highway'
p3180
S'Audioslave'
p3181
sS'Down A** Chick'
p3182
S'Ja Rule Featuring Charli "Chuck" Baltimore'
p3183
sS'E.T.'
p3184
S'Katy Perry'
p3185
sS'Somebody'
p3186
S'Reba McEntire'
p3187
sS'RUN'
p3188
S'Leona Lewis'
p3189
sS'Stupid Boy'
p3190
S'Keith Urban'
p3191
sS'Baby, Come Over (This Is Our Night)'
p3192
S'Samantha Mumba'
p3193
sS'I Kissed A Girl'
p3194
S'Katy Perry'
p3195
sS'Miss Independent'
p3196
S'Ne-Yo'
p3197
sS'Confessions Of A Broken Heart (Daughter To Father)'
p3198
S'Lindsay Lohan'
p3199
sS'Empire State Of Mind'
p3200
S'Glee Cast'
p3201
sS'Only You Can Love Me This Way'
p3202
S'Keith Urban'
p3203
sS'Where Are You Christmas?'
p3204
S'Faith Hill'
p3205
sS'Loving You No More'
p3206
S'Diddy - Dirty Money Featuring Drake'
p3207
sS'Never Too Late'
p3208
S'Three Days Grace'
p3209
sS'Who Is She 2 U'
p3210
S'Brandy'
p3211
sS'Woman'
p3212
S'Raheem DeVaughn'
p3213
sS'So In Love With Two'
p3214
S'Mikaila'
p3215
sS'Shake That'
p3216
S'Eminem Featuring Nate Dogg'
p3217
sS'Crazy Car'
p3218
S'The Naked Brothers Band'
p3219
sS'Summertime'
p3220
S'New Kids On The Block'
p3221
sS'Elevator'
p3222
S'Eminem'
p3223
sS"(I've Had) The Time Of My Life"
p3224
S'Glee Cast'
p3225
sS"Can't Help But Wait"
p3226
S'Trey Songz'
p3227
sS'U Already Know'
p3228
S'112 Featuring Foxy Brown'
p3229
sS"I'm Just Here For The Music"
p3230
S'Paula Abdul'
p3231
sS'White Houses'
p3232
S'Vanessa Carlton'
p3233
sS'Oh Boy'
p3234
S"Cam'ron Featuring Juelz Santana"
p3235
sS"If I Ain't Got You"
p3236
S'Alicia Keys'
p3237
sS'Hold On'
p3238
S'Jonas Brothers'
p3239
sS'Dirty Picture'
p3240
S'Taio Cruz Featuring Ke$ha'
p3241
sS'Taking Chances'
p3242
S'Glee Cast'
p3243
sS'Raise Up'
p3244
S'Petey Pablo'
p3245
sS'Put On'
p3246
S'Young Jeezy Featuring Kanye West'
p3247
sS'Hold You (Hold Yuh)'
p3248
S'Gyptian'
p3249
sS'Why I Love You'
p3250
S'B2K'
p3251
sS'Ticks'
p3252
S'Brad Paisley'
p3253
sS'Wild West Show'
p3254
S'Big & Rich'
p3255
sS'Laffy Taffy'
p3256
S'D4L'
p3257
sS'Teenage Love Affair'
p3258
S'Alicia Keys'
p3259
sS'A Thousand Miles'
p3260
S'Vanessa Carlton'
p3261
sS'One Minute Man'
p3262
S'Missy "Misdemeanor" Elliott'
p3263
sS'Pull Up'
p3264
S'Mr. Vegas'
p3265
sS'Tell Me When To Go'
p3266
S'E-40 Featuring Keak Da Sneak'
p3267
sS'Ever The Same'
p3268
S'Rob Thomas'
p3269
sS'It Ends Tonight'
p3270
S'The All-American Rejects'
p3271
sS'Bartender Song'
p3272
S'Rehab'
p3273
sS'Come Back Song'
p3274
S'Darius Rucker'
p3275
sS'American Saturday Night'
p3276
S'Brad Paisley'
p3277
sS'He Is'
p3278
S'Heather Headley'
p3279
sS'What It Is'
p3280
S'Violator Featuring Busta Rhymes'
p3281
sS'So Yesterday'
p3282
S'Hilary Duff'
p3283
sS'Womanizer'
p3284
S'Britney Spears'
p3285
sS'Want It, Need It'
p3286
S'Plies Featuring Ashanti'
p3287
sS'Turn On The Radio'
p3288
S'Reba'
p3289
sS"I'm Still In Love With You"
p3290
S'Sean Paul Featuring Sasha'
p3291
sS'Like A Boy'
p3292
S'Ciara'
p3293
sS'I Could Not Ask For More'
p3294
S'Sara Evans'
p3295
sS"The Talkin' Song Repair Blues"
p3296
S'Alan Jackson'
p3297
sS'Tell Me Something Good'
p3298
S'Glee Cast'
p3299
sS'Nothing On But The Radio'
p3300
S'Gary Allan'
p3301
sS'Hustler Musik'
p3302
S'Lil Wayne'
p3303
sS'Permanent'
p3304
S'David Cook'
p3305
sS'Numb/Encore'
p3306
S'Jay-Z/Linkin Park'
p3307
sS"She's No You"
p3308
S'Jesse McCartney'
p3309
sS'Hanging On'
p3310
S'Cheyenne Kimball'
p3311
sS'Dreamer'
p3312
S'Chris Brown'
p3313
sS"I'm A Flirt"
p3314
S'R. Kelly Or Bow Wow (Featuring T.I. & T-Pain)'
p3315
sS'Physical'
p3316
S'Glee Cast Featuring Olivia Newton-John'
p3317
sS'Hero/Heroine'
p3318
S'Boys Like Girls'
p3319
sS'Shawty Get Loose'
p3320
S'Lil Mama Featuring Chris Brown & T-Pain'
p3321
sS'Over And Over'
p3322
S'Nelly Featuring Tim McGraw'
p3323
sS'Spaceman'
p3324
S'The Killers'
p3325
sS'All Summer Long'
p3326
S'The Rock Heroes'
p3327
sS'Up!'
p3328
S'Shania Twain'
p3329
sS'Pursuit Of Happiness (Nightmare)'
p3330
S'Kid Cudi Featuring MGMT & Ratatat'
p3331
sS"Lucky 4 You (Tonight I'm Just Me)"
p3332
S'SheDaisy'
p3333
sS'Bridge Over Troubled Water'
p3334
S'Glee Cast'
p3335
sS"Oh Yes (aka 'Postman')"
p3336
S'Juelz Santana'
p3337
sS'Laundromat'
p3338
S'Nivea'
p3339
sS'Beautiful Goodbye'
p3340
S'Jennifer Hanson'
p3341
sS'Blue Jeans'
p3342
S'Yasmeen Featuring Ghostface Killah'
p3343
sS'SexyBack'
p3344
S'Justin Timberlake'
p3345
sS'Lady Is A Tramp'
p3346
S'Glee Cast'
p3347
sS'Letter To Me'
p3348
S'Brad Paisley'
p3349
sS'Hanging By A Moment'
p3350
S'Lifehouse'
p3351
sS'Put It On Ya'
p3352
S'Plies Featuring Chris J'
p3353
sS'Letting Go (Dutty Love)'
p3354
S'Sean Kingston Featuring Nicki Minaj'
p3355
sS'This Christmas'
p3356
S'Chris Brown'
p3357
sS'Anonymous'
p3358
S'Bobby Valentino Featuring Timbaland'
p3359
sS"Doesn't Mean Anything"
p3360
S'Alicia Keys'
p3361
sS'The Day That Never Comes'
p3362
S'Metallica'
p3363
sS'Big Star'
p3364
S'Kenny Chesney'
p3365
sS'Mad'
p3366
S'Ne-Yo'
p3367
sS'Just Friends (Sunny)'
p3368
S'Musiq Soulchild'
p3369
sS"Gettin' Some"
p3370
S'Shawnna'
p3371
sS'Love Like This'
p3372
S'Natasha Bedingfield Featuring Sean Kingston'
p3373
sS'My Hood'
p3374
S'Young Jeezy'
p3375
sS'Pop Champagne'
p3376
S'Jim Jones & Ron Browz Featuring Juelz Santana'
p3377
sS'Hey'
p3378
S'Lil Jon Featuring 3OH!3'
p3379
sS'Wasted'
p3380
S'Gucci Mane Featuring Plies Or OJ Da Juiceman'
p3381
sS"My Give A Damn's Busted"
p3382
S'Jo Dee Messina'
p3383
sS'Wasting My Time'
p3384
S'Default'
p3385
sS"Ain't Nothing `Bout You"
p3386
S'Brooks & Dunn'
p3387
sS'Never Leave You - Uh Ooh, Uh Oooh!'
p3388
S'Lumidee'
p3389
sS'Love Remembers'
p3390
S'Craig Morgan'
p3391
sS"Love Don't Cost A Thing"
p3392
S'Jennifer Lopez'
p3393
sS"Hustlin'"
p3394
S'Rick Ross'
p3395
sS'Talk'
p3396
S'Coldplay'
p3397
sS'Straight Out Of Line'
p3398
S'Godsmack'
p3399
sS'Follow Me'
p3400
S'Uncle Kracker'
p3401
sS'I Need You Now'
p3402
S'Smokie Norful'
p3403
sS'My Love'
p3404
S'The-Dream Featuring Mariah Carey'
p3405
sS'Handlebars'
p3406
S'Flobots'
p3407
sS'Every Girl'
p3408
S'Young Money'
p3409
sS'Never Ever'
p3410
S'Ciara Featuring Young Jeezy'
p3411
sS'The Truth'
p3412
S'Jason Aldean'
p3413
sS'Satisfaction'
p3414
S'Eve'
p3415
sS'Break It Off'
p3416
S'Rihanna & Sean Paul'
p3417
sS'Me Enamora'
p3418
S'Juanes'
p3419
sS'Mamma Mia'
p3420
S'Meryl Streep'
p3421
sS'The Fixer'
p3422
S'Pearl Jam'
p3423
sS'Give Me A Sign (Forever And Ever)'
p3424
S'Breaking Benjamin'
p3425
sS"Walkin' On The Moon"
p3426
S'The-Dream Featuring Kanye West'
p3427
sS'Low'
p3428
S'Flo Rida Featuring T-Pain'
p3429
sS"Ain't No Rest For The Wicked"
p3430
S'Cage The Elephant'
p3431
sS'Love At 1st Sight'
p3432
S'Mary J. Blige Featuring Method Man'
p3433
sS'1 Thing'
p3434
S'Amerie'
p3435
sS'Down On Me'
p3436
S'Jeremih Featuring 50 Cent'
p3437
sS'Crazy Beautiful Life'
p3438
S'Ke$ha'
p3439
sS'Locked Up'
p3440
S'Akon Featuring Styles P.'
p3441
sS"You're Like Comin' Home"
p3442
S'Lonestar'
p3443
sS'He Didn t Have To Be'
p3444
S'Brad Paisley'
p3445
sS'Amazing'
p3446
S'Kanye West Featuring Young Jeezy'
p3447
sS'White Horse'
p3448
S'Taylor Swift'
p3449
sS'Stupid Girls'
p3450
S'Pink'
p3451
sS'Already Gone'
p3452
S'Kelly Clarkson'
p3453
sS'Listen'
p3454
S'Glee Cast'
p3455
sS'Right Where I Need To Be'
p3456
S'Gary Allan'
p3457
sS'I Get Money'
p3458
S'50 Cent'
p3459
sS'It s My Life'
p3460
S'Bon Jovi'
p3461
sS'Love Is A Beautiful Thing'
p3462
S'Phil Vassar'
p3463
sS'7 Things'
p3464
S'Miley Cyrus'
p3465
sS'Trapped In The Closet'
p3466
S'R. Kelly'
p3467
sS"I'd Rather Be With You"
p3468
S'Joshua Radin'
p3469
sS'Leave It All To Me (iCarly Theme Song)'
p3470
S'Miranda Cosgrove Featuring Drake Bell'
p3471
sS'Welcome To Jamrock'
p3472
S'Damian "Jr. Gong" Marley'
p3473
sS'2012 (It Ain"t The End)'
p3474
S'Jay Sean Featuring Nicki Minaj'
p3475
sS"Let's Get Down"
p3476
S'Bow Wow Featuring Baby'
p3477
sS'U Saved Me'
p3478
S'R. Kelly'
p3479
sS'Outta Your Mind'
p3480
S'Lil Jon Featuring LMFAO'
p3481
sS'My Projects'
p3482
S'Coo Coo Cal'
p3483
sS'Saving Grace'
p3484
S'Tom Petty'
p3485
sS'Superwoman'
p3486
S'Alicia Keys'
p3487
sS'911'
p3488
S'Wyclef Jean Featuring Mary J. Blige'
p3489
sS"I'm Glad"
p3490
S'Jennifer Lopez'
p3491
sS'U Got It Bad'
p3492
S'Usher'
p3493
sS'Lark On My Go-Kart'
p3494
S'Asher Roth'
p3495
sS'When It Hurts'
p3496
S'Avant'
p3497
sS'For You I Will (Confidence)'
p3498
S'Teddy Geiger'
p3499
sS'Bionic'
p3500
S'Christina Aguilera'
p3501
sS'Jerk It Out'
p3502
S'Caesars'
p3503
sS'Graduation (Friends Forever)'
p3504
S'Vitamin C'
p3505
sS"Stuck In A Moment You Can't Get Out Of"
p3506
S'U2'
p3507
sS'I Cry'
p3508
S"Ja Rule Featuring Lil' Mo"
p3509
sS'Breathe (2 AM)'
p3510
S'Anna Nalick'
p3511
sS'Goodbye'
p3512
S'Kristinia DeBarge'
p3513
sS'Who Dat Girl'
p3514
S'Flo Rida Featuring Akon'
p3515
sS"Big Girls Don't Cry"
p3516
S'Fergie'
p3517
sS'Someone To Love You'
p3518
S'Ruff Endz'
p3519
sS'Get No Better'
p3520
S'Cassidy Featuring Mashonda'
p3521
sS'Love At First Sight'
p3522
S'Kylie Minogue'
p3523
sS'Smack That'
p3524
S'Akon Featuring Eminem'
p3525
sS'My Sister'
p3526
S'Reba McEntire'
p3527
sS'Do You Hear What I Hear'
p3528
S'Carrie Underwood'
p3529
sS'Cochise'
p3530
S'Audioslave'
p3531
sS'Red Light'
p3532
S'David Nail'
p3533
sS"When I Get Where I'm Going"
p3534
S'Brad Paisley Featuring Dolly Parton'
p3535
sS"Don't You Forget It"
p3536
S'Glenn Lewis'
p3537
sS'Kids'
p3538
S'MGMT'
p3539
sS'Hate It Or Love It'
p3540
S'The Game Featuring 50 Cent'
p3541
sS'All I Do Is Win'
p3542
S'DJ Khaled Featuring T-Pain, Ludacris, Snoop Dogg & Rick Ross'
p3543
sS'Prayer'
p3544
S'Disturbed'
p3545
sS'Bop To The Top'
p3546
S'Lucas Grabeel & Ashley Tisdale'
p3547
sS'All The Right Moves'
p3548
S'OneRepublic'
p3549
sS'Laughed Until We Cried'
p3550
S'Jason Aldean'
p3551
sS'Ice Box'
p3552
S'Omarion'
p3553
sS"I Can't Hate You Anymore"
p3554
S'Nick Lachey'
p3555
sS'Rockstar'
p3556
S'Nickelback'
p3557
sS'Memories'
p3558
S'David Guetta Featuring Kid Cudi'
p3559
sS'Good Morning'
p3560
S'Chamillionaire'
p3561
sS"Ain't I"
p3562
S'Yung L.A. Featuring Young Dro & T.I.'
p3563
sS'Love Lockdown'
p3564
S'Kanye West'
p3565
sS'Yes!'
p3566
S'Chad Brock'
p3567
sS'I Belong To You'
p3568
S'Lenny Kravitz'
p3569
sS"Must Be Doin' Somethin' Right"
p3570
S'Billy Currington'
p3571
sS'Pinch Me'
p3572
S'Barenaked Ladies'
p3573
sS'Storm'
p3574
S'Lenny Kravitz Featuring Jay-Z'
p3575
sS'Gangsta Luv'
p3576
S'Snoop Dogg Featuring The-Dream'
p3577
sS"Who Wouldn't Wanna Be Me"
p3578
S'Keith Urban'
p3579
sS'Hotel Room Service'
p3580
S'Pitbull'
p3581
sS'Just For You'
p3582
S'Lionel Richie'
p3583
sS'Ooh!'
p3584
S'Mary J. Blige'
p3585
sS'Izzo (H.O.V.A.)'
p3586
S'Jay-Z'
p3587
sS'It s Gonna Be Me'
p3588
S'N Sync'
p3589
sS'Suddenly I See'
p3590
S'KT Tunstall'
p3591
sS'Come On Over'
p3592
S'Jessica Simpson'
p3593
sS'One Of Those Days'
p3594
S'Whitney Houston'
p3595
sS'When I Look To The Sky'
p3596
S'Train'
p3597
sS'Footprints'
p3598
S'T.O.K.'
p3599
sS'Hotel'
p3600
S'Cassidy Featuring R. Kelly'
p3601
sS"Don't Let The Sun Go Down On Me"
p3602
S'David Archuleta'
p3603
sS"Heard 'Em Say"
p3604
S'Kanye West Featuring Adam Levine'
p3605
sS'Dance Tonight'
p3606
S'Paul McCartney'
p3607
sS'Take Me On The Floor'
p3608
S'The Veronicas'
p3609
sS"How Far We've Come"
p3610
S'matchbox twenty'
p3611
sS"Let's Go"
p3612
S'Trick Daddy Featuring Lil Jon & Twista'
p3613
sS'Clubbin'
p3614
S'Marques Houston Featuring Joe Budden & Pied Piper'
p3615
sS'Party People'
p3616
S'Nelly Featuring Fergie'
p3617
sS'If We Were A Movie'
p3618
S'Hannah Montana'
p3619
sS'I Want To Live'
p3620
S'Josh Gracin'
p3621
sS"How Am I Doin'"
p3622
S'Dierks Bentley'
p3623
sS'Only The Good Die Young'
p3624
S'Glee Cast'
p3625
sS"Pimpin' All Over The World"
p3626
S'Ludacris Featuring Bobby Valentino'
p3627
sS'I Look To You'
p3628
S'Glee Cast'
p3629
sS'Tell Me'
p3630
S'Diddy Featuring Christina Aguilera'
p3631
sS'Far Away'
p3632
S'Nickelback'
p3633
sS'You Make Me Sick'
p3634
S'Pink'
p3635
sS'Move B***h'
p3636
S'Ludacris Featuring Mystikal & Infamous 2.0'
p3637
sS'When You Gonna (Give It Up To Me)'
p3638
S'Sean Paul Featuring Keyshia Cole'
p3639
sS'Rakata'
p3640
S'Wisin & Yandel'
p3641
sS'Summer Love'
p3642
S'Justin Timberlake'
p3643
sS'Through Glass'
p3644
S'Stone Sour'
p3645
sS'No Matter What'
p3646
S'T.I.'
p3647
sS'Be Good To Me'
p3648
S'Ashley Tisdale'
p3649
sS"Leavin'"
p3650
S'Jesse McCartney'
p3651
sS'Notion'
p3652
S'Kings Of Leon'
p3653
sS'One Call Away'
p3654
S'Chingy Featuring J. Weav'
p3655
sS'Put You In A Song'
p3656
S'Keith Urban'
p3657
sS'She Got Her Own'
p3658
S'Ne-Yo Featuring Jamie Foxx & Fabolous'
p3659
sS'Mrs. Steven Rudy'
p3660
S'Mark McGuinn'
p3661
sS'Show Me How You Burlesque'
p3662
S'Christina Aguilera'
p3663
sS'As If'
p3664
S'Sara Evans'
p3665
sS'Crank That (Soulja Boy)'
p3666
S"Soulja Boy Tell'em"
p3667
sS'I Never Told You'
p3668
S'Colbie Caillat'
p3669
sS'Boyfriend/Girlfriend'
p3670
S'C-Side Featuring Keyshia Cole'
p3671
sS'Get Back Up'
p3672
S'T.I. Featuring Chris Brown'
p3673
sS'Pen & Paper'
p3674
S'The Red Jumpsuit Apparatus'
p3675
sS'The Show Goes On'
p3676
S'Lupe Fiasco'
p3677
sS'Blow'
p3678
S'Ke$ha'
p3679
sS"Waitin' On A Woman"
p3680
S'Brad Paisley'
p3681
sS'Bust It Baby Part 2'
p3682
S'Plies Featuring Ne-Yo'
p3683
sS'Accidentally In Love'
p3684
S'Counting Crows'
p3685
sS"That's What She Gets For Loving Me"
p3686
S'Brooks & Dunn'
p3687
sS'Soul Meets Body'
p3688
S'Death Cab For Cutie'
p3689
sS'Wordplay'
p3690
S'Jason Mraz'
p3691
sS'Hot'
p3692
S'Avril Lavigne'
p3693
sS'Whine Up'
p3694
S'Kat DeLuna Featuring Elephant Man'
p3695
sS"Tell Me Something I Don't Know"
p3696
S'Selena Gomez'
p3697
sS'Dynamite'
p3698
S'Taio Cruz'
p3699
sS'Soak Up The Sun'
p3700
S'Sheryl Crow'
p3701
sS"Don't Trust Me"
p3702
S'3OH!3'
p3703
sS'Real'
p3704
S'Goo Goo Dolls'
p3705
sS'Monica'
p3706
S'Before Dark'
p3707
sS'What Is It'
p3708
S'Baby Bash Featuring Sean Kingston'
p3709
sS'Give You What You Want (Fa Sure)'
p3710
S'Chico DeBarge'
p3711
sS'Twang'
p3712
S'George Strait'
p3713
sS'My Next Thirty Years'
p3714
S'Tim McGraw'
p3715
sS'How Do You Get That Lonely'
p3716
S'Blaine Larsen'
p3717
sS'Coming Undone'
p3718
S'Korn'
p3719
sS'Ms. New Booty'
p3720
S'Bubba Sparxxx Featuring Ying Yang Twins & Mr. ColliPark'
p3721
sS'Where The Party At'
p3722
S'Jagged Edge With Nelly'
p3723
sS'Get Drunk And Be Somebody'
p3724
S'Toby Keith'
p3725
sS'NAStradamus'
p3726
S'Nas'
p3727
sS"This Ain't Nothin'"
p3728
S'Craig Morgan'
p3729
sS"Nothin' To Die For"
p3730
S'Tim McGraw'
p3731
sS'Lady'
p3732
S'Lenny Kravitz'
p3733
sS'Dare'
p3734
S'Gorillaz Featuring Shaun Ryder'
p3735
sS'I Disappear'
p3736
S'Metallica'
p3737
sS'Crack A Bottle'
p3738
S'Eminem, Dr. Dre & 50 Cent'
p3739
sS'Back Here'
p3740
S'BBMak'
p3741
sS'La Tortura'
p3742
S'Shakira Feat. Alejandro Sanz'
p3743
sS'This Way'
p3744
S'Dilated Peoples Featuring Kanye West'
p3745
sS'Single Ladies (Put A Ring On It)'
p3746
S'Beyonce'
p3747
sS'Buddy'
p3748
S'Musiq Soulchild'
p3749
sS'Feelin  So Good'
p3750
S'Jennifer Lopez Featuring Big Pun'
p3751
sS'One Wish'
p3752
S'Ray J'
p3753
sS'I Wanna Be Bad'
p3754
S'Willa Ford'
p3755
sS"Grindin'"
p3756
S'Clipse'
p3757
sS'Stunt 101'
p3758
S'G-Unit'
p3759
sS'Bet I'
p3760
S'B.o.B Featuring T.I. & Playboy Tre'
p3761
sS'Take Me Home'
p3762
S'Terror Squad'
p3763
sS'Same Girl'
p3764
S'R. Kelly Duet With Usher'
p3765
sS'Shut Up'
p3766
S'Simple Plan'
p3767
sS'Snow ((Hey Oh))'
p3768
S'Red Hot Chili Peppers'
p3769
sS'Unusually Unusual'
p3770
S'Lonestar'
p3771
sS'Speechless'
p3772
S'Lady Gaga'
p3773
sS'La La'
p3774
S'Ashlee Simpson'
p3775
sS'King Kong'
p3776
S'Jibbs Featuring Chamillionaire'
p3777
sS'Yeah'
p3778
S'Usher Featuring Ludacris & Lil Jon'
p3779
sS'Superwoman Pt. II'
p3780
S"Lil' Mo Featuring Fabolous"
p3781
sS'Gypsy'
p3782
S'Shakira'
p3783
sS'Falls On Me'
p3784
S'Fuel'
p3785
sS'Badd'
p3786
S'Ying Yang Twins Featuring Mike Jones & Mr. ColliPark'
p3787
sS'Down The Road'
p3788
S'Kenny Chesney With Mac McAnally'
p3789
sS'Real Big'
p3790
S'Mannie Fresh'
p3791
sS'There It Go! (The Whistle Song)'
p3792
S'Juelz Santana'
p3793
sS'The Man I Want To Be'
p3794
S'Chris Young'
p3795
sS"U Can't Touch This"
p3796
S'Glee Cast'
p3797
sS'Can t Go For That'
p3798
S'Tamia'
p3799
sS'Black Rain'
p3800
S'Soundgarden'
p3801
sS"It's A New Day"
p3802
S'will.i.am'
p3803
sS'Blue (Da Ba Dee)'
p3804
S'Eiffel 65'
p3805
sS'Party In The U.S.A.'
p3806
S'Miley Cyrus'
p3807
sS'Your Body Is A Wonderland'
p3808
S'John Mayer'
p3809
sS'Faint'
p3810
S'Linkin Park'
p3811
sS'Losing Grip'
p3812
S'Avril Lavigne'
p3813
sS'Glitter In The Air'
p3814
S'Pink'
p3815
sS'N 2 Gether Now'
p3816
S'Limp Bizkit Featuring Method Man'
p3817
sS"Can't Hold Us Down"
p3818
S"Christina Aguilera Featuring Lil' Kim"
p3819
sS"Stacy's Mom"
p3820
S'Fountains Of Wayne'
p3821
sS'When I Said I Do'
p3822
S'Clint Black'
p3823
sS"Livin' Our Love Song"
p3824
S'Jason Michael Carroll'
p3825
sS'You Sang To Me'
p3826
S'Marc Anthony'
p3827
sS'Hot Mama'
p3828
S'Trace Adkins'
p3829
sS'Sideways'
p3830
S'Dierks Bentley'
p3831
sS'Hanginaround'
p3832
S'Counting Crows'
p3833
sS'Cry Me A River'
p3834
S'Justin Timberlake'
p3835
sS'Go On Girl'
p3836
S'Ne-Yo'
p3837
sS'Strut'
p3838
S'The Cheetah Girls'
p3839
sS'Body On Me'
p3840
S'Nelly Featuring Ashanti & Akon'
p3841
sS'Rock You Baby'
p3842
S'Toby Keith'
p3843
sS'Lions, Tigers & Bears'
p3844
S'Jazmine Sullivan'
p3845
sS'Check My Brain'
p3846
S'Alice In Chains'
p3847
sS'White Flag'
p3848
S'Dido'
p3849
sS'Precious'
p3850
S'Depeche Mode'
p3851
sS'Control Myself'
p3852
S'LL Cool J Featuring Jennifer Lopez'
p3853
sS'The Breath You Take'
p3854
S'George Strait'
p3855
sS'Better Off Alone'
p3856
S'Alice Deejay'
p3857
sS'Me And God'
p3858
S'Josh Turner'
p3859
sS'White Liar'
p3860
S'Miranda Lambert'
p3861
sS'Awful, Beautiful Life'
p3862
S'Darryl Worley'
p3863
sS'One Wing In The Fire'
p3864
S'Trent Tomlinson'
p3865
sS"It's So Hard"
p3866
S'Big Punisher Featuring Donell Jones'
p3867
sS'A New Day Has Come'
p3868
S'Celine Dion'
p3869
sS"Talkin' To Me"
p3870
S'Amerie'
p3871
sS'Roc Boys (And The Winner Is)...'
p3872
S'Jay-Z'
p3873
sS"The Remedy (I Won't Worry)"
p3874
S'Jason Mraz'
p3875
sS'If U Seek Amy'
p3876
S'Britney Spears'
p3877
sS'Like A Star'
p3878
S'Corinne Bailey Rae'
p3879
sS"No More (Baby I'ma Do Right)"
p3880
S'3LW'
p3881
sS'Stereo Love'
p3882
S'Edward Maya & Vika Jigulina'
p3883
sS'Foolish'
p3884
S'Ashanti'
p3885
sS'Last Christmas'
p3886
S'Glee Cast'
p3887
sS'Incomplete'
p3888
S'Backstreet Boys'
p3889
sS"Let's Get Crazy"
p3890
S'Hannah Montana'
p3891
sS'Flying Without Wings'
p3892
S'Ruben Studdard'
p3893
sS"Can't Stop"
p3894
S'Red Hot Chili Peppers'
p3895
sS"What's Going On"
p3896
S'All Star Tribute'
p3897
sS'Cannibal'
p3898
S'Ke$ha'
p3899
sS"Don't"
p3900
S'Billy Currington'
p3901
sS'So Sexy Chapter II (Like This)'
p3902
S'Twista Featuring R. Kelly'
p3903
sS'Smooth Criminal'
p3904
S'Alien Ant Farm'
p3905
sS'Baby Don t Cry (Keep Ya Head Up II)'
p3906
S'2Pac + Outlawz'
p3907
sS"Here's To The Night"
p3908
S'Eve 6'
p3909
sS'Look At Us'
p3910
S'Sarina Paris'
p3911
sS'Big Blue Note'
p3912
S'Toby Keith'
p3913
sS'The World'
p3914
S'Brad Paisley'
p3915
sS'Feels Like Today'
p3916
S'Rascal Flatts'
p3917
sS'Psycho'
p3918
S'Puddle Of Mudd'
p3919
sS'We Made It'
p3920
S'Busta Rhymes Featuring Linkin Park'
p3921
sS"It's Goin' Down"
p3922
S'Yung Joc'
p3923
sS'A Change Is Gonna Come'
p3924
S'Adam Lambert'
p3925
sS'The Wreckoning'
p3926
S'Boomkat'
p3927
sS"When God-Fearin' Women Get The Blues"
p3928
S'Martina McBride'
p3929
sS'I Wanna Love You'
p3930
S'Akon Featuring Snoop Dogg'
p3931
sS'Love Like Woe'
p3932
S'The Ready Set'
p3933
sS'Love s The Only House'
p3934
S'Martina McBride'
p3935
sS'Straight Up'
p3936
S'Chante Moore'
p3937
sS'How You Want That'
p3938
S'Loon Featuring Kelis'
p3939
sS'Girls In Their Summer Clothes'
p3940
S'Bruce Springsteen'
p3941
sS'Only'
p3942
S'Nine Inch Nails'
p3943
sS'Easy'
p3944
S'Paula DeAnda Featuring Bow Wow'
p3945
sS"Hollywood's Not America"
p3946
S'Ferras'
p3947
sS'Circle'
p3948
S'Marques Houston'
p3949
sS'Wait A Minute'
p3950
S'The Pussycat Dolls Featuring Timbaland'
p3951
sS'Not Afraid'
p3952
S'Eminem'
p3953
sS"What Was I Thinkin'"
p3954
S'Dierks Bentley'
p3955
sS'My Way'
p3956
S'Limp Bizkit'
p3957
sS'Trying To Stop Your Leaving'
p3958
S'Dierks Bentley'
p3959
sS'Let s Get Married'
p3960
S'Jagged Edge'
p3961
sS'Take A Message'
p3962
S'Remy Shand'
p3963
sS'Halo'
p3964
S'Beyonce'
p3965
sS'Catch Me'
p3966
S'Demi Lovato'
p3967
sS'Another One Bites The Dust'
p3968
S'Glee Cast'
p3969
sS'Three Wooden Crosses'
p3970
S'Randy Travis'
p3971
sS'When The Sun Goes Down'
p3972
S'Kenny Chesney & Uncle Kracker'
p3973
sS"Don't You Wanna Stay"
p3974
S'Jason Aldean With Kelly Clarkson'
p3975
sS"Mama's Song"
p3976
S'Carrie Underwood'
p3977
sS'Proud Of The House We Built'
p3978
S'Brooks & Dunn'
p3979
sS"Don't Talk"
p3980
S'Jon B'
p3981
sS"Feelin' On Yo Booty"
p3982
S'R. Kelly'
p3983
sS'Lay It Down'
p3984
S'Lloyd'
p3985
sS'Rush'
p3986
S'Aly & AJ'
p3987
sS'Simply Being Loved (Somnambulist)'
p3988
S'BT'
p3989
sS'Icky Thump'
p3990
S'The White Stripes'
p3991
sS'Zoom'
p3992
S"Lil' Boosie Featuring Yung Joc"
p3993
sS"Something's Gotta Give"
p3994
S'LeAnn Rimes'
p3995
sS'You Found Me'
p3996
S'The Fray'
p3997
sS'I Think I m In Love With You'
p3998
S'Jessica Simpson'
p3999
sS'Hope She Cheats On You (With A Basketball Player)'
p4000
S'Marsha Ambrosius'
p4001
sS'Awnaw'
p4002
S'Nappy Roots'
p4003
sS'Alright'
p4004
S'Darius Rucker'
p4005
sS'Strip Me'
p4006
S'Natasha Bedingfield'
p4007
sS"That's What I Love About Sunday"
p4008
S'Craig Morgan'
p4009
sS'Nothing In This World'
p4010
S'Keke Wyatt Featuring Avant'
p4011
sS'Eleanor Rigby'
p4012
S'David Cook'
p4013
sS'Work That'
p4014
S'Mary J. Blige'
p4015
sS'Sympathy For The Devil'
p4016
S'The Rolling Stones'
p4017
sS'No Me Dejes De Querer'
p4018
S'Gloria Estefan'
p4019
sS'Lose My Breath'
p4020
S"Destiny's Child"
p4021
sS'Midwest Swing'
p4022
S'St. Lunatics'
p4023
sS'Marco Polo'
p4024
S"Bow Wow Featuring Soulja Boy Tell'em"
p4025
sS'Insatiable'
p4026
S'Darren Hayes'
p4027
sS"I'm Alive"
p4028
S'Kenny Chesney With Dave Matthews'
p4029
sS'Vulnerable'
p4030
S'Secondhand Serenade'
p4031
sS'Liquid Dreams'
p4032
S'O-Town'
p4033
sS'Sing For The Moment'
p4034
S'Eminem'
p4035
sS'Save The Last Dance For Me'
p4036
S'Michael Buble'
p4037
sS'One More Day'
p4038
S'Diamond Rio'
p4039
sS'Who Did You Think I Was'
p4040
S'John Mayer Trio'
p4041
sS"O Let's Do It"
p4042
S'Waka Flocka Flame'
p4043
sS'One More Time'
p4044
S'Daft Punk'
p4045
sS'What Do You Want'
p4046
S'Jerrod Niemann'
p4047
sS'Thank God I Found You'
p4048
S'Mariah Carey Featuring Joe'
p4049
sS'What Do Ya Think About That'
p4050
S'Montgomery Gentry'
p4051
sS'Slow'
p4052
S'Kylie Minogue'
p4053
sS'Animal'
p4054
S'Neon Trees'
p4055
sS'Do What You Gotta Do'
p4056
S'Garth Brooks'
p4057
sS'Take Away'
p4058
S'Missy "Misdemeanor" Elliott Featuring Ginuwine & Tweet'
p4059
sS'Shawty'
p4060
S'Plies Featuring T-Pain'
p4061
sS'Never Grow Up'
p4062
S'Taylor Swift'
p4063
sS'Good Little Girls'
p4064
S'Blue County'
p4065
sS'1901'
p4066
S'Phoenix'
p4067
sS'Crash'
p4068
S'Gwen Stefani'
p4069
sS'Re-arranged'
p4070
S'Limp Bizkit'
p4071
sS"Throw Some D's"
p4072
S'Rich Boy Featuring Polow Da Don'
p4073
sS'Winner At A Losing Game'
p4074
S'Rascal Flatts'
p4075
sS'In The Deep'
p4076
S'Bird York'
p4077
sS"I'm A Hustla"
p4078
S'Cassidy'
p4079
sS"I'm Back"
p4080
S'T.I.'
p4081
sS'Shake Your Pom Pom'
p4082
S'Missy Elliott'
p4083
sS"Can't Fight The Moonlight"
p4084
S'LeAnn Rimes'
p4085
sS'When I Think About Angels'
p4086
S"Jamie O'Neal"
p4087
sS'Girl Tonite'
p4088
S'Twista Featuring Trey Songz'
p4089
sS'Glamorous'
p4090
S'Fergie Featuring Ludacris'
p4091
sS'You And Me'
p4092
S'Dave Matthews Band'
p4093
sS'All For You'
p4094
S'Janet'
p4095
sS"Sugar, We're Goin' Down"
p4096
S'Fall Out Boy'
p4097
sS'Open My Heart'
p4098
S'Yolanda Adams'
p4099
sS'Save Me'
p4100
S'Shinedown'
p4101
sS'Hands Clean'
p4102
S'Alanis Morissette'
p4103
sS'Chinese Democracy'
p4104
S"Guns N' Roses"
p4105
sS"Chopped 'N' Skrewed"
p4106
S'T-Pain Featuring Ludacris'
p4107
sS'Duffle Bag Boy'
p4108
S'Playaz Circle Featuring Lil Wayne'
p4109
sS'Pop, Lock & Drop It'
p4110
S'Huey'
p4111
sS'Where The Stars And Stripes And The Eagle Fly'
p4112
S'Aaron Tippin'
p4113
sS'Body Language'
p4114
S'Jesse McCartney Featuring T-Pain'
p4115
sS"Bow Wow (That's My Name)"
p4116
S'Lil Bow Wow'
p4117
sS'Spotlight'
p4118
S'Gucci Mane Featuring Usher'
p4119
sS'Homecoming'
p4120
S'Kanye West Featuring Chris Martin'
p4121
sS'Into The Ocean'
p4122
S'Blue October'
p4123
sS'Believe'
p4124
S'Staind'
p4125
sS"He Can't Love U"
p4126
S'Jagged Edge'
p4127
sS'I Like Them Girls'
p4128
S'Tyrese'
p4129
sS'My Best Friend'
p4130
S'Tim McGraw'
p4131
sS'Out Of My Heart (Into Your Head)'
p4132
S'BBMak'
p4133
sS"My Drink N' My 2 Step"
p4134
S'Cassidy Featuring Swizz Beatz'
p4135
sS'Upside Down'
p4136
S'Jack Johnson'
p4137
sS'Tonight'
p4138
S'Jonas Brothers'
p4139
sS'September'
p4140
S'Daughtry'
p4141
sS'Shout To The Lord'
p4142
S'American Idol Top 8'
p4143
sS'More Than A Woman'
p4144
S'Aaliyah'
p4145
sS'Sexual (Li Da Di)'
p4146
S'Amber'
p4147
sS'Stay Fly'
p4148
S'Three 6 Mafia Featuring Young Buck & Eightball & MJG'
p4149
sS'Hey Mama'
p4150
S'Black Eyed Peas'
p4151
sS'Pass The Courvoisier Part II'
p4152
S'Busta Rhymes Featuring P. Diddy & Pharrell'
p4153
sS'When There Was Me And You'
p4154
S'Vanessa Anne Hudgens'
p4155
sS'Heaven Sent'
p4156
S'Keyshia Cole'
p4157
sS"Life Ain't Always Beautiful"
p4158
S'Gary Allan'
p4159
sS'Do It Again (Put Ya Hands Up)'
p4160
S'Jay-Z Featuring Beanie Sigel'
p4161
sS"Ready, Set, Don't Go"
p4162
S'Billy Ray Cyrus With Miley Cyrus'
p4163
sS'Kryptonite'
p4164
S'3 Doors Down'
p4165
sS'Toxic'
p4166
S'Glee Cast'
p4167
sS'Innocent'
p4168
S'Taylor Swift'
p4169
sS'Fire Flame'
p4170
S'Birdman Featuring Lil Wayne'
p4171
sS'Touch It'
p4172
S'Busta Rhymes'
p4173
sS'Falling Down'
p4174
S'Selena Gomez & The Scene'
p4175
sS'No More'
p4176
S'Ruff Endz'
p4177
sS'Fancy'
p4178
S'Drake Featuring T.I. & Swizz Beatz'
p4179
sS'What Time Is It'
p4180
S'High School Musical 2 Cast'
p4181
sS'Tal Vez'
p4182
S'Ricky Martin'
p4183
sS'Superstar'
p4184
S'Taylor Swift'
p4185
sS"She's Not Just A Pretty Face"
p4186
S'Shania Twain'
p4187
sS"Int'l Players Anthem (I Choose You)"
p4188
S'UGK Featuring OutKast'
p4189
sS'Give Me You'
p4190
S'Mary J. Blige'
p4191
sS"Won't Go Home Without You"
p4192
S'Maroon 5'
p4193
sS'Reverse Cowgirl'
p4194
S'T-Pain'
p4195
sS"Burnin' Up"
p4196
S'Jonas Brothers'
p4197
sS'Crazy For This Girl'
p4198
S'Evan And Jaron'
p4199
sS'Grillz'
p4200
S'Nelly Featuring Paul Wall, Ali & Gipp'
p4201
sS'Bulletproof'
p4202
S'La Roux'
p4203
sS"I'm So Paid"
p4204
S'Akon Featuring Lil Wayne & Young Jeezy'
p4205
sS'First Time'
p4206
S'Lifehouse'
p4207
sS"I'd Rather"
p4208
S'Luther Vandross'
p4209
sS'Fall'
p4210
S'Clay Walker'
p4211
sS'Long Way 2 Go'
p4212
S'Cassie'
p4213
sS'Jar Of Hearts'
p4214
S'Christina Perri'
p4215
sS'Shadow'
p4216
S'Ashlee Simpson'
p4217
sS'Dreams'
p4218
S'The Game'
p4219
sS'Tempted To Touch'
p4220
S'Rupee'
p4221
sS"What'Chu Like"
p4222
S'Da Brat Featuring Tyrese'
p4223
sS'Lo Que Son Las Cosas'
p4224
S'Anais'
p4225
sS'Beautiful Soul'
p4226
S'Jesse McCartney'
p4227
sS'Mr. Carter'
p4228
S'Lil Wayne Featuring Jay-Z'
p4229
sS'I Wanna'
p4230
S'The All-American Rejects'
p4231
sS'Making Memories Of Us'
p4232
S'Keith Urban'
p4233
sS'Untitled (How Can This Happen To Me?)'
p4234
S'Simple Plan'
p4235
sS'Do You Remember'
p4236
S'Jay Sean Featuring Sean Paul & Lil Jon'
p4237
sS"Don't Matter"
p4238
S'Akon'
p4239
sS'Moving Mountains'
p4240
S'Usher'
p4241
sS"Still Tippin'"
p4242
S'Mike Jones Featuring Slim Thug & Paul Wall'
p4243
sS'Undertow'
p4244
S'Timbaland Featuring The Fray & Esthero'
p4245
sS'Trade It All'
p4246
S'Fabolous Featuring P. Diddy & Jagged Edge'
p4247
sS'Never Say Never'
p4248
S'Justin Bieber Featuring Jaden Smith'
p4249
sS"Steady Mobbin'"
p4250
S'Young Money Featuring Gucci Mane'
p4251
sS'Champagne Life'
p4252
S'Ne-Yo'
p4253
sS'Senorita'
p4254
S'Justin Timberlake'
p4255
sS"Drop It Like It's Hot"
p4256
S'Snoop Dogg Featuring Pharrell'
p4257
sS'Stranded (Haiti Mon Amour)'
p4258
S'Jay-Z, Bono, The Edge & Rihanna'
p4259
sS"She's My Kind Of Rain"
p4260
S'Tim McGraw'
p4261
sS'Come Close To Me'
p4262
S'Common Featuring Mary J. Blige'
p4263
sS'Ordinary Day'
p4264
S'Vanessa Carlton'
p4265
sS'Thunder'
p4266
S'Boys Like Girls'
p4267
sS'No Surprise'
p4268
S'Daughtry'
p4269
sS'All Or Nothing'
p4270
S'Theory Of A Deadman'
p4271
sS'The Great Beyond'
p4272
S'R.E.M.'
p4273
sS'Did You Wrong'
p4274
S'Pleasure P.'
p4275
sS'Do You Believe Me Now'
p4276
S'Jimmy Wayne'
p4277
sS'Signs'
p4278
S'Snoop Dogg Featuring Charlie Wilson & Justin Timberlake'
p4279
sS'Mr. Jones'
p4280
S'Mike Jones'
p4281
sS'Hey Ya!'
p4282
S'OutKast'
p4283
sS'Irresistible'
p4284
S'Jessica Simpson'
p4285
sS'If You Were Mine'
p4286
S'Marcos Hernandez'
p4287
sS'Lean Wit It, Rock Wit It'
p4288
S'Dem Franchize Boyz Featuring Lil Peanut & Charlay'
p4289
sS'Let s Make Love'
p4290
S'Faith Hill With Tim McGraw'
p4291
sS'Slow Jamz'
p4292
S'Twista Featuring Kanye West & Jamie Foxx'
p4293
sS"Tell Me What's It Gonna Be"
p4294
S'Brian McKnight Featuring Jermaine Dupri'
p4295
sS'Hoedown Throwdown'
p4296
S'Miley Cyrus'
p4297
sS'Naggin'
p4298
S'Ying Yang Twins'
p4299
sS'Monster'
p4300
S'Kanye West Featuring Jay-Z, Rick Ross, Bon Iver & Nicki Minaj'
p4301
sS'Heartbreak Warfare'
p4302
S'John Mayer'
p4303
sS'Tengo Un Amor'
p4304
S'Toby Love Featuring Rakim & Ken-Y'
p4305
sS'Some Things Never Change'
p4306
S'Tim McGraw'
p4307
sS'Chemicals React'
p4308
S'Aly & AJ'
p4309
sS'All I Need'
p4310
S'Fat Joe Featuring Tony Sunshine & Armageddon'
p4311
sS'Diamonds'
p4312
S'Fabolous Featuring Young Jeezy'
p4313
sS"Bitches Ain't S**t"
p4314
S'Ben Folds'
p4315
sS'Here Is Gone'
p4316
S'Goo Goo Dolls'
p4317
sS'Bonfire'
p4318
S'Craig Morgan'
p4319
sS"Cleanin' Out My Closet"
p4320
S'Eminem'
p4321
sS'Cowboy Casanova'
p4322
S'Carrie Underwood'
p4323
sS'Total Eclipse Of The Heart'
p4324
S'Glee Cast Featuring Jonathan Groff'
p4325
sS'Shoulda Let You Go'
p4326
S'Keyshia Cole Introducing Amina'
p4327
sS"Can't Believe It"
p4328
S'T-Pain Featuring Lil Wayne'
p4329
sS'I Should Have Cheated'
p4330
S'Keyshia Cole'
p4331
sS'Up All Night'
p4332
S'Drake Featuring Nicki Minaj'
p4333
sS'My Boo'
p4334
S'Usher And Alicia Keys'
p4335
sS'Love Like Crazy'
p4336
S'Lee Brice'
p4337
sS'25 To Life'
p4338
S'Eminem'
p4339
sS'You re A God'
p4340
S'Vertical Horizon'
p4341
sS'Heartbreaker'
p4342
S'Mariah Carey Featuring Jay-Z'
p4343
sS"I'm Single"
p4344
S'Lil Wayne'
p4345
sS'With You'
p4346
S'Chris Brown'
p4347
sS'Harder To Breathe'
p4348
S'Maroon5'
p4349
sS"Big Things Poppin' (Do It)"
p4350
S'T.I.'
p4351
sS"Jessie's Girl"
p4352
S'Glee Cast'
p4353
sS'The Time Of My Life'
p4354
S'David Cook'
p4355
sS'You ll Always Be Loved By Me'
p4356
S'Brooks'
p4357
sS'Request Line'
p4358
S'Black Eyed Peas Featuring Macy Gray'
p4359
sS'Ni Una Sola Palabra'
p4360
S'Paulina Rubio'
p4361
sS"White Tee's"
p4362
S'Dem Franchize Boyz'
p4363
sS'Knuck If You Buck'
p4364
S'Crime Mob Featuring Lil Scrappy'
p4365
sS'(Reach Up For The) Sunrise'
p4366
S'Duran Duran'
p4367
sS'Landslide'
p4368
S'Dixie Chicks'
p4369
sS'Some Girls (Dance With Women)'
p4370
S'JC Chasez Featuring Dirt McGirt'
p4371
sS'Got Money'
p4372
S'Lil Wayne Featuring T-Pain'
p4373
sS"Why Don't You & I"
p4374
S'Santana Featuring Alex Band Or Chad Kroeger'
p4375
sS'Liar'
p4376
S'Profyle'
p4377
sS"Hit 'Em Up Style (Oops!)"
p4378
S'Blu Cantrell'
p4379
sS'Stuck'
p4380
S'Stacie Orrico'
p4381
sS'Got Me Going'
p4382
S'DAY26'
p4383
sS'Telephone'
p4384
S'Glee Cast'
p4385
sS'Fall To Pieces'
p4386
S'Velvet Revolver'
p4387
sS'I Want You'
p4388
S'Janet Jackson'
p4389
sS'Bad Habits'
p4390
S'Maxwell'
p4391
sS'Diamond Girl'
p4392
S'Ryan Leslie'
p4393
sS'Just Lose It'
p4394
S'Eminem'
p4395
sS'Our Time Now'
p4396
S"Plain White T's"
p4397
sS'What It Feels Like For A Girl'
p4398
S'Madonna'
p4399
sS'I Keep Looking'
p4400
S'Sara Evans'
p4401
sS'Oye Mi Canto'
p4402
S'N.O.R.E. Featuring Daddy Yankee, Nina Sky, Gem Star & Big Mato'
p4403
sS'You And Your Heart'
p4404
S'Jack Johnson'
p4405
sS'Top Back'
p4406
S'T.I.'
p4407
sS'Pass That Dutch'
p4408
S'Missy Elliott'
p4409
sS'Speak Now'
p4410
S'Taylor Swift'
p4411
sS'Roll With Me'
p4412
S'Montgomery Gentry'
p4413
sS'My Front Porch Looking In'
p4414
S'Lonestar'
p4415
sS"I'm Tryin'"
p4416
S'Trace Adkins'
p4417
sS'Animal I Have Become'
p4418
S'Three Days Grace'
p4419
sS'What You Want'
p4420
S'DMX Featuring Sisqo'
p4421
sS"Who's That Chick?"
p4422
S'David Guetta Featuring Rihanna'
p4423
sS'Show Me The Meaning Of Being Lonely'
p4424
S'Backstreet Boys'
p4425
sS'She Hates Me'
p4426
S'Puddle Of Mudd'
p4427
sS'All Eyez On Me'
p4428
S'Monica'
p4429
sS'Crying Out For Me'
p4430
S'Mario'
p4431
sS"I'm A King"
p4432
S'P$C Featuring T.I. & Lil Scrappy'
p4433
sS'More'
p4434
S'Usher'
p4435
sS'Picture'
p4436
S'Kid Rock Featuring Sheryl Crow Or Allison Moorer'
p4437
sS'Ready For Whatever'
p4438
S'T.I.'
p4439
sS'Oh No'
p4440
S'Mos Def & Pharoahe Monch Featuring Nate Dogg'
p4441
sS'Guerrilla Radio'
p4442
S'Rage Against The Machine'
p4443
sS'Put Your Records On'
p4444
S'Corinne Bailey Rae'
p4445
sS'Tell Her'
p4446
S'Lonestar'
p4447
sS'Let Me Down Easy'
p4448
S'Billy Currington'
p4449
sS'Bohemian Rhapsody'
p4450
S'Glee Cast Featuring Jonathan Groff'
p4451
sS'Lay Low'
p4452
S'Snoop Dogg Featuring Master P, Nate Dogg, Butch Cassidy & Tha Eastsidaz'
p4453
sS'New Morning'
p4454
S'Alpha Rev'
p4455
sS'You All Dat'
p4456
S'Baha Men With Imani Coppola'
p4457
sS'Temporary Home'
p4458
S'Carrie Underwood'
p4459
sS'Sing!'
p4460
S'Glee Cast'
p4461
sS"Nobody's Home"
p4462
S'Avril Lavigne'
p4463
sS'Start Of Something New'
p4464
S'Zac Efron, Andrew Seeley & Vanessa Anne Hudgens'
p4465
sS'Overnight Celebrity'
p4466
S'Twista'
p4467
sS"Don't Take Your Love Away"
p4468
S'Avant'
p4469
sS'Born To Fly'
p4470
S'Sara Evans'
p4471
sS'Little Things'
p4472
S'India.Arie'
p4473
sS'Cool'
p4474
S'Gwen Stefani'
p4475
sS'The Way You Move'
p4476
S'OutKast Featuring Sleepy Brown'
p4477
sS'Supernatural Superserious'
p4478
S'R.E.M.'
p4479
sS'Happy Xmas (War Is Over)'
p4480
S'The Fray'
p4481
sS'Like We Never Loved At All'
p4482
S'Faith Hill'
p4483
sS'Cold Day In July'
p4484
S'Dixie Chicks'
p4485
sS'Tilt Ya Head Back'
p4486
S'Nelly & Christina Aguilera'
p4487
sS'You Know My Name'
p4488
S'Chris Cornell'
p4489
sS'Tie Me Down'
p4490
S'New Boyz Featuring Ray J'
p4491
sS'I Saw God Today'
p4492
S'George Strait'
p4493
sS'Chicks Dig It'
p4494
S'Chris Cagle'
p4495
sS'Go Hard'
p4496
S'DJ Khaled Featuring Kanye West & T-Pain'
p4497
sS'Peacekeeper'
p4498
S'Fleetwood Mac'
p4499
sS'Bigger Than My Body'
p4500
S'John Mayer'
p4501
sS'Hey Stephen'
p4502
S'Taylor Swift'
p4503
sS'Ordinary Girl'
p4504
S'Hannah Montana'
p4505
sS'The Greatest Romance Ever Sold'
p4506
S'Prince'
p4507
sS'Clothes Off!!'
p4508
S'Gym Class Heroes'
p4509
sS'Boston'
p4510
S'Augustana'
p4511
sS'U Smile'
p4512
S'Justin Bieber'
p4513
sS'15 Minutes'
p4514
S'Marc Nelson'
p4515
sS'My First Love'
p4516
S'Avant Featuring Ketara Wyatt'
p4517
sS'Live Like You Were Dying'
p4518
S'Tim McGraw'
p4519
sS'Pop That Booty'
p4520
S'Marques Houston Featuring Jermaine "JD" Dupri'
p4521
sS'When Somebody Loves You'
p4522
S'Alan Jackson'
p4523
sS"You're Beautiful"
p4524
S'James Blunt'
p4525
sS'8th Of November'
p4526
S'Big & Rich'
p4527
sS'Tough Little Boys'
p4528
S'Gary Allan'
p4529
sS'Little Sister'
p4530
S'Queens Of The Stone Age'
p4531
sS'Take Me There'
p4532
S'Rascal Flatts'
p4533
sS'What Am I Gonna Do'
p4534
S'Tyrese'
p4535
sS'Cuando Me Enamoro'
p4536
S'Enrique Iglesias Featuring Juan Luis Guerra'
p4537
sS'Why?'
p4538
S'Jadakiss Featuring Anthony Hamilton'
p4539
sS'I Remember'
p4540
S'Keyshia Cole'
p4541
sS"Live Like We're Dying"
p4542
S'Kris Allen'
p4543
sS'Oklahoma'
p4544
S'Billy Gilman'
p4545
sS'Bad Girlfriend'
p4546
S'Theory Of A Deadman'
p4547
sS'Carry Out'
p4548
S'Timbaland Featuring Justin Timberlake'
p4549
sS'Gangsta Nation'
p4550
S'Westside Connection Featuring Nate Dogg'
p4551
sS'Maps'
p4552
S'Yeah Yeah Yeahs'
p4553
sS'No More Rain (In This Cloud)'
p4554
S'Angie Stone'
p4555
sS'Wrapped'
p4556
S'George Strait'
p4557
sS'Redneck Woman'
p4558
S'Gretchen Wilson'
p4559
sS"Get It Poppin'"
p4560
S'Fat Joe Featuring Nelly'
p4561
sS'Say Hey (I Love You)'
p4562
S'Michael Franti & Spearhead Featuring Cherine Anderson'
p4563
sS'N Dey Say'
p4564
S'Nelly'
p4565
sS'Misery Business'
p4566
S'Paramore'
p4567
sS'Okay'
p4568
S'Nivea Featuring Lil Jon & YoungBloodZ'
p4569
sS'Better Than Me'
p4570
S'Hinder'
p4571
sS'The First Cut Is The Deepest'
p4572
S'Sheryl Crow'
p4573
sS'Bizounce'
p4574
S'Olivia'
p4575
sS'So Seductive'
p4576
S'Tony Yayo Featuring 50 Cent'
p4577
sS"Comin' To Your City"
p4578
S'Big & Rich'
p4579
sS'The Catalyst'
p4580
S'Linkin Park'
p4581
sS'Through The Fire And Flames'
p4582
S'Dragonforce'
p4583
sS'Bring It On Home'
p4584
S'Little Big Town'
p4585
sS'My Wish'
p4586
S'Rascal Flatts'
p4587
sS'Jenny From The Block'
p4588
S'Jennifer Lopez Featuring Styles & Jadakiss'
p4589
sS'Shut Up And Drive'
p4590
S'Rihanna'
p4591
sS"You'll Think Of Me"
p4592
S'Keith Urban'
p4593
sS'Oops (Oh My)'
p4594
S'Tweet'
p4595
sS'It s So Hard'
p4596
S'Big Punisher Featuring Donell Jones'
p4597
sS'Boyfriend'
p4598
S'Ashlee Simpson'
p4599
sS"I'm Ready"
p4600
S'Cherie'
p4601
sS"99.9% Sure (I've Never Been Here Before)"
p4602
S'Brian McComas'
p4603
sS'Go On'
p4604
S'George Strait'
p4605
sS'Miss Murder'
p4606
S'AFI'
p4607
sS'Snow (Hey Oh)'
p4608
S'Red Hot Chili Peppers'
p4609
sS'Walk A Little Straighter'
p4610
S'Billy Currington'
p4611
sS'Pretty Boy Swag'
p4612
S"Soulja Boy Tell'em"
p4613
sS'Steady, As She Goes'
p4614
S'The Raconteurs'
p4615
sS'Courtesy Of The Red, White And Blue (The Angry American)'
p4616
S'Toby Keith'
p4617
sS'Love Story'
p4618
S'Taylor Swift'
p4619
sS'Outside Looking In'
p4620
S'Jordan Pruitt'
p4621
sS"If I Can't"
p4622
S'50 Cent'
p4623
sS'Faded'
p4624
S'SoulDecision Featuring Thrust'
p4625
sS'Love This Pain'
p4626
S'Lady Antebellum'
p4627
sS'TiK ToK'
p4628
S'Ke$ha'
p4629
sS"It's A Great Day To Be Alive"
p4630
S'Travis Tritt'
p4631
sS'So Excited'
p4632
S'Janet Featuring Khia'
p4633
sS"I'm Gonna Miss Her (The Fishin' Song)"
p4634
S'Brad Paisley'
p4635
sS'Mr. Rager'
p4636
S'Kid Cudi'
p4637
sS'Fly With Me'
p4638
S'Jonas Brothers'
p4639
sS'Bossy'
p4640
S'Kelis Featuring Too $hort'
p4641
sS"And I Am Telling You I'm Not Going"
p4642
S'Glee Cast Featuring Amber Riley'
p4643
sS'Run This Town'
p4644
S'Jay-Z, Rihanna & Kanye West'
p4645
sS'Crazy Town'
p4646
S'Jason Aldean'
p4647
sS"Show Me What I'm Looking For"
p4648
S'Carolina Liar'
p4649
sS'Never Had A Dream Come True'
p4650
S'S Club 7'
p4651
sS"If You're Gone"
p4652
S'matchbox twenty'
p4653
sS'Could I Have This Kiss Forever'
p4654
S'Whitney Houston'
p4655
sS'Flathead'
p4656
S'The Fratellis'
p4657
sS'Where Were You (When The World Stopped Turning)'
p4658
S'Alan Jackson'
p4659
sS"Prayin' For Daylight"
p4660
S'Rascal Flatts'
p4661
sS'I Will Not Bow'
p4662
S'Breaking Benjamin'
p4663
sS'Alcohol'
p4664
S'Brad Paisley'
p4665
sS"You're Gonna Miss This"
p4666
S'Trace Adkins'
p4667
sS'The Boxer'
p4668
S'Lee DeWyze'
p4669
sS'Firecracker'
p4670
S'Josh Turner'
p4671
sS'Nasty Girl'
p4672
S'The Notorious B.I.G. Featuring Diddy, Nelly, Jagged Edge & Avery Storm'
p4673
sS'Meet Me Halfway'
p4674
S'The Black Eyed Peas'
p4675
sS"He Wasn't Man Enough"
p4676
S'Toni Braxton'
p4677
sS'Breath'
p4678
S'Breaking Benjamin'
p4679
sS'Bye Bye Bye'
p4680
S"'N Sync"
p4681
sS"Jumpin', Jumpin'"
p4682
S"Destiny's Child"
p4683
sS'Love In This Club, Part II'
p4684
S'Usher Featuring Beyonce & Lil Wayne'
p4685
sS'Always The Love Songs'
p4686
S'Eli Young Band'
p4687
sS'The Way You Love Me'
p4688
S'Faith Hill'
p4689
sS'G d Up'
p4690
S'Snoop Dogg Presents Tha Eastsidaz'
p4691
sS'California Gurls'
p4692
S'Katy Perry Featuring Snoop Dogg'
p4693
sS'I Think They Like Me'
p4694
S'Dem Franchize Boyz Featuring Jermaine Dupri, Da Brat & Bow Wow'
p4695
sS'Hate Me'
p4696
S'Blue October'
p4697
sS"A Woman's Worth"
p4698
S'Alicia Keys'
p4699
sS"Drinkin' Bone"
p4700
S'Tracy Byrd'
p4701
sS'Southern Hospitality'
p4702
S'Ludacris'
p4703
sS'It Was'
p4704
S'Chely Wright'
p4705
sS'Power'
p4706
S'Kanye West Featuring Dwele'
p4707
sS'Because You Love Me'
p4708
S'Jo Dee Messina'
p4709
sS'Holding You Down (Goin In Circles)'
p4710
S'Jazmine Sullivan'
p4711
sS'Shadowplay'
p4712
S'The Killers'
p4713
sS"U Don't Have To Call"
p4714
S'Usher'
p4715
sS'International Harvester'
p4716
S'Craig Morgan'
p4717
sS'Dangerous'
p4718
S'Kardinal Offishall Featuring Akon'
p4719
sS'What A Beautiful Day'
p4720
S'Chris Cagle'
p4721
sS'Unfaithful'
p4722
S'Rihanna'
p4723
sS'Rain'
p4724
S'Creed'
p4725
sS"Don't Ask Me How I Know"
p4726
S'Bobby Pinson'
p4727
sS'Call On Me'
p4728
S'Janet & Nelly'
p4729
sS'Rhythm Divine'
p4730
S'Enrique Iglesias'
p4731
sS'Shortie Like Mine'
p4732
S'Bow Wow Featuring Chris Brown & Johnta Austin'
p4733
sS'You Know That I Love You'
p4734
S'Donell Jones'
p4735
sS'Face Drop'
p4736
S'Sean Kingston'
p4737
sS'Go!'
p4738
S'Common'
p4739
sS'Start All Over'
p4740
S'Miley Cyrus'
p4741
sS'Ice Ice Baby'
p4742
S'Glee Cast'
p4743
sS"Pushin' Me Away"
p4744
S'Jonas Brothers'
p4745
sS'Dare You To Move'
p4746
S'Switchfoot'
p4747
sS'Put Me Down'
p4748
S'Donell Jones'
p4749
sS'Tonight I Wanna Be Your Man'
p4750
S'Andy Griggs'
p4751
sS"Can't Get You Out Of My Head"
p4752
S'Kylie Minogue'
p4753
sS'My Neck, My Back'
p4754
S'Khia Featuring DSD'
p4755
sS'Last Chance'
p4756
S'Ginuwine'
p4757
sS'Then They Do'
p4758
S'Trace Adkins'
p4759
sS'Lost!'
p4760
S'Coldplay With Jay-Z'
p4761
sS'Dead And Gone'
p4762
S'T.I. Featuring Justin Timberlake'
p4763
sS'The Star Spangled Banner'
p4764
S'Whitney Houston'
p4765
sS'I Know You See It'
p4766
S"Yung Joc Featuring Brandy 'Ms. B.' Hambrick"
p4767
sS'Not Today'
p4768
S'Mary J. Blige Featuring Eve'
p4769
sS'Wipe Me Down'
p4770
S'Lil Boosie Featuring Foxx & Webbie'
p4771
sS'Whats Happnin!'
p4772
S'Ying Yang Twins Featuring Trick Daddy'
p4773
sS'Love Sex Magic'
p4774
S'Ciara Featuring Justin Timberlake'
p4775
sS'Wifey'
p4776
S'Next'
p4777
sS'Still Will'
p4778
S'50 Cent Featuring Akon'
p4779
sS"Who Says You Can't Go Home"
p4780
S'Bon Jovi'
p4781
sS'Speed'
p4782
S'Montgomery Gentry'
p4783
sS'When I See U'
p4784
S'Fantasia'
p4785
sS'There Goes My Life'
p4786
S'Kenny Chesney'
p4787
sS'Wat Da Hook Gon Be'
p4788
S'Murphy Lee Featuring Jermaine Dupri'
p4789
sS'You Can Do It'
p4790
S'Ice Cube Featuring Mack 10'
p4791
sS'She Let Herself Go'
p4792
S'George Strait'
p4793
sS"Don't Mess With The Radio"
p4794
S'Nivea'
p4795
sS'Brokenheartsville'
p4796
S'Joe Nichols'
p4797
sS'F*** You'
p4798
S'Lily Allen'
p4799
sS'If We Ever Meet Again'
p4800
S'Timbaland Featuring Katy Perry'
p4801
sS"Bartender Song (aka Sittin' At A Bar)"
p4802
S'Rehab'
p4803
sS'Knock Knock'
p4804
S'Monica'
p4805
sS'Bring On The Rain'
p4806
S'Jo Dee Messina With Tim McGraw'
p4807
sS"Let's Go (2004)"
p4808
S'Trick Daddy'
p4809
sS'Going On'
p4810
S'Gnarls Barkley'
p4811
sS"As She's Walking Away"
p4812
S'Zac Brown Band Featuring Alan Jackson'
p4813
sS'Right Round'
p4814
S'Flo Rida'
p4815
sS'Songs About Me'
p4816
S'Trace Adkins'
p4817
sS'Canadian Idiot'
p4818
S'Weird Al Yankovic'
p4819
sS"Don't Bother"
p4820
S'Shakira'
p4821
sS'Stutter'
p4822
S'Maroon 5'
p4823
sS'Gunpowder & Lead'
p4824
S'Miranda Lambert'
p4825
sS'Out Last Night'
p4826
S'Kenny Chesney'
p4827
sS'My Humps'
p4828
S'The Black Eyed Peas'
p4829
sS'Try It On My Own'
p4830
S'Whitney Houston'
p4831
sS'Hold My Hand'
p4832
S'Michael Jackson Duet With Akon'
p4833
sS"Do Somethin'"
p4834
S'Britney Spears'
p4835
sS'Private Emotion'
p4836
S'Ricky Martin Featuring Meja'
p4837
sS"I'll Be Around"
p4838
S'Daryl Hall  John Oates'
p4839
sS'Beautiful'
p4840
S'Glee Cast'
p4841
sS'Magic'
p4842
S'B.o.B Featuring Rivers Cuomo'
p4843
sS"Baby It's You"
p4844
S'JoJo Featuring Bow Wow'
p4845
sS"I'm On A Boat"
p4846
S'The Lonely Island Featuring T-Pain'
p4847
sS'According To You'
p4848
S'Orianthi'
p4849
sS"She Won't Be Lonely Long"
p4850
S'Clay Walker'
p4851
sS'It Must Be Love'
p4852
S'Alan Jackson'
p4853
sS'Last Dollar (Fly Away)'
p4854
S'Tim McGraw'
p4855
sS'No Problem'
p4856
S'Lil Scrappy'
p4857
sS"Can't Believe"
p4858
S'Faith Evans Featuring Carl Thomas'
p4859
sS'Where The Blacktop Ends'
p4860
S'Keith Urban'
p4861
sS'Riddle'
p4862
S'En Vogue'
p4863
sS'Pictures Of You'
p4864
S'The Last Goodnight'
p4865
sS'Stay Or Let It Go'
p4866
S'Brian McKnight'
p4867
sS"Who Are You When I'm Not Looking"
p4868
S'Blake Shelton'
p4869
sS"What I've Done"
p4870
S'Linkin Park'
p4871
sS'Just Like A Pill'
p4872
S'Pink'
p4873
sS'Cry For You'
p4874
S'September'
p4875
sS'Fifteen'
p4876
S'Taylor Swift'
p4877
sS'Anyway'
p4878
S'Martina McBride'
p4879
sS'Best I Ever Had'
p4880
S'Drake'
p4881
sS'F.U.R.B. (F U Right Back)'
p4882
S'Frankee'
p4883
sS'Lloro Por Ti'
p4884
S'Enrique Iglesias'
p4885
sS'That s What I m Looking For'
p4886
S'Da Brat'
p4887
sS'I Do!!'
p4888
S'Toya'
p4889
sS'I Got You'
p4890
S'Craig Morgan'
p4891
sS"Roun' The Globe"
p4892
S'Nappy Roots'
p4893
sS'My Chick Bad'
p4894
S'Ludacris Featuring Nicki Minaj'
p4895
sS'Monday Morning Church'
p4896
S'Alan Jackson'
p4897
sS'Love Of My Life (An Ode To Hip Hop)'
p4898
S'Erykah Badu Featuring Common'
p4899
sS'Time Warp'
p4900
S'Glee Cast'
p4901
sS'Any Other Night'
p4902
S'Sharissa'
p4903
sS'If Today Was Your Last Day'
p4904
S'Nickelback'
p4905
sS'A Little More Country Than That'
p4906
S'Easton Corbin'
p4907
sS'There It Is'
p4908
S'Ginuwine'
p4909
sS'Little Wonders'
p4910
S'Rob Thomas'
p4911
sS'Baby Girl'
p4912
S'Sugarland'
p4913
sS'Waiting For You'
p4914
S'Seal'
p4915
sS'Roses'
p4916
S'OutKast'
p4917
sS"He Didn't Have To Be"
p4918
S'Brad Paisley'
p4919
sS'Best Days Of Your Life'
p4920
S'Kellie Pickler'
p4921
sS"It's Your Life"
p4922
S'Francesca Battistelli'
p4923
sS'What s Your Fantasy'
p4924
S'Ludacris Featuring Shawna'
p4925
sS'Officially Missing You'
p4926
S'Tamia'
p4927
sS'Calabria'
p4928
S'Enur Featuring Natasja'
p4929
sS"Can't Tell Me Nothing"
p4930
S'Kanye West'
p4931
sS'Let Me'
p4932
S'Pat Green'
p4933
sS'No Matta What (Party All Night)'
p4934
S'Toya'
p4935
sS"You Can't Hide Beautiful"
p4936
S'Aaron Lines'
p4937
sS'Beautiful Flower'
p4938
S'India.Arie'
p4939
sS'Round & Round'
p4940
S'Selena Gomez & The Scene'
p4941
sS'P.I.M.P.'
p4942
S'50 Cent'
p4943
sS'I ll Be'
p4944
S'Reba McEntire'
p4945
sS'Why They Call It Falling'
p4946
S'Lee Ann Womack'
p4947
sS"In My Daughter's Eyes"
p4948
S'Martina McBride'
p4949
sS'Russian Roulette'
p4950
S'Rihanna'
p4951
sS'Gotta Go Solo'
p4952
S'Patti LaBelle Featuring Ron Isley'
p4953
sS'Independent Women Part I'
p4954
S"Destiny's Child"
p4955
sS'I Believe'
p4956
S'Fantasia'
p4957
sS"Cheatin'"
p4958
S'Sara Evans'
p4959
sS'Fighter'
p4960
S'Christina Aguilera'
p4961
sS"Guess Who's Back"
p4962
S'Scarface Featuring Jay-Z & Beanie Sigel'
p4963
sS'On The Way Down'
p4964
S'Ryan Cabrera'
p4965
sS'Stuck Like Glue'
p4966
S'Sugarland'
p4967
sS'Walked Outta Heaven'
p4968
S'Jagged Edge'
p4969
sS'Who Let The Dogs Out'
p4970
S'Baha Men'
p4971
sS'Ignition'
p4972
S'R. Kelly'
p4973
sS'Crazy Bitch'
p4974
S'Buckcherry'
p4975
sS'Ice Cream Paint Job'
p4976
S'Dorrough'
p4977
sS'Neighbors Know My Name'
p4978
S'Trey Songz'
p4979
sS"I'm Sprung"
p4980
S'T-Pain'
p4981
sS'Maybe I Deserve'
p4982
S'Tank'
p4983
sS'Still Ballin'
p4984
S'2Pac Featuring Trick Daddy'
p4985
sS'Singing In The Rain / Umbrella'
p4986
S'Glee Cast Featuring Gwyneth Paltrow'
p4987
sS'Regret'
p4988
S'LeToya Featuring Ludacris'
p4989
sS'Say Goodbye'
p4990
S'Chris Brown'
p4991
sS'My List'
p4992
S'Toby Keith'
p4993
sS'Hard'
p4994
S'Rihanna Featuring Jeezy'
p4995
sS'Put Your Hand In Mine'
p4996
S'Tracy Byrd'
p4997
sS'I Get It In'
p4998
S'Omarion Featuring Gucci Mane'
p4999
sS'Lonely No More'
p5000
S'Rob Thomas'
p5001
sS'Ego'
p5002
S'Beyonce'
p5003
sS'He Can t Love U'
p5004
S'Jagged Edge'
p5005
sS'Corona And Lime'
p5006
S'Shwayze'
p5007
sS'Superman'
p5008
S'Brown Boy'
p5009
sS'Flake'
p5010
S'Jack Johnson'
p5011
sS'One Step Closer'
p5012
S'Linkin Park'
p5013
sS'Live, Laugh, Love'
p5014
S'Clay Walker'
p5015
sS"You Shouldn't Kiss Me Like This"
p5016
S'Toby Keith'
p5017
sS"We Weren't Crazy"
p5018
S'Josh Gracin'
p5019
sS'Like A Pimp'
p5020
S"David Banner Featuring Lil' Flip"
p5021
sS'Music Of My Heart'
p5022
S'N Sync'
p5023
sS'Save A Horse (Ride A Cowboy)'
p5024
S'Big & Rich'
p5025
sS'Can t Fight The Moonlight'
p5026
S'LeAnn Rimes'
p5027
sS'Never Too Far/Hero Medley'
p5028
S'Mariah Carey'
p5029
sS'A Country Boy Can Survive (Y2K Version)'
p5030
S'Chad Brock With Hank Williams Jr.'
p5031
sS'Feel It'
p5032
S'Three 6 Mafia Vs. Tiesto With Sean Kingston & Flo Rida'
p5033
sS'Wanksta'
p5034
S'50 Cent'
p5035
sS'Unwell'
p5036
S'matchbox twenty'
p5037
sS'Play'
p5038
S'David Banner'
p5039
sS'Maria Maria'
p5040
S'Santana Featuring The Product G'
p5041
sS'What Means The World To You'
p5042
S'Cam Ron'
p5043
sS'Untouchable'
p5044
S'Taylor Swift'
p5045
sS'Potential Breakup Song'
p5046
S'Aly & AJ'
p5047
sS'Cookie Jar'
p5048
S'Gym Class Heroes Featuring The-Dream'
p5049
sS'I Call It Love'
p5050
S'Lionel Richie'
p5051
sS'King Of Anything'
p5052
S'Sara Bareilles'
p5053
sS'Are You Happy Now?'
p5054
S'Michelle Branch'
p5055
sS"Are We Cuttin'"
p5056
S'Pastor Troy Featuring Ms. Jade'
p5057
sS'Last Call'
p5058
S'Lee Ann Womack'
p5059
sS'100 Years'
p5060
S'Five For Fighting'
p5061
sS'Dont Trust Me'
p5062
S'3OH!3'
p5063
sS'I Will...But'
p5064
S'SheDaisy'
p5065
sS"Ridin' Rims"
p5066
S'Dem Franchize Boyz'
p5067
sS'Something Happened On The Way To Heaven'
p5068
S'Deborah Cox'
p5069
sS'Closet Freak'
p5070
S'Cee-Lo'
p5071
sS'Dance With My Father'
p5072
S'Luther Vandross'
p5073
sS'If I Were A Boy'
p5074
S'Beyonce'
p5075
sS'Let Me In'
p5076
S'Young Buck'
p5077
sS'Switch'
p5078
S'Will Smith'
p5079
sS'The Climb'
p5080
S'Miley Cyrus'
p5081
sS"Thug Lovin'"
p5082
S'Ja Rule Featuring Bobby Brown'
p5083
sS'Falling For You'
p5084
S'Colbie Caillat'
p5085
sS'Bouncing Off The Ceiling'
p5086
S'A*Teens'
p5087
sS'Lost In This Moment'
p5088
S'Big & Rich'
p5089
sS'Long Black Train'
p5090
S'Josh Turner'
p5091
sS"Cowgirls Don't Cry"
p5092
S'Brooks & Dunn Featuring Reba McEntire'
p5093
sS'Funhouse'
p5094
S'Pink'
p5095
sS'Love Sets You Free'
p5096
S'Kelly Price'
p5097
sS'Prayin  For Daylight'
p5098
S'Rascal Flatts'
p5099
sS'Whatever You Like'
p5100
S'Anya Marina'
p5101
sS'Round And Round'
p5102
S'Jonell & Method Man'
p5103
sS'Settle For A Slowdown'
p5104
S'Dierks Bentley'
p5105
sS'Boots'
p5106
S'The Killers'
p5107
sS'Knockout'
p5108
S'Lil Wayne Featuring Nicki Minaj'
p5109
sS'Lying From You'
p5110
S'Linkin Park'
p5111
sS'Sugarhigh'
p5112
S'Jade Anderson'
p5113
sS'Give It Away'
p5114
S'George Strait'
p5115
sS'Change'
p5116
S'Taylor Swift'
p5117
sS'Bittersweet'
p5118
S'Fantasia'
p5119
sS'Used To Love U'
p5120
S'John Legend'
p5121
sS'Here We Go'
p5122
S'Trina Featuring Kelly Rowland'
p5123
sS"Big Pimpin'"
p5124
S'Jay-Z Featuring UGK'
p5125
sS'Big Pimpin '
p5126
S'Jay-Z Featuring UGK'
p5127
sS'Talk About Our Love'
p5128
S'Brandy Featuring Kanye West'
p5129
sS"It's Not Over"
p5130
S'Daughtry'
p5131
sS'Everytime Tha Beat Drop'
p5132
S'Monica Featuring Dem Franchize Boyz'
p5133
sS'I Need You'
p5134
S'Tim McGraw With Faith Hill'
p5135
sS'A Long Walk'
p5136
S'Jill Scott'
p5137
sS'Good Life'
p5138
S'OneRepublic'
p5139
sS'Wasteland'
p5140
S'10 Years'
p5141
sS'At Last'
p5142
S'Beyonce'
p5143
sS'Girlfight'
p5144
S'Brooke Valentine Featuring Lil Jon & Big Boi'
p5145
sS'E.I.'
p5146
S'Nelly'
p5147
sS'All The Way Turnt Up'
p5148
S"Roscoe Dash Featuring Soulja Boy Tell'em"
p5149
sS'Keg In The Closet'
p5150
S'Kenny Chesney'
p5151
sS'Freeze'
p5152
S'T-Pain Featuring Chris Brown'
p5153
sS'What Do You Say'
p5154
S'Reba'
p5155
sS'Nolia Clap'
p5156
S'Juvenile, Wacko & Skip'
p5157
sS'Living And Living Well'
p5158
S'George Strait'
p5159
sS'Highway 20 Ride'
p5160
S'Zac Brown Band'
p5161
sS'F**k You!'
p5162
S'Cee Lo Green'
p5163
sS'I Wanna Know You'
p5164
S'Hannah Montana Featuring David Archuleta'
p5165
sS'My Destiny'
p5166
S'Katharine McPhee'
p5167
sS'Daylight'
p5168
S'Matt & Kim'
p5169
sS'Bad Boy For Life'
p5170
S'P. Diddy, Black Rob & Mark Curry'
p5171
sS'Make Me A Song'
p5172
S'Kiley Dean'
p5173
sS'Calabria 2008'
p5174
S'Enur Featuring Natasja'
p5175
sS"Day 'N' Nite"
p5176
S'Kid Cudi'
p5177
sS"That's Not My Name"
p5178
S'The Ting Tings'
p5179
sS'Something More'
p5180
S'Sugarland'
p5181
sS'Better Days'
p5182
S'Goo Goo Dolls'
p5183
sS'Many Rivers To Cross'
p5184
S'Annie Lennox'
p5185
sS'Shine'
p5186
S"Lil' Wayne Featuring Baby, Mack 10 & Mickey"
p5187
sS'Shark In The Water'
p5188
S'V V Brown'
p5189
sS'Rock Yo Hips'
p5190
S'Crime Mob Featuring Lil Scrappy'
p5191
sS'Diamonds From Sierra Leone'
p5192
S'Kanye West'
p5193
sS'A Little Bit Longer'
p5194
S'Jonas Brothers'
p5195
sS'Drops Of Jupiter (Tell Me)'
p5196
S'Train'
p5197
sS'From Where You Are'
p5198
S'Lifehouse'
p5199
sS'Double Vision'
p5200
S'3OH!3'
p5201
sS'Roger That'
p5202
S'Young Money'
p5203
sS'My Love Is Your Love'
p5204
S'Whitney Houston'
p5205
sS'One And The Same'
p5206
S'Selena Gomez & Demi Lovato'
p5207
sS'When Love Takes Over'
p5208
S'David Guetta Featuring Kelly Rowland'
p5209
sS'Lip Gloss'
p5210
S'Lil Mama'
p5211
sS'Super High'
p5212
S'Rick Ross Featuring Ne-Yo'
p5213
sS'Almost'
p5214
S'Bowling For Soup'
p5215
sS'Girl Next Door'
p5216
S'Saving Jane'
p5217
sS'God In Me'
p5218
S'Mary Mary Featuring Kierra "KiKi" Sheard'
p5219
sS'Stricken'
p5220
S'Disturbed'
p5221
sS"Wouldn't Get Far"
p5222
S'The Game Featuring Kanye West'
p5223
sS"What's Luv?"
p5224
S'Fat Joe Featuring Ashanti'
p5225
sS'No Boundaries'
p5226
S'Kris Allen'
p5227
sS'Shiftwork'
p5228
S'Kenny Chesney Duet With George Strait'
p5229
sS'There Is No Arizona'
p5230
S"Jamie O'Neal"
p5231
sS'The Boss'
p5232
S'Rick Ross Featuring T-Pain'
p5233
sS'Another Postcard (Chimps)'
p5234
S'Barenaked Ladies'
p5235
sS'Girl'
p5236
S'Paul Wall'
p5237
sS'Welcome To The World'
p5238
S'Kevin Rudolf Featuring Rick Ross'
p5239
sS'Radioactive'
p5240
S'Kings Of Leon'
p5241
sS'River Of Love'
p5242
S'George Strait'
p5243
sS'Simple Life'
p5244
S'Carolyn Dawn Johnson'
p5245
sS'Go Girl'
p5246
S'Ciara Featuring T-Pain'
p5247
sS'All My Friends Say'
p5248
S'Luke Bryan'
p5249
sS'Te Quiero'
p5250
S'Flex'
p5251
sS'Leave Right Now'
p5252
S'Will Young'
p5253
sS'Two Is Better Than One'
p5254
S'Boys Like Girls Featuring Taylor Swift'
p5255
sS'It s Over Now'
p5256
S'112'
p5257
sS"You Don't Belong"
p5258
S'Daughtry'
p5259
sS'Buttons'
p5260
S'The Pussycat Dolls Featuring Snoop Dogg'
p5261
sS"Pretty Good At Drinkin' Beer"
p5262
S'Billy Currington'
p5263
sS'Wonderful'
p5264
S'Ja Rule Featuring R. Kelly & Ashanti'
p5265
sS"What I've Been Looking For (Reprise)"
p5266
S'Zac Efron & Vanessa Anne Hudgens'
p5267
sS'The Rock Show'
p5268
S'Blink-182'
p5269
sS'Papers'
p5270
S'Usher'
p5271
sS'I Need To Know'
p5272
S'Marc Anthony'
p5273
sS'Area Codes'
p5274
S'Ludacris Featuring Nate Dogg'
p5275
sS"Don't Mess With My Man"
p5276
S'Nivea Featuring Brian & Brandon Casey'
p5277
sS'crushcrushcrush'
p5278
S'Paramore'
p5279
sS"Don't Think I Can't Love You"
p5280
S'Jake Owen'
p5281
sS'Fresh Azimiz'
p5282
S'Bow Wow Featuring J-Kwon & Jermaine Dupri'
p5283
sS'Letters From Home'
p5284
S'John Michael Montgomery'
p5285
sS'I Keep On Loving You'
p5286
S'Reba'
p5287
sS'Wadsyaname'
p5288
S'Nelly'
p5289
sS'Hallelujah (Vancouver Winter 2010 Version)'
p5290
S'k.d. lang'
p5291
sS'Snake'
p5292
S'R. Kelly Featuring Big Tigger'
p5293
sS'Numb'
p5294
S'Linkin Park'
p5295
sS'Must Be Nice'
p5296
S'Lyfe Jennings'
p5297
sS'Last Friday Night (T.G.I.F.)'
p5298
S'Katy Perry'
p5299
sS'Angels On The Moon'
p5300
S'Thriving Ivory'
p5301
sS'What A Girl Wants'
p5302
S'Christina Aguilera'
p5303
sS'Coming Home'
p5304
S'Diddy - Dirty Money Featuring Skylar Grey'
p5305
sS'Oh'
p5306
S'Ciara Featuring Ludacris'
p5307
sS'Tear It Up'
p5308
S"Yung Wun Featuring DMX, Lil' Flip & David Banner"
p5309
sS'Six Pack Summer'
p5310
S'Phil Vassar'
p5311
sS'1, 2, 3, 4'
p5312
S"Plain White T's"
p5313
sS'Dig'
p5314
S'Incubus'
p5315
sS'Backwoods'
p5316
S'Justin Moore'
p5317
sS'Sandstorm'
p5318
S'Darude'
p5319
sS'U Make Me Wanna'
p5320
S'Jadakiss Featuring Mariah Carey'
p5321
sS'Holla At Me'
p5322
S'DJ Khaled Featuring Lil Wayne, Paul Wall, Fat Joe, Rick Ross & Pitbull'
p5323
sS'Dirt Off Your Shoulder'
p5324
S'Jay-Z'
p5325
sS'Bring Me To Life'
p5326
S'Evanescence Featuring Paul McCoy'
p5327
sS'All Around Me'
p5328
S'Flyleaf'
p5329
sS"Let's Stay Home Tonight"
p5330
S'Joe'
p5331
sS'Break My Heart'
p5332
S'Spectacular! Cast'
p5333
sS'She Only Smokes When She Drinks'
p5334
S'Joe Nichols'
p5335
sS'Learn To Fly'
p5336
S'Foo Fighters'
p5337
sS"Club Can't Handle Me"
p5338
S'Flo Rida Featuring David Guetta'
p5339
sS'Thug Holiday'
p5340
S'Trick Daddy Featuring LaTocha Scott'
p5341
sS'Whatever'
p5342
S'Ideal Featuring Lil  Mo'
p5343
sS'Love Your Love The Most'
p5344
S'Eric Church'
p5345
sS'Light Your A** On Fire'
p5346
S'Busta Rhymes'
p5347
sS'Chickenhead'
p5348
S'Project Pat'
p5349
sS'You Belong With Me'
p5350
S'Taylor Swift'
p5351
sS'Do I Make You Proud'
p5352
S'Taylor Hicks'
p5353
sS'Charlene'
p5354
S'Anthony Hamilton'
p5355
sS"Farmer's Daughter"
p5356
S'Rodney Atkins'
p5357
sS'Back At One'
p5358
S'Mark Wills'
p5359
sS'Mississippi Girl'
p5360
S'Faith Hill'
p5361
sS"Don't Rain On My Parade"
p5362
S'Glee Cast Featuring Lea Michele'
p5363
sS'Oops!...I Did It Again'
p5364
S'Britney Spears'
p5365
sS'Things That Matter'
p5366
S'Rascal Flatts'
p5367
sS'Guys Like Me'
p5368
S'Eric Church'
p5369
sS'Black Horse & The Cherry Tree'
p5370
S'KT Tunstall'
p5371
sS'Pop A Top'
p5372
S'Alan Jackson'
p5373
sS'Love King'
p5374
S'The-Dream'
p5375
sS'Wrong Baby Wrong'
p5376
S'Martina McBride'
p5377
sS'Be Without You'
p5378
S'Mary J. Blige'
p5379
sS'Just Fine'
p5380
S'Mary J. Blige'
p5381
sS'Butterfly'
p5382
S'Crazy Town'
p5383
sS'The Invitation'
p5384
S'50 Cent'
p5385
sS'Fire'
p5386
S'Glee Cast Featuring Kristin Chenoweth'
p5387
sS'Out Here Grindin'
p5388
S"DJ Khaled Feat. Akon, Plies, Young Jeezy, Rick Ross, Ace Hood, Trick Daddy & Lil' Boosie"
p5389
sS'Kerosene'
p5390
S'Miranda Lambert'
p5391
sS'Rap Song'
p5392
S'T-Pain Featuring Rick Ross'
p5393
sS'Falling Slowly'
p5394
S'Lee DeWyze & Crystal Bowersox'
p5395
sS'Rain On Me'
p5396
S'Ashanti'
p5397
sS'Candle (Sick And Tired)'
p5398
S'The White Tie Affair'
p5399
sS'Outta Control'
p5400
S'50 Cent'
p5401
sS"'03 Bonnie & Clyde"
p5402
S'Jay-Z Featuring Beyonce Knowles'
p5403
sS'Something'
p5404
S'Lasgo'
p5405
sS'Gimme That'
p5406
S"Chris Brown Featuring Lil' Wayne"
p5407
sS'Your Love Is My Drug'
p5408
S'Ke$ha'
p5409
sS'Walking Away'
p5410
S'Craig David'
p5411
sS'The Riddle'
p5412
S'Five For Fighting'
p5413
sS"Dancin'"
p5414
S'Guy'
p5415
sS'Single For The Rest Of My Life'
p5416
S'Isyss'
p5417
sS'O'
S'Omarion'
p5418
sS"Don't Dream It's Over"
p5419
S'Sixpence None The Richer'
p5420
sS"I'll Be"
p5421
S'Reba McEntire'
p5422
sS'Money In The Bank'
p5423
S'Swizz Beatz'
p5424
sS'Karma'
p5425
S'Alicia Keys'
p5426
sS'Bright Lights'
p5427
S'matchbox twenty'
p5428
sS'If I Never See Your Face Again'
p5429
S'Maroon 5 Featuring Rihanna'
p5430
sS'Hey Luv (Anything)'
p5431
S'Mobb Deep Featuring 112'
p5432
sS'Times Like These'
p5433
S'Foo Fighters'
p5434
sS'Lost Without U'
p5435
S'Robin Thicke'
p5436
sS'Swing Ya Rag'
p5437
S'T.I. Featuring Swizz Beatz'
p5438
sS'IfULeave'
p5439
S'Musiq Soulchild Featuring Mary J. Blige'
p5440
sS'Be My Escape'
p5441
S'Relient K'
p5442
sS'I Did It'
p5443
S'Dave Matthews Band'
p5444
sS"Don't Let Me Get Me"
p5445
S'Pink'
p5446
sS'Obsessed'
p5447
S'Mariah Carey'
p5448
sS'Na Na Na (Na Na Na Na Na Na Na Na Na)'
p5449
S'My Chemical Romance'
p5450
sS'Scandalous'
p5451
S'Mis-Teeq'
p5452
sS'Day + Night'
p5453
S'Isyss Featuring Jadakiss'
p5454
sS"Can't Stop Loving You"
p5455
S'Phil Collins'
p5456
sS'On The Hotline'
p5457
S'Pretty Ricky'
p5458
sS'Guess?'
p5459
S'Scarface Featuring Jay-Z & Beanie Sigel'
p5460
sS'Change Clothes'
p5461
S'Jay-Z'
p5462
sS"Savin' Me"
p5463
S'Nickelback'
p5464
sS'teachme'
p5465
S'Musiq Soulchild'
p5466
sS'Replay'
p5467
S'Iyaz'
p5468
sS'Falsetto'
p5469
S'The-Dream'
p5470
sS'(I Never Promised You A) Rose Garden'
p5471
S'Martina McBride'
p5472
sS'Days Go By'
p5473
S'Keith Urban'
p5474
sS'Apologize'
p5475
S'Kris Allen'
p5476
sS"Nothin'"
p5477
S'N.O.R.E.'
p5478
sS'So Gone'
p5479
S'Monica'
p5480
sS"Don't Forget To Remember Me"
p5481
S'Carrie Underwood'
p5482
sS'Girl Talk'
p5483
S'TLC'
p5484
sS'MakeDamnSure'
p5485
S'Taking Back Sunday'
p5486
sS'Young'
p5487
S'Kenny Chesney'
p5488
sS'D.O.A. (Death Of Auto-Tune)'
p5489
S'Jay-Z'
p5490
sS'Trading Places'
p5491
S'Usher'
p5492
sS'Everything'
p5493
S'Michael Buble'
p5494
sS'Help Somebody'
p5495
S'Van Zant'
p5496
sS'Love Remains The Same'
p5497
S'Gavin Rossdale'
p5498
sS'Freaks'
p5499
S'Play-N-Skillz Featuring Krayzie Bone & Adina Howard'
p5500
sS'Knock You Down'
p5501
S'Keri Hilson Featuring Kanye West & Ne-Yo'
p5502
sS"It's Over"
p5503
S'Jesse McCartney'
p5504
sS"It's My Life"
p5505
S'No Doubt'
p5506
sS'Teenage Dream'
p5507
S'Katy Perry'
p5508
sS'Whenever, Wherever'
p5509
S'Shakira'
p5510
sS'Got It Twisted'
p5511
S'Mobb Deep'
p5512
sS'6 Foot 7 Foot'
p5513
S'Lil Wayne Featuring Cory Gunz'
p5514
sS'Turnin Me On'
p5515
S'Keri Hilson Featuring Lil Wayne'
p5516
sS'That Girl'
p5517
S'Frankie J Featuring Mannie Fresh & Chamillionaire'
p5518
sS'The Next Episode'
p5519
S'Dr. Dre Featuring Snoop Dogg'
p5520
sS"Hear 'Em Say"
p5521
S'Kanye West Featuring Adam Levine'
p5522
sS'Play Something Country'
p5523
S'Brooks & Dunn'
p5524
sS'Tu Recuerdo'
p5525
S'Ricky Martin Featuring La Mari'
p5526
sS'Tell Me Baby'
p5527
S'Red Hot Chili Peppers'
p5528
sS'The Anthem'
p5529
S'Pitbull Featuring Lil Jon'
p5530
sS'Give Me Just One Night (Una Noche)'
p5531
S'98 Degrees'
p5532
sS'Wanted'
p5533
S'Jessie James'
p5534
sS'Fly'
p5535
S'Nicki Minaj Featuring Rihanna'
p5536
sS'Bartender'
p5537
S'T-Pain Featuring Akon'
p5538
sS'Rose Bouquet'
p5539
S'Phil Vassar'
p5540
sS'Break Up'
p5541
S'Mario Featuring Gucci Mane & Sean Garrett'
p5542
sS"If This Isn't Love"
p5543
S'Jennifer Hudson'
p5544
sS'John Doe'
p5545
S'Public Announcement Featuring LeLe'
p5546
sS'Cowboys Are Frequently Secretly (Fond Of Each Other)'
p5547
S'Willie Nelson'
p5548
sS'Bedrock'
p5549
S'Young Money Featuring Lloyd'
p5550
sS'3am'
p5551
S'Eminem'
p5552
sS'Take You There'
p5553
S'Sean Kingston'
p5554
sS'Austin'
p5555
S'Blake Shelton'
p5556
sS'With Me'
p5557
S'Lonestar'
p5558
sS'Addictive'
p5559
S'Truth Hurts Featuring Rakim'
p5560
sS'Fall For Your Type'
p5561
S'Jamie Foxx Featuring Drake'
p5562
sS'A Lot Of Things Different'
p5563
S'Kenny Chesney'
p5564
sS'Soul Sista'
p5565
S'Bilal'
p5566
sS"Ma, I Don't Love Her"
p5567
S'Clipse Featuring Faith Evans'
p5568
sS"That's That"
p5569
S'Snoop Dogg Featuring R. Kelly'
p5570
sS"U Know What's Up"
p5571
S'Donell Jones'
p5572
sS'Rain Is A Good Thing'
p5573
S'Luke Bryan'
p5574
sS'Someone Else Calling You Baby'
p5575
S'Luke Bryan'
p5576
sS'Come Home'
p5577
S'OneRepublic With Sara Bareilles'
p5578
sS'One Time'
p5579
S'Justin Bieber'
p5580
sS'What I Need To Do'
p5581
S'Kenny Chesney'
p5582
sS'Drop The World'
p5583
S'Lil Wayne Featuring Eminem'
p5584
sS'Closer To Love'
p5585
S'Mat Kearney'
p5586
sS'Party For Two'
p5587
S'Shania Twain With Billy Currington Or Mark McGrath'
p5588
sS"Baby I'm Back"
p5589
S'Baby Bash Featuring Akon'
p5590
sS'Freakin  It'
p5591
S'Will Smith'
p5592
sS'All My Life'
p5593
S'Foo Fighters'
p5594
sS"It's My Life / Confessions Part II"
p5595
S'Glee Cast'
p5596
sS"Keeps Gettin' Better"
p5597
S'Christina Aguilera'
p5598
sS'God Bless America'
p5599
S'Daniel Rodriguez'
p5600
sS'Where Would You Be'
p5601
S'Martina McBride'
p5602
sS'Some Cut'
p5603
S'Trillville Featuring Cutty'
p5604
sS'Back When'
p5605
S'Tim McGraw'
p5606
sS'Braid My Hair'
p5607
S'Mario'
p5608
sS'Jesus, Take The Wheel'
p5609
S'Carrie Underwood'
p5610
sS'Getting Away With Murder'
p5611
S'Papa Roach'
p5612
sS'Outside'
p5613
S'Aaron Lewis Of Staind With Fred Durst'
p5614
sS'Life After You'
p5615
S'Daughtry'
p5616
sS'Like I Love You'
p5617
S'Justin Timberlake'
p5618
sS'DOA'
p5619
S'Foo Fighters'
p5620
sS'I Luv Your Girl'
p5621
S'The-Dream'
p5622
sS'So Sick'
p5623
S'Ne-Yo'
p5624
sS'Part II'
p5625
S'Method Man & Redman'
p5626
sS'I Learned From The Best'
p5627
S'Whitney Houston'
p5628
sS'Be On You'
p5629
S'Flo Rida Featuring Ne-Yo'
p5630
sS'The House That Built Me'
p5631
S'Miranda Lambert'
p5632
sS"Llame Pa' Verte"
p5633
S'Wisin & Yandel'
p5634
sS'Remember Me'
p5635
S'T.I. Featuring Mary J. Blige'
p5636
sS'I Care 4 U'
p5637
S'Aaliyah'
p5638
sS'Single'
p5639
S'Natasha Bedingfield'
p5640
sS'No Leaf Clover'
p5641
S'Metallica'
p5642
sS'Let It Go'
p5643
S'Tim McGraw'
p5644
sS'Say It Right'
p5645
S'Nelly Furtado'
p5646
sS'Fix You'
p5647
S'Coldplay'
p5648
sS"It's Over Now"
p5649
S'112'
p5650
sS'Dog Days Are Over'
p5651
S'Florence + The Machine'
p5652
sS'Bust Your Windows'
p5653
S'Jazmine Sullivan'
p5654
sS'Will 2K'
p5655
S'Will Smith Featuring K-Ci'
p5656
sS'The Cowboy In Me'
p5657
S'Tim McGraw'
p5658
sS'Customer'
p5659
S'Raheem DeVaughn'
p5660
sS'From Her Mama (Mama Got A**)'
p5661
S'Juvenile'
p5662
sS"Let's Get It"
p5663
S'Three The... G. Dep, P. Diddy & Black Rob'
p5664
sS'Contagious'
p5665
S'The Isley Brothers Featuring Ronald Isley AKA Mr. Biggs'
p5666
sS'Goodbye Earl'
p5667
S'Dixie Chicks'
p5668
sS'Bullets In The Gun'
p5669
S'Toby Keith'
p5670
sS"Un-Thinkable (I'm Ready)"
p5671
S'Alicia Keys'
p5672
sS"Let's Get It Started"
p5673
S'Black Eyed Peas'
p5674
sS'Fine Again'
p5675
S'Seether'
p5676
sS'Whatever U Want'
p5677
S'Christina Milian Featuring Joe Budden'
p5678
sS'All I Ever Wanted'
p5679
S'Kelly Clarkson'
p5680
sS'Disturbia'
p5681
S'Rihanna'
p5682
sS"Don't Think I Don't Think About It"
p5683
S'Darius Rucker'
p5684
sS"I'm Just Talkin' About Tonight"
p5685
S'Toby Keith'
p5686
sS'Firework'
p5687
S'Katy Perry'
p5688
sS"Cupid's Chokehold/Breakfast In America"
p5689
S'Gym Class Heroes Featuring Patrick Stump'
p5690
sS'Pyramid'
p5691
S'Charice Featuring Iyaz'
p5692
sS'Almost Home'
p5693
S'Craig Morgan'
p5694
sS'Radar'
p5695
S'Britney Spears'
p5696
sS'Gotta Tell You'
p5697
S'Samantha Mumba'
p5698
sS'In The Ayer'
p5699
S'Flo Rida Featuring will.i.am'
p5700
sS'Gotta Getcha'
p5701
S'Jermaine Dupri'
p5702
sS'Forever And For Always'
p5703
S'Shania Twain'
p5704
sS'Just A Dream'
p5705
S'Nelly'
p5706
sS'Gangsta Girl'
p5707
S'Big Tymers Featuring R. Kelly'
p5708
sS'Wrong Impression'
p5709
S'Natalie Imbruglia'
p5710
sS'Swing, Swing'
p5711
S'The All-American Rejects'
p5712
sS'Perfect'
p5713
S'Sara Evans'
p5714
sS'But For The Grace Of God'
p5715
S'Keith Urban'
p5716
sS'Circle The Drain'
p5717
S'Katy Perry'
p5718
sS'Only Girl (In The World)'
p5719
S'Rihanna'
p5720
sS'Never (Past Tense)'
p5721
S'The Roc Project Featuring Tina Arena'
p5722
sS'Love Today'
p5723
S'MIKA'
p5724
sS'This Is How A Heart Breaks'
p5725
S'Rob Thomas'
p5726
sS'21 Questions'
p5727
S'50 Cent Featuring Nate Dogg'
p5728
sS"Ain't It Funny"
p5729
S'Jennifer Lopez Featuring Ja Rule'
p5730
sS'One Woman Man'
p5731
S'Dave Hollister'
p5732
sS'Goodbye Time'
p5733
S'Blake Shelton'
p5734
sS'Fill Me In'
p5735
S'Craig David'
p5736
sS'Deep Inside'
p5737
S'Mary J. Blige'
p5738
sS"Sometimes You Can't Make It On Your Own"
p5739
S'U2'
p5740
sS'Hicktown'
p5741
S'Jason Aldean'
p5742
sS'The Best Man I Can Be'
p5743
S'Ginuwine, R.L., Tyrese, Case'
p5744
sS'Bless The Broken Road'
p5745
S'Rascal Flatts'
p5746
sS'Up Out My Face'
p5747
S'Mariah Carey Featuring Nicki Minaj'
p5748
sS'U Remind Me'
p5749
S'Usher'
p5750
sS'Our Country'
p5751
S'John Mellencamp'
p5752
sS"I'm Yours"
p5753
S'Jason Mraz'
p5754
sS'Lucky'
p5755
S'Glee Cast'
p5756
sS'Building Bridges'
p5757
S'Brooks & Dunn With Sheryl Crow & Vince Gill'
p5758
sS"I Don't Dance"
p5759
S'Corbin Bleu And Lucas Grabeel'
p5760
sS'Back To December'
p5761
S'Taylor Swift'
p5762
sS"You Can't Stop The Beat"
p5763
S'Cast Of Hairspray'
p5764
sS'Na Na Na Na'
p5765
S'112 Featuring Super Cat'
p5766
sS'Complicated'
p5767
S'Avril Lavigne'
p5768
sS'Too Many Rappers'
p5769
S'Beastie Boys Featuring Nas'
p5770
sS'Class Reunion (That Used To Be Us)'
p5771
S'Lonestar'
p5772
sS'Treat Her Like A Lady'
p5773
S'Joe'
p5774
sS'Goin Crazy'
p5775
S'Natalie'
p5776
sS'halfcrazy'
p5777
S'Musiq'
p5778
sS'Follow Me Down'
p5779
S'3OH!3 Featuring Neon Hitch'
p5780
sS'Love Me'
p5781
S'Justin Bieber'
p5782
sS'Dani California'
p5783
S'Red Hot Chili Peppers'
p5784
sS'Celebrity'
p5785
S'Brad Paisley'
p5786
sS'Good Girls Go Bad'
p5787
S'Cobra Starship Featuring Leighton Meester'
p5788
sS'Candy'
p5789
S'Mandy Moore'
p5790
sS'The Lucky One'
p5791
S'Faith Hill'
p5792
sS'Riding With Private Malone'
p5793
S'David Ball'
p5794
sS'Outta My System'
p5795
S'Bow Wow Featuring T-Pain & Johnta Austin'
p5796
sS'I Told You So'
p5797
S'Carrie Underwood Featuring Randy Travis'
p5798
sS'Little Miss'
p5799
S'Sugarland'
p5800
sS'What Hurts The Most'
p5801
S'Cascada'
p5802
sS'If I Had Eyes'
p5803
S'Jack Johnson'
p5804
sS'Gotta Get Thru This'
p5805
S'Daniel Bedingfield'
p5806
sS'3 Peat'
p5807
S'Lil Wayne'
p5808
sS'Breakeven'
p5809
S'The Script'
p5810
sS'Thoia Thoing'
p5811
S'R. Kelly'
p5812
sS"Old Time's Sake"
p5813
S'Eminem Featuring Dr. Dre'
p5814
sS'Window Seat'
p5815
S'Erykah Badu'
p5816
sS'Watching You'
p5817
S'Rodney Atkins'
p5818
sS'Rubber Band Man'
p5819
S'T.I.'
p5820
sS'All Of The Lights'
p5821
S'Kanye West'
p5822
sS'A.D.I.D.A.S.'
p5823
S'Killer Mike Featuring Big Boi'
p5824
sS"Don't Forget About Us"
p5825
S'Mariah Carey'
p5826
sS'Shake Your Bon-Bon'
p5827
S'Ricky Martin'
p5828
sS'Use Somebody'
p5829
S'Kings Of Leon'
p5830
sS'Love Who You Love'
p5831
S'Rascal Flatts'
p5832
sS'Diddy'
p5833
S'P. Diddy Featuring The Neptunes'
p5834
sS'Standing Still'
p5835
S'Jewel'
p5836
sS'Shake It Off'
p5837
S'Mariah Carey'
p5838
sS'Stingy'
p5839
S'Ginuwine'
p5840
sS'Walk It Out'
p5841
S'Unk'
p5842
sS'Country Boy'
p5843
S'Alan Jackson'
p5844
sS'Songs About Rain'
p5845
S'Gary Allan'
p5846
sS'Living It Up'
p5847
S'Ja Rule Featuring Case'
p5848
sS'Magnificent'
p5849
S'Rick Ross Featuring John Legend'
p5850
sS'Perfect Situation'
p5851
S'Weezer'
p5852
sS'Let Me Love You'
p5853
S'Mario'
p5854
sS'Running Away'
p5855
S'Hoobastank'
p5856
sS'While You Loved Me'
p5857
S'Rascal Flatts'
p5858
sS'A Real Fine Place To Start'
p5859
S'Sara Evans'
p5860
sS'More & More'
p5861
S'Joe'
p5862
sS"The Man Who Can't Be Moved"
p5863
S'The Script'
p5864
sS"I Think I'm In Love With You"
p5865
S'Jessica Simpson'
p5866
sS'Southern Voice'
p5867
S'Tim McGraw'
p5868
sS'Consider Me Gone'
p5869
S'Reba'
p5870
sS'Shake That Monkey'
p5871
S'Too Short Featuring Lil Jon & The East Side Boyz'
p5872
sS'Overcome'
p5873
S'Creed'
p5874
sS"She's A Hottie"
p5875
S'Toby Keith'
p5876
sS'Lonely'
p5877
S'Akon'
p5878
sS'Stranger'
p5879
S'Hilary Duff'
p5880
sS'Hold You Down'
p5881
S'Jennifer Lopez Featuring Fat Joe'
p5882
sS'Learning How To Bend'
p5883
S'Gary Allan'
p5884
sS'Sitting, Waiting, Wishing'
p5885
S'Jack Johnson'
p5886
sS'Let Me Hold You'
p5887
S'Bow Wow Featuring Omarion'
p5888
sS'Naughty Girl'
p5889
S'Beyonce'
p5890
sS'Hot N Cold'
p5891
S'Katy Perry'
p5892
sS'Watching Airplanes'
p5893
S'Gary Allan'
p5894
sS"Don't Cha"
p5895
S'The Pussycat Dolls Featuring Busta Rhymes'
p5896
sS'Still Frame'
p5897
S'Trapt'
p5898
sS"Things That Never Cross A Man's Mind"
p5899
S'Kellie Pickler'
p5900
sS'Runnin'
p5901
S'Tupac Featuring The Notorious B.I.G.'
p5902
sS"Can't Be Friends"
p5903
S'Trey Songz'
p5904
sS'Dancing Queen'
p5905
S'A*Teens'
p5906
sS'Walking In Memphis'
p5907
S'Lonestar'
p5908
sS'StarStruck'
p5909
S'Christopher Wilde'
p5910
sS"Ain't Back Yet"
p5911
S'Kenny Chesney'
p5912
sS'Women Lie, Men Lie'
p5913
S'Yo Gotti Featuring Lil Wayne'
p5914
sS'Freedom'
p5915
S'Paul McCartney'
p5916
sS'Rockstar 101'
p5917
S'Rihanna Featuring Slash'
p5918
sS'Danger (Been So Long)'
p5919
S'Mystikal Featuring Nivea'
p5920
sS'Home Sweet Home'
p5921
S'Carrie Underwood'
p5922
sS'You Should ve Told Me'
p5923
S'Kelly Price'
p5924
sS'I Know What You Want'
p5925
S'Busta Rhymes & Mariah Carey Featuring The Flipmode Squad'
p5926
sS'Cooler Than Me'
p5927
S'Mike Posner'
p5928
sS'If You Love Me'
p5929
S'Mint Condition'
p5930
sS'Bring Em Out'
p5931
S'T.I.'
p5932
sS"Stepped On My J'z"
p5933
S'Nelly Featuring Ciara & JD'
p5934
sS'Falling In Love At A Coffee Shop'
p5935
S'Landon Pigg'
p5936
sS'Time For Miracles'
p5937
S'Adam Lambert'
p5938
sS"Don't Say Goodbye"
p5939
S'Paulina Rubio'
p5940
sS'Ghetto Story Chapter 2'
p5941
S'Cham Featuring Alicia Keys'
p5942
sS'Never Let You Go'
p5943
S'Justin Bieber'
p5944
sS'Moments'
p5945
S'Emerson Drive'
p5946
sS'Here (In Your Arms)'
p5947
S'Hellogoodbye'
p5948
sS'Energy'
p5949
S'Keri Hilson'
p5950
sS"Playas Gon' Play"
p5951
S'3LW'
p5952
sS'Turn Me On'
p5953
S'Kevin Lyttle Featuring Spragga Benz'
p5954
sS'Funkytown'
p5955
S'Alvin And The Chipmunks'
p5956
sS'Thank You'
p5957
S'Lil Bow Wow Featuring Jagged Edge & Fundisha'
p5958
sS'Year 3000'
p5959
S'Jonas Brothers'
p5960
sS'Gonna Get This'
p5961
S'Hannah Montana Featuring Iyaz'
p5962
sS'Hello Goodbye'
p5963
S'Glee Cast Featuring Lea Michele, Cory Monteith & Amber Riley'
p5964
sS"You're The Only One"
p5965
S'Maria Mena'
p5966
sS'Come On Get Higher'
p5967
S'Matt Nathanson'
p5968
sS'Misery'
p5969
S'Maroon 5'
p5970
sS'Prom Queen'
p5971
S'Lil Wayne'
p5972
sS'I Made It (Cash Money Heroes)'
p5973
S'Kevin Rudolf Featuring Birdman, Jay Sean, & Lil Wayne'
p5974
sS'I Breathe In, I Breathe Out'
p5975
S'Chris Cagle'
p5976
sS'Troubadour'
p5977
S'George Strait'
p5978
sS'I Need A Hot Girl'
p5979
S'Hot Boys'
p5980
sS"If You're Going Through Hell (Before The Devil Even Knows)"
p5981
S'Rodney Atkins'
p5982
sS"She Wouldn't Be Gone"
p5983
S'Blake Shelton'
p5984
sS'Just Want You To Know'
p5985
S'Backstreet Boys'
p5986
sS'Bootylicious'
p5987
S"Destiny's Child"
p5988
sS'Buy Me A Rose'
p5989
S'Kenny Rogers With Alison Krauss'
p5990
sS'How Did You Know?'
p5991
S'Mynt Featuring Kim Sozzi'
p5992
sS'I Am Mine'
p5993
S'Pearl Jam'
p5994
sS'Jook Gal (Wine Wine)'
p5995
S'Elephant Man'
p5996
sS'Where I Come From'
p5997
S'Alan Jackson'
p5998
sS'Get Up'
p5999
S'50 Cent'
p6000
sS"Don't Call Me Baby"
p6001
S'Madison Avenue'
p6002
sS'Never Wanted Nothing More'
p6003
S'Kenny Chesney'
p6004
sS'Skin (Sarabeth)'
p6005
S'Rascal Flatts'
p6006
sS'4 Minutes'
p6007
S'Glee Cast Featuring Chris Colfer & Amber Riley'
p6008
sS'Away From Me'
p6009
S'Puddle Of Mudd'
p6010
sS"Somebody's Hero"
p6011
S"Jamie O'Neal"
p6012
sS'Over You'
p6013
S'Daughtry'
p6014
sS'Here To Stay'
p6015
S'Korn'
p6016
sS"Help Pour Out The Rain (Lacey's Song)"
p6017
S'Buddy Jewell'
p6018
sS'Deck The Halls'
p6019
S'SheDaisy'
p6020
sS'Move Shake Drop'
p6021
S'DJ Laz Featuring Flo Rida, Casely & Pitbull'
p6022
sS'Girl On TV'
p6023
S'LFO'
p6024
sS'MVP'
p6025
S'Mary J. Blige Featuring The Game & 50 Cent'
p6026
sS"This Ain't A Scene, It's An Arms Race"
p6027
S'Fall Out Boy'
p6028
sS'Whatcha Say'
p6029
S'Jason Derulo'
p6030
sS'Dear Lie'
p6031
S'TLC'
p6032
sS'Major Tom'
p6033
S'Shiny Toy Guns'
p6034
sS'This I Promise You'
p6035
S"'N Sync"
p6036
sS'What We Do'
p6037
S'Freeway Featuring Jay-Z & Beanie Sigel'
p6038
sS'S&M'
p6039
S'Rihanna'
p6040
sS'Girls And Boys'
p6041
S'Good Charlotte'
p6042
sS'Just Let Me Be In Love'
p6043
S'Tracy Byrd'
p6044
sS'If It Kills Me'
p6045
S'Jason Mraz'
p6046
sS"That's The Way"
p6047
S'Jo Dee Messina'
p6048
sS'American Soldier'
p6049
S'Toby Keith'
p6050
sS'Rough & Ready'
p6051
S'Trace Adkins'
p6052
sS'The River'
p6053
S'Good Charlotte Featuring M. Shadows And Synyster Gates'
p6054
sS'Left & Right'
p6055
S"D'Angelo Featuring Method Man And Redman"
p6056
sS'Feedback'
p6057
S'Janet'
p6058
sS'Bed Intruder Song'
p6059
S'Antoine Dodson & The Gregory Brothers Featuring Kelly Dodson'
p6060
sS"Should've Said No"
p6061
S'Taylor Swift'
p6062
sS'Realize'
p6063
S'Colbie Caillat'
p6064
sS'Thugs Get Lonely Too'
p6065
S'2Pac Featuring Nate Dogg'
p6066
sS'When Your Heart Stops Beating'
p6067
S'(+44)'
p6068
sS'Heard It All Before'
p6069
S'Sunshine Anderson'
p6070
sS'My Life Would Suck Without You'
p6071
S'Glee Cast Featuring Lea Michele, Cory Monteith, Jenna Ushkowitz & Amber Riley'
p6072
sS'In A Real Love'
p6073
S'Phil Vassar'
p6074
sS'Bleed It Out'
p6075
S'Linkin Park'
p6076
sS'Fergalicious'
p6077
S'Fergie'
p6078
sS'A Little Less Sixteen Candles, A Little More Touch Me'
p6079
S'Fall Out Boy'
p6080
sS'One Voice'
p6081
S'Billy Gilman'
p6082
sS'Read Your Mind'
p6083
S'Avant'
p6084
sS"Po' Folks"
p6085
S'Nappy Roots Featuring Anthony Hamilton'
p6086
sS'My Everything'
p6087
S'98 Degrees'
p6088
sS'With Love'
p6089
S'Hilary Duff'
p6090
sS'Breathless'
p6091
S'Taylor Swift'
p6092
sS"Buy U A Drank (Shawty Snappin')"
p6093
S'T-Pain Featuring Yung Joc'
p6094
sS'The End'
p6095
S'Kings Of Leon'
p6096
sS'Paint Me A Birmingham'
p6097
S'Tracy Lawrence'
p6098
sS'Desperately'
p6099
S'George Strait'
p6100
sS'Gimme The Light'
p6101
S'Sean Paul'
p6102
sS'Never Would Have Made It'
p6103
S'Marvin Sapp'
p6104
sS'Hot In Herre'
p6105
S'Nelly'
p6106
sS'I Dare You'
p6107
S'Shinedown'
p6108
sS"U Should've Known Better"
p6109
S'Monica'
p6110
sS'He Gets That From Me'
p6111
S'Reba McEntire'
p6112
sS"Why Can't I"
p6113
S'Liz Phair'
p6114
sS'Sorry 2004'
p6115
S'Ruben Studdard'
p6116
sS'Happy People'
p6117
S'R. Kelly'
p6118
sS'Whatchulookinat'
p6119
S'Whitney Houston'
p6120
sS'Let It Be'
p6121
S'Kris Allen'
p6122
sS'Souljas'
p6123
S'Master P'
p6124
sS'Beautiful Girls'
p6125
S'Sean Kingston'
p6126
sS'Billionaire'
p6127
S'Travie McCoy Featuring Bruno Mars'
p6128
sS'I Want To Hold Your Hand'
p6129
S'Glee Cast'
p6130
sS"I'm In"
p6131
S'Keith Urban'
p6132
sS'Party Up (Up In Here)'
p6133
S'DMX'
p6134
sS'Animals'
p6135
S'Nickelback'
p6136
sS'I Wanna Love You Forever'
p6137
S'Jessica Simpson'
p6138
sS'Arab Money'
p6139
S'Busta Rhymes Featuring Ron Browz'
p6140
sS'Down To Earth'
p6141
S'Justin Bieber'
p6142
sS"(If You're Wondering If I Want You To) I Want You To"
p6143
S'Weezer'
p6144
sS"Roman's Revenge"
p6145
S'Nicki Minaj Featuring Eminem'
p6146
sS'Welcome Back'
p6147
S'Mase'
p6148
sS'No Letting Go'
p6149
S'Wayne Wonder'
p6150
sS'Le Jazz Hot'
p6151
S'Glee Cast'
p6152
sS'If Everyone Cared'
p6153
S'Nickelback'
p6154
sS'Trapped In The Closet (Chapter 1 Of 5)'
p6155
S'R. Kelly'
p6156
sS'Disease'
p6157
S'matchbox twenty'
p6158
sS'I Can'
p6159
S'Nas'
p6160
sS"Ain't No Sunshine"
p6161
S'Kris Allen'
p6162
sS"How Come You Don't Call Me"
p6163
S'Alicia Keys'
p6164
sS'Missing You'
p6165
S'Case'
p6166
sS'Gimme More'
p6167
S'Britney Spears'
p6168
sS'Lifestyles Of The Rich And Famous'
p6169
S'Good Charlotte'
p6170
sS'I Can Do Anything'
p6171
S'3OH!3'
p6172
sS'Chasing Pavements'
p6173
S'Adele'
p6174
sS'Clint Eastwood'
p6175
S'Gorillaz'
p6176
sS'Joey'
p6177
S'Sugarland'
p6178
sS"I'm A Survivor"
p6179
S'Reba'
p6180
sS'S.O.S.'
p6181
S'Jonas Brothers'
p6182
sS'What Them Girls Like'
p6183
S'Ludacris Co-Starring Chris Brown & Sean Garrett'
p6184
sS"This One's For The Girls"
p6185
S'Martina McBride'
p6186
sS'Nothing Left To Lose'
p6187
S'Mat Kearney'
p6188
sS'Get Crunked Up'
p6189
S'Iconz Featuring Tony Manshino'
p6190
sS'Love Drunk'
p6191
S'Boys Like Girls'
p6192
sS'The One'
p6193
S'Mary J. Blige Featuring Drake'
p6194
sS'One'
p6195
S'Glee Cast'
p6196
sS'Way Out Here'
p6197
S'Josh Thompson'
p6198
sS'Choppa Style'
p6199
S'Choppa Featuring Master P'
p6200
sS'Stronger'
p6201
S'Glee Cast'
p6202
sS'Real Good Man'
p6203
S'Tim McGraw'
p6204
sS'I Luv It'
p6205
S'Young Jeezy'
p6206
sS'Move That Body'
p6207
S'Nelly Featuring T-Pain & Akon'
p6208
sS'In Da Wind'
p6209
S'Trick Daddy Featuring Cee-Lo & Big Boi'
p6210
sS'Turn My Swag On'
p6211
S"Soulja Boy Tell'em"
p6212
sS'Vanilla Twilight'
p6213
S'Owl City'
p6214
sS'Krazy'
p6215
S'Pitbull Featuring Lil Jon'
p6216
sS'Imma Star (Everywhere We Are)'
p6217
S'Jeremih'
p6218
sS'Breakout'
p6219
S'Miley Cyrus'
p6220
sS"Let's Get Married"
p6221
S'Jagged Edge'
p6222
sS'Need You Now'
p6223
S'Lady Antebellum'
p6224
sS'Figured You Out'
p6225
S'Nickelback'
p6226
sS"Haven't Met You Yet"
p6227
S'Michael Buble'
p6228
sS"Lovin' All Night"
p6229
S'Patty Loveless'
p6230
sS'She s More'
p6231
S'Andy Griggs'
p6232
sS'Hole In The Head'
p6233
S'Sugababes'
p6234
sS'Bojangles'
p6235
S'Pitbull'
p6236
sS'The Pick Of Destiny'
p6237
S'Tenacious D'
p6238
sS'Get Back'
p6239
S'Demi Lovato'
p6240
sS'What If It All Goes Right'
p6241
S'Melissa Lawson'
p6242
sS'Stupid Girl'
p6243
S'Cold'
p6244
sS'Ashes By Now'
p6245
S'Lee Ann Womack'
p6246
sS"You Should've Told Me"
p6247
S'Kelly Price'
p6248
sS'Crawl'
p6249
S'Chris Brown'
p6250
sS'All I Ask For Anymore'
p6251
S'Trace Adkins'
p6252
sS'Blue Orchid'
p6253
S'The White Stripes'
p6254
sS'One Day'
p6255
S'Matisyahu'
p6256
sS'In The End'
p6257
S'Linkin Park'
p6258
sS"Wavin' Flag"
p6259
S"K'Naan"
p6260
sS'Here We Go Again'
p6261
S'Demi Lovato'
p6262
sS'Purest Of Pain (A Puro Dolor)'
p6263
S'Son By Four'
p6264
sS'Can U Believe'
p6265
S'Robin Thicke'
p6266
sS"I'll Just Hold On"
p6267
S'Blake Shelton'
p6268
sS"Don't Stop Believin'"
p6269
S'Glee Cast'
p6270
sS'Unstoppable'
p6271
S'Rascal Flatts'
p6272
sS'Loser'
p6273
S'Glee Cast'
p6274
sS"This Is Why I'm Hot"
p6275
S'Mims'
p6276
sS"Tell Me 'Bout It"
p6277
S'Joss Stone'
p6278
sS'Callin  Me'
p6279
S'Lil  Zane Featuring 112'
p6280
sS'Long Live'
p6281
S'Taylor Swift'
p6282
sS"I'm Not Okay (I Promise)"
p6283
S'My Chemical Romance'
p6284
sS'One More Drink'
p6285
S'Ludacris Co-Starring T-Pain'
p6286
sS'Doing Too Much'
p6287
S'Paula DeAnda Featuring Baby Bash'
p6288
sS'Everything You Want'
p6289
S'Vertical Horizon'
p6290
sS'The Carpal Tunnel Of Love'
p6291
S'Fall Out Boy'
p6292
sS'A House Is Not A Home'
p6293
S'Glee Cast'
p6294
sS'Rolling In The Deep'
p6295
S'Adele'
p6296
sS'She Wolf'
p6297
S'Shakira'
p6298
sS'True Colors'
p6299
S'Glee Cast'
p6300
sS"Let's Be Us Again"
p6301
S'Lonestar'
p6302
sS'My City Of Ruins (Live From The Kennedy Center Honors)'
p6303
S'Eddie Vedder'
p6304
sS'How To Deal'
p6305
S'Frankie J'
p6306
sS'Obsession (No Es Amor)'
p6307
S'Frankie J Featuring Baby Bash'
p6308
sS'I Turn To You'
p6309
S'Christina Aguilera'
p6310
sS'Say'
p6311
S'John Mayer'
p6312
sS'Like A Prayer'
p6313
S'Glee Cast Featuring Lea Michele, Jonathan Groff, Cory Monteith, Chris Colfer & Amber Riley'
p6314
sS'Bottoms Up'
p6315
S'Trey Songz Featuring Nicki Minaj'
p6316
sS'Lil Freak'
p6317
S'Usher Featuring Nicki Minaj'
p6318
sS'Amarillo Sky'
p6319
S'Jason Aldean'
p6320
sS'Loaded'
p6321
S'Ricky Martin'
p6322
sS'Someone To Call My Lover'
p6323
S'Janet'
p6324
sS'My Best Days Are Ahead Of Me'
p6325
S'Danny Gokey'
p6326
sS'Bubbly'
p6327
S'Colbie Caillat'
p6328
sS'My, Oh My'
p6329
S'The Wreckers'
p6330
sS'Hollaback'
p6331
S'Gwen Stefani'
p6332
sS'On The Ocean'
p6333
S"K'Jon"
p6334
sS"Please Don't Go"
p6335
S'Mike Posner'
p6336
sS'I Miss You'
p6337
S'Blink-182'
p6338
sS'No Air'
p6339
S'Glee Cast'
p6340
sS'Rompe'
p6341
S'Daddy Yankee'
p6342
sS'Come Back To Me'
p6343
S'David Cook'
p6344
sS'The Long Goodbye'
p6345
S'Brooks & Dunn'
p6346
sS'Give It To Her'
p6347
S'Tanto Metro & Devonte'
p6348
sS'Move Along'
p6349
S'The All-American Rejects'
p6350
sS'Maybach Music 2'
p6351
S"Rick Ross Featuring Kanye West, T-Pain, Lil' Wayne"
p6352
sS'Case Of The Ex (Whatcha Gonna Do)'
p6353
S'Mya'
p6354
sS'Car Wash'
p6355
S'Christina Aguilera Featuring Missy Elliott'
p6356
sS'The Reason'
p6357
S'Hoobastank'
p6358
sS'We Belong Together'
p6359
S'Gavin DeGraw'
p6360
sS'Yo (Excuse Me Miss)'
p6361
S'Chris Brown'
p6362
sS'Signal Fire'
p6363
S'Snow Patrol'
p6364
sS'That s The Way'
p6365
S'Jo Dee Messina'
p6366
sS'Downtime'
p6367
S'Jo Dee Messina'
p6368
sS'Baby'
p6369
S'Justin Bieber Featuring Ludacris'
p6370
sS'Every Mile A Memory'
p6371
S'Dierks Bentley'
p6372
sS'What I Did For Love'
p6373
S'Glee Cast'
p6374
sS'So Fine'
p6375
S'Sean Paul'
p6376
sS'Kiss Kiss'
p6377
S'Chris Brown Featuring T-Pain'
p6378
sS'Piggy Bank'
p6379
S'50 Cent'
p6380
sS'Kings And Queens'
p6381
S'Thirty Seconds To Mars'
p6382
sS'Johnny Cash'
p6383
S'Jason Aldean'
p6384
sS'Doomsday Clock'
p6385
S'The Smashing Pumpkins'
p6386
sS'If I Was Your Man'
p6387
S'Joe'
p6388
sS'Meant To Live'
p6389
S'Switchfoot'
p6390
sS'This'
p6391
S'Darius Rucker'
p6392
sS'How Do You Sleep?'
p6393
S'Jesse McCartney Featuring Ludacris'
p6394
sS'Send The Pain Below'
p6395
S'Chevelle'
p6396
sS'Next To You'
p6397
S'Mike Jones'
p6398
sS'No Matter What They Say'
p6399
S'Lil  Kim'
p6400
sS'Not Fade Away'
p6401
S'Sheryl Crow'
p6402
sS"It's Okay (One Blood)"
p6403
S'The Game Featuring Junior Reid'
p6404
sS'Outrageous'
p6405
S'Britney Spears'
p6406
sS'Aston Martin Music'
p6407
S'Rick Ross Featuring Drake & Chrisette Michele'
p6408
sS"Just Got Started Lovin' You"
p6409
S'James Otto'
p6410
sS'Do You Know? (The Ping Pong Song)/Dimelo'
p6411
S'Enrique Iglesias'
p6412
sS'Are You Gonna Kiss Me Or Not'
p6413
S'Thompson Square'
p6414
sS'I Write Sins Not Tragedies'
p6415
S'Panic! At The Disco'
p6416
sS'All About Tonight'
p6417
S'Blake Shelton'
p6418
sS'Gone'
p6419
S'Montgomery Gentry'
p6420
sS'She Was'
p6421
S'Mark Chesnutt'
p6422
sS'Porn Star Dancing'
p6423
S'My Darkest Days Featuring Zakk Wylde'
p6424
sS"I Still Haven't Found What I'm Looking For"
p6425
S'David Cook'
p6426
sS'sobeautiful'
p6427
S'Musiq Soulchild'
p6428
sS'If I Die Young'
p6429
S'The Band Perry'
p6430
sS'New Divide'
p6431
S'Linkin Park'
p6432
sS"All These Things That I've Done"
p6433
S'The Killers'
p6434
sS'Black Sweat'
p6435
S'Prince'
p6436
sS'Drift Away'
p6437
S'Uncle Kracker Featuring Dobie Gray'
p6438
sS'Jump'
p6439
S'Flo Rida Featuring Nelly Furtado'
p6440
sS"24's"
p6441
S'T.I.'
p6442
sS'Hood Figga'
p6443
S'Gorilla Zoe'
p6444
sS'Not Meant To Be'
p6445
S'Theory Of A Deadman'
p6446
sS'Soul Survivor'
p6447
S'Young Jeezy Featuring Akon'
p6448
sS'Anna-Molly'
p6449
S'Incubus'
p6450
sS'Shorty Wanna Ride'
p6451
S'Young Buck'
p6452
sS'Imma Put It On Her'
p6453
S'DAY26 Featuring P. Diddy & Yung Joc'
p6454
sS'Here For The Party'
p6455
S'Gretchen Wilson'
p6456
sS'Back That Thang Up'
p6457
S'Juvenile Featuring Mannie Fresh'
p6458
sS'Hello World'
p6459
S'Lady Antebellum'
p6460
sS'Be Like That'
p6461
S'3 Doors Down'
p6462
sS"What I've Been Looking For"
p6463
S'Lucas Grabeel & Ashley Tisdale'
p6464
sS'Video Phone'
p6465
S'Beyonce'
p6466
sS'Me, Myself And I'
p6467
S'Beyonce'
p6468
sS'Get Me Bodied'
p6469
S'Beyonce'
p6470
sS'Gotta Go My Own Way'
p6471
S'Zac Efron/Vanessa Anne Hudgens'
p6472
sS"Hey Daddy (Daddy's Home)"
p6473
S'Usher Featuring Plies'
p6474
sS'How Do You Like Me Now?!'
p6475
S'Toby Keith'
p6476
sS'Fake It'
p6477
S'Seether'
p6478
sS'Naturally'
p6479
S'Selena Gomez & The Scene'
p6480
sS'The Little Girl'
p6481
S'John Michael Montgomery'
p6482
sS'Happy Days Are Here Again / Get Happy'
p6483
S'Glee Cast'
p6484
sS'Big Green Tractor'
p6485
S'Jason Aldean'
p6486
sS'Tonight I Wanna Cry'
p6487
S'Keith Urban'
p6488
sS'It Kills Me'
p6489
S'Melanie Fiona'
p6490
sS'Kiss Me Thru The Phone'
p6491
S"Soulja Boy Tell 'em Featuring Sammie"
p6492
sS'Fireworks'
p6493
S'Drake Featuring Alicia Keys'
p6494
sS'King Without A Crown'
p6495
S'Matisyahu'
p6496
sS'All For One'
p6497
S'High School Musical 2 Cast'
p6498
sS'There She Goes'
p6499
S'Babyface'
p6500
sS"It's America"
p6501
S'Rodney Atkins'
p6502
sS'Absolutely (Story Of A Girl)'
p6503
S'Nine Days'
p6504
sS'Survivalism'
p6505
S'Nine Inch Nails'
p6506
sS'You Are The Music In Me'
p6507
S'Zac Efron & Vanessa Anne Hudgens'
p6508
sS'Somebody Told Me'
p6509
S'The Killers'
p6510
sS'Break Down Here'
p6511
S'Julie Roberts'
p6512
sS'Small Town Southern Man'
p6513
S'Alan Jackson'
p6514
sS'Only In America'
p6515
S'Brooks & Dunn'
p6516
sS'I Love You'
p6517
S'Dru Hill'
p6518
sS'Aerials'
p6519
S'System Of A Down'
p6520
sS'Wheels'
p6521
S'Foo Fighters'
p6522
sS'Crawling'
p6523
S'Linkin Park'
p6524
sS'Poker Face'
p6525
S'Glee Cast'
p6526
sS'Sweet Southern Comfort'
p6527
S'Buddy Jewell'
p6528
sS'Game Over'
p6529
S"Lil' Flip"
p6530
sS'Take A Bow'
p6531
S'Glee Cast'
p6532
sS'What If A Woman'
p6533
S'Joe'
p6534
sS"Nobody's Perfect"
p6535
S'Hannah Montana'
p6536
sS'To Sir With Love'
p6537
S'Glee Cast'
p6538
sS'Ooohhhwee'
p6539
S'Master P Featuring Weebie'
p6540
sS'American Star'
p6541
S'Lil Wayne Featuring Shanell AKA SNL'
p6542
sS'Heartless'
p6543
S'Kris Allen'
p6544
sS'Axel F'
p6545
S'Crazy Frog'
p6546
sS'Umma Do Me'
p6547
S'Rocko'
p6548
sS'Pork And Beans'
p6549
S'Weezer'
p6550
sS'New York'
p6551
S'Ja Rule Featuring Fat Joe & Jadakiss'
p6552
sS'From Yesterday'
p6553
S'30 Seconds To Mars'
p6554
sS'All Over Me'
p6555
S'Josh Turner'
p6556
sS'The Sweet Escape'
p6557
S'Gwen Stefani Featuring Akon'
p6558
sS'You Are The Best Thing'
p6559
S'Ray LaMontagne'
p6560
sS'When The Last Time'
p6561
S'Clipse'
p6562
sS'My Place'
p6563
S'Nelly Featuring Jaheim'
p6564
sS'The Impossible'
p6565
S'Joe Nichols'
p6566
sS'Gotta Go'
p6567
S'Trey Songz'
p6568
sS'Project Chick'
p6569
S'Cash Money Millionaires'
p6570
sS'For You'
p6571
S'Staind'
p6572
sS'Weak And Powerless'
p6573
S'A Perfect Circle'
p6574
sS'Give It Up To Me'
p6575
S'Shakira Featuring Lil Wayne'
p6576
sS'Take You Down'
p6577
S'Chris Brown'
p6578
sS"Don't Think I'm Not"
p6579
S'Kandi'
p6580
sS'Say I'
p6581
S'Christina Milian Featuring Young Jeezy'
p6582
sS"Fallin' For You"
p6583
S'Colbie Caillat'
p6584
sS'Say Yes'
p6585
S'Floetry'
p6586
sS'Independent'
p6587
S"Webbie, Lil' Phat & Lil' Boosie"
p6588
sS'Girls Around The World'
p6589
S'Lloyd Featuring Lil Wayne'
p6590
sS"Don't Say No, Just Say Yes"
p6591
S'Avant'
p6592
sS'B.Y.O.B.'
p6593
S'System Of A Down'
p6594
sS'Hate That I Love You'
p6595
S'Rihanna Featuring Ne-Yo'
p6596
sS"I'm Feeling You"
p6597
S'Santana Featuring Michelle Branch & The Wreckers'
p6598
sS'Love Is On Its Way'
p6599
S'Jonas Brothers'
p6600
sS'Miss Me'
p6601
S'Drake Featuring Lil Wayne'
p6602
sS'Over The Rainbow'
p6603
S'Glee Cast'
p6604
sS'Oochie Wally'
p6605
S'QB Finest Featuring Nas And Bravehearts'
p6606
sS'That Song In My Head'
p6607
S'Julianne Hough'
p6608
sS'Confessions Part II'
p6609
S'Usher'
p6610
sS'I Smoke, I Drank'
p6611
S'Body Head Bangerz Featuring YoungBloodz'
p6612
sS"That's That S***"
p6613
S'Snoop Dogg Featuring R. Kelly'
p6614
sS'Is It Any Wonder?'
p6615
S'Keane'
p6616
sS'Ghetto'
p6617
S'Akon'
p6618
sS'Shape Of My Heart'
p6619
S'Backstreet Boys'
p6620
sS'Love Me Right (Oh Sheila)'
p6621
S'Angel City Featuring Lara McAllen'
p6622
sS"She Don't Tell Me To"
p6623
S'Montgomery Gentry'
p6624
sS'Baby By Me'
p6625
S'50 Cent Featuring Ne-Yo'
p6626
sS'Sleep On It'
p6627
S'Danity Kane'
p6628
sS'Wake Up'
p6629
S'Hilary Duff'
p6630
sS'Hate To Say I Told You So'
p6631
S'The Hives'
p6632
sS'The Shock Of The Lightning'
p6633
S'Oasis'
p6634
sS'My Baby'
p6635
S'Bow Wow Featuring Jagged Edge'
p6636
sS'Show Stopper'
p6637
S'Danity Kane'
p6638
sS'Right Here (Departed)'
p6639
S'Brandy'
p6640
sS'Bon, Bon'
p6641
S'Pitbull'
p6642
sS'Red Rag Top'
p6643
S'Tim McGraw'
p6644
sS'Love Don t Cost A Thing'
p6645
S'Jennifer Lopez'
p6646
sS'You Owe Me'
p6647
S'NAS Featuring Ginuwine'
p6648
sS'My First Kiss'
p6649
S'3OH!3 Featuring Ke$ha'
p6650
sS"I Can't Take You Anywhere"
p6651
S'Scotty Emerick With Toby Keith'
p6652
sS'Bent'
p6653
S'matchbox twenty'
p6654
sS'Boom Boom Pow'
p6655
S'The Black Eyed Peas'
p6656
sS"Idlewild Blue (Don'tchu Worry 'Bout Me)"
p6657
S'OutKast'
p6658
sS'I Need A Girl'
p6659
S'Trey Songz'
p6660
sS'Beverly Hills'
p6661
S'Weezer'
p6662
sS'Lemonade'
p6663
S'Gucci Mane'
p6664
sS'Loco'
p6665
S'David Lee Murphy'
p6666
sS'Pop'
p6667
S"'N Sync"
p6668
sS'Still On Your Side'
p6669
S'BBMak'
p6670
sS'High'
p6671
S'James Blunt'
p6672
sS"Rollin'"
p6673
S'Limp Bizkit'
p6674
sS'No BS'
p6675
S'Chris Brown'
p6676
sS'Dream Big'
p6677
S'David Cook'
p6678
sS"Conceited (There's Something About Remy)"
p6679
S'Remy Ma'
p6680
sS'Rollin '
p6681
S'Limp Bizkit'
p6682
sS'Everybody'
p6683
S'Keith Urban'
p6684
sS'Billie Jean'
p6685
S'David Cook'
p6686
sS'Cry Baby/Piece Of My Heart'
p6687
S'Melissa Etheridge & Joss Stone'
p6688
sS'I Hate Everything'
p6689
S'George Strait'
p6690
sS'That Should Be Me'
p6691
S'Justin Bieber'
p6692
sS"It's Gonna Be Me"
p6693
S"'N Sync"
p6694
sS'I Think God Can Explain'
p6695
S'Splender'
p6696
sS'Light On'
p6697
S'David Cook'
p6698
sS'Air Force Ones'
p6699
S'Nelly Featuring Kyjuan, Ali & Murphy Lee'
p6700
sS'Wings Of A Butterfly'
p6701
S'him'
p6702
sS'How Could You'
p6703
S'Mario'
p6704
sS'Smoke Rings In The Dark'
p6705
S'Gary Allan'
p6706
sS'Song For The Lonely'
p6707
S'Cher'
p6708
sS'Little Miss Obsessive'
p6709
S'Ashlee Simpson With Tom Higgenson'
p6710
sS'Pop Ya Collar'
p6711
S'Usher'
p6712
sS'Lean Like A Cholo'
p6713
S'Down A.K.A. Kilo'
p6714
sS'Under'
p6715
S'Pleasure P'
p6716
sS'Take You Home'
p6717
S'Angie Martinez Featuring Kelis'
p6718
sS'Everytime We Touch'
p6719
S'Cascada'
p6720
sS'Let It Rock'
p6721
S'Kevin Rudolf Featuring Lil Wayne'
p6722
sS"Black Suits Comin' (Nod Ya Head)"
p6723
S'Will Smith Featuring Tra-Knox'
p6724
sS'Wobble Wobble'
p6725
S'504 Boyz'
p6726
sS'Toxicity'
p6727
S'System Of A Down'
p6728
sS'Little Bit Of Life'
p6729
S'Craig Morgan'
p6730
sS'Hypnotize'
p6731
S'System Of A Down'
p6732
sS'Flipside'
p6733
S'Freeway Featuring Peedi Crakk'
p6734
sS'P***ycat'
p6735
S'Missy "Misdemeanor" Elliott'
p6736
sS'Straight To The Bank'
p6737
S'50 Cent'
p6738
sS'Jaded'
p6739
S'Aerosmith'
p6740
sS'Face Down'
p6741
S'The Red Jumpsuit Apparatus'
p6742
sS'Dirrty'
p6743
S'Christina Aguilera Featuring Redman'
p6744
sS'Whoa!'
p6745
S'Black Rob'
p6746
sS'Small Town USA'
p6747
S'Justin Moore'
p6748
sS'Good Times'
p6749
S'Tommy Lee'
p6750
sS'As Good As I Once Was'
p6751
S'Toby Keith'
p6752
sS'Do It To It'
p6753
S'Cherish Featuring Sean Paul Of The YoungBloodZ'
p6754
sS'We R Who We R'
p6755
S'Ke$ha'
p6756
sS'Ordinary People'
p6757
S'John Legend'
p6758
sS'Do You Want Fries With That'
p6759
S'Tim McGraw'
p6760
sS'Hypnotized'
p6761
S'Plies Featuring Akon'
p6762
sS'Time Of The Season'
p6763
S'Blake Lewis'
p6764
sS"Can't Stop, Won't Stop"
p6765
S'Young Gunz'
p6766
sS'Honesty (Write Me A List)'
p6767
S'Rodney Atkins'
p6768
sS'Know Your Enemy'
p6769
S'Green Day'
p6770
sS'Ghetto Story'
p6771
S'Cham'
p6772
sS'Jai Ho! (You Are My Destiny)'
p6773
S'A R Rahman & The Pussycat Dolls Featuring Nicole Scherzinger'
p6774
sS'I Loved Her First'
p6775
S'Heartland'
p6776
sS'Drive (For Daddy Gene)'
p6777
S'Alan Jackson'
p6778
sS"You Don't Know"
p6779
S'Eminem, 50 Cent, Lloyd Banks & Cashis'
p6780
sS'Haunted'
p6781
S'Taylor Swift'
p6782
sS'The Woman With You'
p6783
S'Kenny Chesney'
p6784
sS'River'
p6785
S'Sarah McLachlan'
p6786
sS'Unconditional'
p6787
S'Clay Davidson'
p6788
sS'Wrapped Up In You'
p6789
S'Garth Brooks'
p6790
sS'Stronger Woman'
p6791
S'Jewel'
p6792
sS'Need U Bad'
p6793
S'Jazmine Sullivan'
p6794
sS'Sugar (Gimme Some)'
p6795
S"Trick Daddy Featuring Ludacris, Lil' Kim & Cee-Lo"
p6796
sS'The World I Know'
p6797
S'David Cook'
p6798
sS'How Far'
p6799
S'Martina McBride'
p6800
sS'I Wish You Were Here'
p6801
S'Incubus'
p6802
sS'Bust A Move'
p6803
S'Glee Cast Featuring Matthew Morrison'
p6804
sS'Broadway'
p6805
S'Goo Goo Dolls'
p6806
sS'Gotta Man'
p6807
S'Eve'
p6808
sS'Birthday Sex'
p6809
S'Jeremih'
p6810
sS'Blue Magic'
p6811
S'Jay-Z'
p6812
sS'Unappreciated'
p6813
S'Cherish'
p6814
sS'Lights And Sounds'
p6815
S'Yellowcard'
p6816
sS'Ass Like That'
p6817
S'Eminem'
p6818
sS"Gangsta Lovin'"
p6819
S'Eve Featuring Alicia Keys'
p6820
sS"You're The One"
p6821
S'Guerilla Black Featuring Mario Winans'
p6822
sS'Too Drunk...'
p6823
S'Buckcherry'
p6824
sS'Lover, Lover'
p6825
S'Jerrod Niemann'
p6826
sS'Way Of Life'
p6827
S'Lil Wayne'
p6828
sS'Citizen/Soldier'
p6829
S'3 Doors Down'
p6830
sS'Everyday America'
p6831
S'Sugarland'
p6832
sS'Every Time I Hear Your Name'
p6833
S'Keith Anderson'
p6834
sS'So What'
p6835
S'Pink'
p6836
sS'Where I Wanna Be'
p6837
S'Damizza Presents Shade Sheist Featuring Nate Dogg'
p6838
sS'Westside Story'
p6839
S'The Game Featuring 50 Cent'
p6840
sS'Good Is Good'
p6841
S'Sheryl Crow'
p6842
sS'Larger Than Life'
p6843
S'Backstreet Boys'
p6844
sS'When You Look Me In The Eyes'
p6845
S'Jonas Brothers'
p6846
sS"It's Five O'Clock Somewhere"
p6847
S'Alan Jackson & Jimmy Buffett'
p6848
sS'How Many Licks?'
p6849
S"Lil' Kim Featuring Sisqo"
p6850
sS'For Your Entertainment'
p6851
S'Adam Lambert'
p6852
sS'Just Be A Man About It'
p6853
S'Toni Braxton'
p6854
sS"I'm Already There"
p6855
S'Lonestar'
p6856
sS'Paper Planes'
p6857
S'M.I.A.'
p6858
sS'Da MVP'
p6859
S'Mary J. Blige Featuring The Game & 50 Cent'
p6860
sS'Uh Huh'
p6861
S'B2K'
p6862
sS'Flap Your Wings'
p6863
S'Nelly'
p6864
sS'Just A Baby Boy'
p6865
S'Snoop Dogg Featuring Tyrese & Mr. Tan'
p6866
sS'Lose My Mind'
p6867
S'Young Jeezy Featuring Plies'
p6868
sS'Hey, Soul Sister'
p6869
S'Glee Cast'
p6870
sS'The Neighbor'
p6871
S'Dixie Chicks'
p6872
sS'Try Sleeping With A Broken Heart'
p6873
S'Alicia Keys'
p6874
sS'Runaway Love'
p6875
S'Ludacris Featuring Mary J. Blige'
p6876
sS'The Truth About Men'
p6877
S'Tracy Byrd'
p6878
sS'Sunshine And Summertime'
p6879
S'Faith Hill'
p6880
sS'Better In Time'
p6881
S'Leona Lewis'
p6882
sS'4, 5, 6'
p6883
S'Sole Featuring JT Money'
p6884
sS'Forthenight'
p6885
S'Musiq'
p6886
sS'Let U Go'
p6887
S'Ashley Parker Angel'
p6888
sS'Belly Dancer (Bananza)'
p6889
S'Akon'
p6890
sS'Airplanes'
p6891
S'B.o.B Featuring Hayley Williams'
p6892
sS'Pon De River, Pon De Bank'
p6893
S'Elephant Man'
p6894
sS'Kingdom Come'
p6895
S'Jay-Z'
p6896
sS'There You Go'
p6897
S'Pink'
p6898
sS'Emotion'
p6899
S"Destiny's Child"
p6900
sS"I'm Real"
p6901
S'Jennifer Lopez Featuring Ja Rule'
p6902
sS'Dilemma'
p6903
S'Nelly Featuring Kelly Rowland'
p6904
sS'Ooh Baby'
p6905
S'Mario'
p6906
sS"When You're Mad"
p6907
S'Ne-Yo'
p6908
sS'Soldier'
p6909
S"Destiny's Child Featuring T.I. & Lil Wayne"
p6910
sS'Make It Clap'
p6911
S'Busta Rhymes Featuring Spliff Star'
p6912
sS'F**k You (Forget You)'
p6913
S'Cee Lo Green'
p6914
sS'Circus'
p6915
S'Britney Spears'
p6916
sS'Blah Blah Blah'
p6917
S'Ke$ha Featuring 3OH!3'
p6918
sS"There's Nothin"
p6919
S'Sean Kingston Featuring Elan & Juelz Santana'
p6920
sS'Ghetto Girls'
p6921
S'Lil Bow Wow'
p6922
sS'Tell Me Something Bad About Tulsa'
p6923
S'George Strait'
p6924
sS'None Of Ur Friends Business'
p6925
S'Ginuwine'
p6926
sS'Say I Yi Yi'
p6927
S'Ying Yang Twins'
p6928
sS"G.N.O. (Girl's Night Out)"
p6929
S'Miley Cyrus'
p6930
sS'Someday Out Of The Blue'
p6931
S'Elton John'
p6932
sS'I Who Have Nothing'
p6933
S'Jordin Sparks'
p6934
sS'I May Hate Myself In The Morning'
p6935
S'Lee Ann Womack'
p6936
sS'Rock Wit U (Awww Baby)'
p6937
S'Ashanti'
p6938
sS'The Way That I Love You'
p6939
S'Ashanti'
p6940
sS'Electrical Storm'
p6941
S'U2'
p6942
sS'She Loves Me Not'
p6943
S'Papa Roach'
p6944
sS'So Small'
p6945
S'Carrie Underwood'
p6946
sS'Halo / Walking On Sunshine'
p6947
S'Glee Cast'
p6948
sS'Full Moon'
p6949
S'Brandy'
p6950
sS'Crash Here Tonight'
p6951
S'Toby Keith'
p6952
sS'Brand New Girlfriend'
p6953
S'Steve Holy'
p6954
sS'Another Try'
p6955
S'Josh Turner Featuring Trisha Yearwood'
p6956
sS"I'm Awesome"
p6957
S'Spose'
p6958
sS'Music'
p6959
S'Erick Sermon Featuring Marvin Gaye'
p6960
sS"I'll Be Home For Christmas"
p6961
S'Josh Groban'
p6962
sS"What's Your Fantasy"
p6963
S'Ludacris Featuring Shawna'
p6964
sS'Holiday'
p6965
S'Green Day'
p6966
sS'(Hot S**t) Country Grammar'
p6967
S'Nelly'
p6968
sS'Makes Me Wonder'
p6969
S'Maroon 5'
p6970
sS'Set The Fire To The Third Bar'
p6971
S'Snow Patrol Featuring Martha Wainwright'
p6972
sS"Doesn't Remind Me"
p6973
S'Audioslave'
p6974
sS'Right Now (Na Na Na)'
p6975
S'Akon'
p6976
sS'Nothing As It Seems'
p6977
S'Pearl Jam'
p6978
sS'Simple Kind Of Life'
p6979
S'No Doubt'
p6980
sS'Lose Yourself'
p6981
S'Eminem'
p6982
sS'Shattered (Turn The Car Around)'
p6983
S'O.A.R.'
p6984
sS"Don't Tell Me"
p6985
S'Avril Lavigne'
p6986
sS'What s My Name'
p6987
S'DMX'
p6988
sS"Where'd You Go"
p6989
S'Fort Minor Featuring Holly Brook'
p6990
sS'Our Kind Of Love'
p6991
S'Lady Antebellum'
p6992
sS'Streetcorner Symphony'
p6993
S'Rob Thomas'
p6994
sS'Soldier Of Love'
p6995
S'Sade'
p6996
sS'Trouble'
p6997
S'Pink'
p6998
sS'Careful'
p6999
S'Paramore'
p7000
sS"She Couldn't Change Me"
p7001
S'Montgomery Gentry'
p7002
sS'Love In This Club'
p7003
S'Usher Featuring Young Jeezy'
p7004
sS"Don't Go Breaking My Heart"
p7005
S'Glee Cast'
p7006
sS'She Never Cried In Front Of Me'
p7007
S'Toby Keith'
p7008
sS'U Know What s Up'
p7009
S'Donell Jones'
p7010
sS'Deuces'
p7011
S'Chris Brown Featuring Tyga & Kevin McCall'
p7012
sS'On The Line'
p7013
S'Demi Lovato Featuring Jonas Brothers'
p7014
sS'Your Body'
p7015
S'Pretty Ricky'
p7016
sS'Honestly'
p7017
S'Cartel'
p7018
sS'This Afternoon'
p7019
S'Nickelback'
p7020
sS'Gives You Hell'
p7021
S'Glee Cast Featuring Lea Michele'
p7022
sS'Then The Morning Comes'
p7023
S'Smash Mouth'
p7024
sS'How Do I Breathe'
p7025
S'Mario'
p7026
sS'Take You Home With Me a.k.a. Body'
p7027
S'R. Kelly & Jay-Z'
p7028
sS'The Quittin  Kind'
p7029
S'Joe Diffie'
p7030
sS'Mayberry'
p7031
S'Rascal Flatts'
p7032
sS'Losing My Religion'
p7033
S'Glee Cast'
p7034
sS'Kiss The Girl'
p7035
S'Ashley Tisdale'
p7036
sS'In This Moment'
p7037
S'David Archuleta'
p7038
sS"I Told Y'all"
p7039
S'Petey Pablo'
p7040
sS'Caught Up'
p7041
S'Usher'
p7042
sS'Music Box'
p7043
S'Eminem'
p7044
sS'Freek-A-Leek'
p7045
S'Petey Pablo'
p7046
sS'Can t Stay'
p7047
S'Dave Hollister'
p7048
sS'Honky Tonk Stomp'
p7049
S'Brooks & Dunn Featuring Billy Gibbons'
p7050
sS'Hit That'
p7051
S'The Offspring'
p7052
sS'Defy You'
p7053
S'The Offspring'
p7054
sS'Tainted'
p7055
S'Slum Village Featuring Dwele'
p7056
sS'You Save Me'
p7057
S'Kenny Chesney'
p7058
sS'I Wanna Make You Close Your Eyes'
p7059
S'Dierks Bentley'
p7060
sS'Selfish'
p7061
S'Slum Village Featuring Kanye West & John Legend'
p7062
sS'Hey There Delilah'
p7063
S"Plain White T's"
p7064
sS'Number One Spot'
p7065
S'Ludacris'
p7066
sS'Wait (The Whisper Song)'
p7067
S'Ying Yang Twins'
p7068
sS'Still Fly'
p7069
S'Big Tymers'
p7070
sS'I Invented Sex'
p7071
S'Trey Songz Featuring Drake'
p7072
sS'Shone'
p7073
S'Flo Rida Featuring Pleasure P'
p7074
sS"You're Not Sorry"
p7075
S'Taylor Swift'
p7076
sS'Wherever You Are'
p7077
S'Jack Ingram'
p7078
sS'Hey Papi'
p7079
S'Jay-Z Featuring Memphis Bleek'
p7080
sS'Lovebug'
p7081
S'Jonas Brothers'
p7082
sS'Megalomaniac'
p7083
S'Incubus'
p7084
sS'You'
p7085
S"Lloyd Featuring Lil' Wayne"
p7086
sS"Who I Am Hates Who I've Been"
p7087
S'Relient K'
p7088
sS'Hope'
p7089
S'Twista Featuring Faith Evans'
p7090
sS'On To The Next One'
p7091
S'Jay-Z + Swizz Beatz'
p7092
sS'She Got It'
p7093
S'2 Pistols Featuring T-Pain & Tay Dizm'
p7094
sS"I'm Like A Bird"
p7095
S'Nelly Furtado'
p7096
sS'Got It All'
p7097
S'Eve'
p7098
sS'Meet Virginia'
p7099
S'Train'
p7100
sS'Sweet Dreams'
p7101
S'Beyonce'
p7102
sS"Wanna Be Startin' Somethin' 2008"
p7103
S'Michael Jackson With Akon'
p7104
sS'Because I Got High'
p7105
S'Afroman'
p7106
sS'When A Woman Loves'
p7107
S'R. Kelly'
p7108
sS'Shining Down'
p7109
S'Lupe Fiasco Featuring Matthew Santos'
p7110
sS'SOS'
p7111
S'Rihanna'
p7112
sS'Gotta Be Somebody'
p7113
S'Nickelback'
p7114
sS'A Good Day To Run'
p7115
S'Darryl Worley'
p7116
sS"I'm N Luv (Wit A Stripper)"
p7117
S'T-Pain Featuring Mike Jones'
p7118
sS'Find Out Who Your Friends Are'
p7119
S'Tracy Lawrence'
p7120
sS'Shake It'
p7121
S'Metro Station'
p7122
sS'In My Head'
p7123
S'Jason Derulo'
p7124
sS'If I Had You'
p7125
S'Adam Lambert'
p7126
sS'Picture To Burn'
p7127
S'Taylor Swift'
p7128
sS"Can't Be Tamed"
p7129
S'Miley Cyrus'
p7130
sS"I'll Be Lovin' U Long Time"
p7131
S'Mariah Carey'
p7132
sS'All I Want For Christmas Is You'
p7133
S'Mariah Carey'
p7134
sS'Ride'
p7135
S'Ciara Featuring Ludacris'
p7136
sS'These Days'
p7137
S'Rascal Flatts'
p7138
sS"We're All In This Together"
p7139
S'High School Musical Cast'
p7140
sS'Crybaby'
p7141
S'Mariah Carey Featuring Snoop Dogg'
p7142
sS"Hips Don't Lie"
p7143
S'Shakira Featuring Wyclef Jean'
p7144
sS'American Idiot'
p7145
S'Green Day'
p7146
sS'Hallelujah'
p7147
S'Lee DeWyze'
p7148
sS'(You Want To) Make A Memory'
p7149
S'Bon Jovi'
p7150
sS'Home To You'
p7151
S'John Michael Montgomery'
p7152
sS'If My Heart Had Wings'
p7153
S'Faith Hill'
p7154
sS'Long Time Gone'
p7155
S'Dixie Chicks'
p7156
sS'I Melt'
p7157
S'Rascal Flatts'
p7158
sS'Not Ready To Make Nice'
p7159
S'Dixie Chicks'
p7160
sS'Earth Intruders'
p7161
S'Bjork'
p7162
sS'Lo Mejor De Mi Vida Eres Tu/The Best Thing About Me Is You'
p7163
S'Ricky Martin Featuring Natalia Jimenez'
p7164
sS'Bleeding Love'
p7165
S'Leona Lewis'
p7166
sS"Everybody Doesn't"
p7167
S'Amanda'
p7168
sS"Don't Wanna Try"
p7169
S'Frankie J'
p7170
sS'Boyfriend #2'
p7171
S'Pleasure P'
p7172
sS'Take Ya Home'
p7173
S'Lil Bow Wow'
p7174
sS'Call My Name'
p7175
S'Prince'
p7176
sS'One More Chance'
p7177
S'Michael Jackson'
p7178
sS'Come Into My World'
p7179
S'Kylie Minogue'
p7180
sS'Gold Digger'
p7181
S'Kanye West Featuring Jamie Foxx'
p7182
sS'Yeah 3X'
p7183
S'Chris Brown'
p7184
sS'Down 4 U'
p7185
S'Irv Gotti Presents The Inc. Featuring Ja Rule, Ashanti, Charli Baltimore & Vita'
p7186
sS'The Pretender'
p7187
S'Foo Fighters'
p7188
sS'Still In My Heart'
p7189
S'Tracie Spencer'
p7190
sS'Never'
p7191
S'Jaheim'
p7192
sS'Gold Lion'
p7193
S'Yeah Yeah Yeahs'
p7194
sS'Two Wrongs'
p7195
S'Wyclef Jean Featuring Claudette Ortiz'
p7196
sS'Mistletoe'
p7197
S'Colbie Caillat'
p7198
sS"You Don't Know My Name"
p7199
S'Alicia Keys'
p7200
sS'Something To Be Proud Of'
p7201
S'Montgomery Gentry'
p7202
sS'1, 2 Step'
p7203
S'Ciara Featuring Missy Elliott'
p7204
sS'Dashboard'
p7205
S'Modest Mouse'
p7206
sS'The Call'
p7207
S'Backstreet Boys'
p7208
sS'Temperature'
p7209
S'Sean Paul'
p7210
sS'React'
p7211
S'Erick Sermon Featuring Redman'
p7212
sS'I Wonder'
p7213
S'Kellie Pickler'
p7214
sS'Live Your Life'
p7215
S'T.I. Featuring Rihanna'
p7216
sS'The Business'
p7217
S'Yung Berg Featuring Casha'
p7218
sS'Mesmerize'
p7219
S'Ja Rule Featuring Ashanti'
p7220
sS'True Friend'
p7221
S'Hannah Montana'
p7222
sS'Landed'
p7223
S'Ben Folds'
p7224
sS'Like Wow!'
p7225
S'Leslie Carter'
p7226
sS'Broken'
p7227
S'Lifehouse'
p7228
sS"Dance Like There's No Tomorrow"
p7229
S'Paula Abdul & Randy Jackson'
p7230
sS"We Takin' Over"
p7231
S"DJ Khaled Featuring T.I., Akon, Rick Ross, Fat Joe, Lil' Wayne & Baby"
p7232
sS'Hit The Freeway'
p7233
S'Toni Braxton Featuring Loon'
p7234
sS'Let Them Be Little'
p7235
S'Billy Dean'
p7236
sS'Here I Am'
p7237
S'Rick Ross Featuring Nelly & Avery Storm'
p7238
sS'I Wanna Rock'
p7239
S'Snoop Dogg'
p7240
sS'American Ride'
p7241
S'Toby Keith'
p7242
sS"She's Everything"
p7243
S'Brad Paisley'
p7244
sS"We Be Burnin'"
p7245
S'Sean Paul'
p7246
sS'Strange'
p7247
S'Reba'
p7248
sS'Long Trip Alone'
p7249
S'Dierks Bentley'
p7250
sS'Entourage'
p7251
S'Omarion'
p7252
sS"That's When I Love You"
p7253
S'Phil Vassar'
p7254
sS'I Need A Girl (Part Two)'
p7255
S'P. Diddy & Ginuwine Featuring Loon, Mario Winans & Tammy Ruggeri'
p7256
sS'American Life'
p7257
S'Madonna'
p7258
sS'Little Moments'
p7259
S'Brad Paisley'
p7260
sS'Pants On The Ground'
p7261
S'General Larry Platt'
p7262
sS'Break My Bank'
p7263
S'New Boyz Featuring Iyaz'
p7264
sS"I'm Like A Lawyer...(Me & You)"
p7265
S'Fall Out Boy'
p7266
sS'Listen To Your Heart'
p7267
S'D.H.T.'
p7268
sS'Release'
p7269
S'Timbaland Featuring Justin Timberlake'
p7270
sS'Hillbilly Bone'
p7271
S'Blake Shelton Featuring Trace Adkins'
p7272
sS'Marry Me'
p7273
S'Train'
p7274
sS'Fallen'
p7275
S'Sarah McLachlan'
p7276
sS'Don t Think I m Not'
p7277
S'Kandi'
p7278
sS'Rich Girl'
p7279
S'Gwen Stefani Featuring Eve'
p7280
sS'Bug A Boo'
p7281
S'Destiny s Child'
p7282
sS'Always Be My Baby'
p7283
S'David Cook'
p7284
sS'I Should Be Sleeping'
p7285
S'Emerson Drive'
p7286
sS'Seven Nation Army'
p7287
S'The White Stripes'
p7288
sS'Angels In Waiting'
p7289
S'Tammy Cochran'
p7290
sS'Honey'
p7291
S'Erykah Badu'
p7292
sS'Liv Tonight'
p7293
S'Nelly Featuring Keri Hilson'
p7294
sS'Thank You For Loving Me'
p7295
S'Bon Jovi'
p7296
sS'Eenie Meenie'
p7297
S'Sean Kingston & Justin Bieber'
p7298
sS'Look After You'
p7299
S'The Fray'
p7300
sS'Put That Woman First'
p7301
S'Jaheim'
p7302
sS"We Thuggin'"
p7303
S'Fat Joe Featuring R. Kelly'
p7304
sS'The Only Difference Between Martyrdom And Suicide Is Press Coverage'
p7305
S'Panic! At The Disco'
p7306
sS'So Sexy'
p7307
S'Twista Featuring R. Kelly'
p7308
sS'Walk Away (Remember Me)'
p7309
S'Paula DeAnda Featuring The DEY'
p7310
sS'Turn Around (5 4 3 2 1)'
p7311
S'Flo Rida'
p7312
sS'Just In Case'
p7313
S'Jaheim'
p7314
sS'So What The Fuss'
p7315
S'Stevie Wonder'
p7316
sS'Soulja Girl'
p7317
S"Soulja Boy Tell'em Featuring I-15"
p7318
sS'Not A Day Goes By'
p7319
S'Lonestar'
p7320
sS"I'm Movin' On"
p7321
S'Rascal Flatts'
p7322
sS'Like We Used To'
p7323
S'A Rocket To The Moon'
p7324
sS"Takin' It To The Streets"
p7325
S'Taylor Hicks'
p7326
sS'Until The End Of Time'
p7327
S'Justin Timberlake Duet With Beyonce'
p7328
sS"I Wish You'd Stay"
p7329
S'Brad Paisley'
p7330
sS'Sweet Thing'
p7331
S'Keith Urban'
p7332
sS'Change The Game'
p7333
S'Jay-Z, Beanie Sigel And Memphis Bleek'
p7334
sS'Break You Off'
p7335
S'The Roots Featuring Musiq'
p7336
sS'Sex Therapy'
p7337
S'Robin Thicke'
p7338
sS"We Weren't Born To Follow"
p7339
S'Bon Jovi'
p7340
sS'Sorry'
p7341
S'Buckcherry'
p7342
sS'Notorious B.I.G.'
p7343
S'The Notorious B.I.G. Featuring Puff Daddy'
p7344
sS'Warrior'
p7345
S'Nelly'
p7346
sS'If Heaven'
p7347
S'Andy Griggs'
p7348
sS'What Would You Do?'
p7349
S'The Isley Brothers Featuring Ronald Isley'
p7350
sS'Forever & Always'
p7351
S'Taylor Swift'
p7352
sS'S.E.X.'
p7353
S'Lyfe Jennings'
p7354
sS'Enchanted'
p7355
S'Taylor Swift'
p7356
sS'Pretty Vegas'
p7357
S'INXS'
p7358
sS"She's Country"
p7359
S'Jason Aldean'
p7360
sS'Be OK'
p7361
S'Ingrid Michaelson'
p7362
sS'Need A Boss'
p7363
S'Shareefa Featuring Ludacris'
p7364
sS'Otherside'
p7365
S'Red Hot Chili Peppers'
p7366
sS'Wall To Wall'
p7367
S'Chris Brown'
p7368
sS"Sittin' Sidewayz"
p7369
S'Paul Wall Featuring Big Pokey'
p7370
sS'Why We Thugs'
p7371
S'Ice Cube'
p7372
sS'Best Of Intentions'
p7373
S'Travis Tritt'
p7374
sS'Beautiful Monster'
p7375
S'Ne-Yo'
p7376
sS'Feels Like Tonight'
p7377
S'Daughtry'
p7378
sS'Best I Ever Had (Grey Sky Morning)'
p7379
S'Vertical Horizon'
p7380
sS'Slither'
p7381
S'Velvet Revolver'
p7382
sS'Heaven'
p7383
S'Los Lonely Boys'
p7384
sS'Better Life'
p7385
S'Keith Urban'
p7386
sS'I Will Love Again'
p7387
S'Lara Fabian'
p7388
sS'Careless Whisper'
p7389
S'Seether'
p7390
sS'Dirty Little Secret'
p7391
S'The All-American Rejects'
p7392
sS'Toot It And Boot It'
p7393
S'YG'
p7394
sS'History In The Making'
p7395
S'Darius Rucker'
p7396
sS'Miss You'
p7397
S'Aaliyah'
p7398
sS'Who I Am'
p7399
S'Nick Jonas & The Administration'
p7400
sS'Sparks Fly'
p7401
S'Taylor Swift'
p7402
sS'How Come'
p7403
S'D12'
p7404
sS'Take Me As I Am'
p7405
S'Mary J. Blige'
p7406
sS"I'll Fly With You (L'amour Toujours)"
p7407
S"Gigi D'Agostino"
p7408
sS'For The First Time'
p7409
S'The Script'
p7410
sS'What I Really Meant To Say'
p7411
S'Cyndi Thomson'
p7412
sS'Mr. Too Damn Good'
p7413
S'Gerald Levert'
p7414
sS'When The Stars Go Blue'
p7415
S'Tim McGraw'
p7416
sS'Just Because'
p7417
S"Jane's Addiction"
p7418
sS'Throw It In The Bag'
p7419
S'Fabolous Featuring The-Dream'
p7420
sS'Cha-Cha Slide'
p7421
S'Mr. C The Slide Man'
p7422
sS'Like A Virgin'
p7423
S'Glee Cast Feat. Matthew Morrison, Jayma Mayes, Naya Rivera, Cory Monteith & Lea Michele'
p7424
sS'Unbreakable'
p7425
S'Alicia Keys'
p7426
sS"You Can't Take The Honky Tonk Out Of The Girl"
p7427
S'Brooks & Dunn'
p7428
sS'Indestructible'
p7429
S'Disturbed'
p7430
sS'Lifetime'
p7431
S'Maxwell'
p7432
sS'My Apocalypse'
p7433
S'Metallica'
p7434
sS"I'm In Miami Trick"
p7435
S'LMFAO'
p7436
sS'Empty Walls'
p7437
S'Serj Tankian'
p7438
sS"I've Got You"
p7439
S'Marc Anthony'
p7440
sS'Fire Burning'
p7441
S'Sean Kingston'
p7442
sS'Freaky Gurl'
p7443
S'Gucci Mane'
p7444
sS'Cherchez LaGhost'
p7445
S'Ghostface Killah'
p7446
sS'The Crow And The Butterfly'
p7447
S'Shinedown'
p7448
sS'Defying Gravity'
p7449
S'Glee Cast'
p7450
sS'My Happy Ending'
p7451
S'Avril Lavigne'
p7452
sS"Can't Nobody"
p7453
S'Kelly Rowland'
p7454
sS'Mrs. Officer'
p7455
S'Lil Wayne Featuring Bobby Valentino & Kidd Kidd'
p7456
sS"That's How I Beat Shaq"
p7457
S'Aaron Carter'
p7458
sS"It Won't Be Like This For Long"
p7459
S'Darius Rucker'
p7460
sS'Evacuate The Dancefloor'
p7461
S'Cascada'
p7462
sS'Mountains'
p7463
S'Lonestar'
p7464
sS'1985'
p7465
S'Bowling For Soup'
p7466
sS'Hot Tottie'
p7467
S'Usher Featuring Jay-Z'
p7468
sS'Whistle While You Twurk'
p7469
S'Ying Yang Twins'
p7470
sS'I Love You This Much'
p7471
S'Jimmy Wayne'
p7472
sS'Leave The Pieces'
p7473
S'The Wreckers'
p7474
sS'South Side'
p7475
S'Moby Featuring Gwen Stefani'
p7476
sS'Good Directions'
p7477
S'Billy Currington'
p7478
sS'Have A Nice Day'
p7479
S'Bon Jovi'
p7480
sS'Give A Little Bit'
p7481
S'Goo Goo Dolls'
p7482
sS"If You're Not The One"
p7483
S'Daniel Bedingfield'
p7484
sS"Talkin' 2 Myself"
p7485
S'Eminem Featuring Kobe'
p7486
sS"Rose's Turn"
p7487
S'Glee Cast'
p7488
sS'Got To Get It'
p7489
S'Sisqo Featuring Make It Hot'
p7490
sS'Take Your Shirt Off'
p7491
S'T-Pain'
p7492
sS'A Bay Bay'
p7493
S'Hurricane Chris'
p7494
sS'Speed Of Sound'
p7495
S'Coldplay'
p7496
sS'Change Your Mind'
p7497
S'Sister Hazel'
p7498
sS'Tequila Makes Her Clothes Fall Off'
p7499
S'Joe Nichols'
p7500
sS'God Bless The U.S.A.'
p7501
S'American Idol Finalists'
p7502
sS'(When You Gonna) Give It Up To Me'
p7503
S'Sean Paul Feat. Keyshia Cole'
p7504
sS'Ay Chico (Lengua Afuera)'
p7505
S'Pitbull'
p7506
sS'I Got Nerve'
p7507
S'Hannah Montana'
p7508
sS'Cowboy Take Me Away'
p7509
S'Dixie Chicks'
p7510
sS'Bad Boyz'
p7511
S'Shyne Featuring Barrington Levy'
p7512
sS'AM To PM'
p7513
S'Christina Milian'
p7514
sS'The Adventure'
p7515
S'Angels And Airwaves'
p7516
sS'Take My Breath Away'
p7517
S'Jessica Simpson'
p7518
sS'Too Little Too Late'
p7519
S'JoJo'
p7520
sS"Love Don't Live Here"
p7521
S'Lady Antebellum'
p7522
sS"I Don't Want To Miss A Thing"
p7523
S'David Cook'
p7524
sS"Ain't Leavin Without You"
p7525
S'Jaheim'
p7526
sS'Have You Forgotten?'
p7527
S'Darryl Worley'
p7528
sS'U And Dat'
p7529
S'E-40 Featuring T-Pain & Kandi Girl'
p7530
sS'Alive'
p7531
S'P.O.D.'
p7532
sS'Kiss A Girl'
p7533
S'Keith Urban'
p7534
sS'Valerie'
p7535
S'Glee Cast'
p7536
sS'Kindly Unspoken'
p7537
S'Kate Voegele'
p7538
sS"Superman (It's Not Easy)"
p7539
S'Five For Fighting'
p7540
sS'Help Me Understand'
p7541
S'Trace Adkins'
p7542
sS'Impacto'
p7543
S'Daddy Yankee Featuring Fergie'
p7544
sS'Gotta Make It'
p7545
S'Trey Songz Featuring Twista'
p7546
sS'The Widow'
p7547
S'The Mars Volta'
p7548
sS"You Know I'm No Good"
p7549
S'Amy Winehouse Featuring Ghostface Killah'
p7550
sS'Wish You Were Here'
p7551
S'Incubus'
p7552
sS'Vertigo'
p7553
S'U2'
p7554
sS'Bass Down Low'
p7555
S'Dev Featuring The Cataracs'
p7556
sS'ASAP'
p7557
S'T.I.'
p7558
sS'Drugs Or Jesus'
p7559
S'Tim McGraw'
p7560
sS'Yeah!'
p7561
S'Usher Featuring Lil Jon & Ludacris'
p7562
sS'Lights, Camera, Action!'
p7563
S'Mr. Cheeks'
p7564
sS'It s Always Somethin '
p7565
S'Joe Diffie'
p7566
sS'Love Is Blind'
p7567
S'Eve Featuring Faith Evans'
p7568
sS'Hello, I Love You'
p7569
S'Glee Cast'
p7570
sS'Hemorrhage (In My Hands)'
p7571
S'Fuel'
p7572
sS'Just A Friend 2002'
p7573
S'Mario'
p7574
sS"Pullin' Me Back"
p7575
S'Chingy Featuring Tyrese'
p7576
sS'Dontchange'
p7577
S'Musiq'
p7578
sS'Vans'
p7579
S'The Pack'
p7580
sS'Stars Are Blind'
p7581
S'Paris Hilton'
p7582
sS'Just Breathe'
p7583
S'Pearl Jam'
p7584
sS'Sunshine'
p7585
S"Lil' Flip Featuring Lea"
p7586
sS'The Good Stuff'
p7587
S'Kenny Chesney'
p7588
sS'Luxurious'
p7589
S'Gwen Stefani'
p7590
sS"Hustler's Ambition"
p7591
S'50 Cent'
p7592
sS'Remedy'
p7593
S'Seether'
p7594
sS'Don t Say You Love Me'
p7595
S'M2M'
p7596
sS'All Jacked Up'
p7597
S'Gretchen Wilson'
p7598
sS'He Said She Said'
p7599
S'Ashley Tisdale'
p7600
sS'Headlines (Friendship Never Ends)'
p7601
S'Spice Girls'
p7602
sS'Keep Holding On'
p7603
S'Glee Cast'
p7604
sS'Boondocks'
p7605
S'Little Big Town'
p7606
sS'Wave On Wave'
p7607
S'Pat Green'
p7608
sS'Lost'
p7609
S'Gorilla Zoe'
p7610
sS'Secrets'
p7611
S'OneRepublic'
p7612
sS'Undo It'
p7613
S'Carrie Underwood'
p7614
sS'It Wasn t Me'
p7615
S'Shaggy Featuring Ricardo "RikRok" Ducent'
p7616
sS"Tonight (I'm Lovin' You)"
p7617
S'Enrique Iglesias Featuring Ludacris & DJ Frank E'
p7618
sS'I Don t Wanna Kiss You Goodnight'
p7619
S'LFO'
p7620
sS'What The World Needs'
p7621
S'Wynonna'
p7622
sS'Cyanide'
p7623
S'Metallica'
p7624
sS'Make It Rain'
p7625
S'Fat Joe Featuring Lil Wayne'
p7626
sS'Knoc'
p7627
S'Knoc-Turn\'Al With Dr. Dre & Missy "Misdemeanor" Elliott'
p7628
sS'Shattered Glass'
p7629
S'Britney Spears'
p7630
sS'The Boys of Fall'
p7631
S'Kenny Chesney'
p7632
sS'Original Fire'
p7633
S'Audioslave'
p7634
sS'Don t Tell Me'
p7635
S'Madonna'
p7636
sS'More Like Her'
p7637
S'Miranda Lambert'
p7638
sS'That s The Kind Of Mood I m In'
p7639
S'Patty Loveless'
p7640
sS'Get Silly'
p7641
S'V.I.C.'
p7642
sS'Shadow Of The Day'
p7643
S'Linkin Park'
p7644
sS'Mean'
p7645
S'Taylor Swift'
p7646
sS'I Need A Girl (Part One)'
p7647
S'P. Diddy Featuring Usher & Loon'
p7648
sS'Only U'
p7649
S'Ashanti'
p7650
sS"Who You'd Be Today"
p7651
S'Kenny Chesney'
p7652
sS'Hello Good Morning'
p7653
S'Diddy - Dirty Money Featuring T.I.'
p7654
sS"Who's That Girl?"
p7655
S'Eve'
p7656
s.